	.file	"bytecode.c"
	.text
.Ltext0:
	.section	.rodata.str1.1,"aMS",@progbits,1
.LC0:
	.string	"Unexpected end of file.\n"
	.section	.text.unlikely,"ax",@progbits
	.type	read_byte.part.0, @function
read_byte.part.0:
.LFB56:
	.file 1 "bytecode.c"
	.loc 1 17 0
	.cfi_startproc
.LVL0:
	pushq	%rax
	.cfi_def_cfa_offset 16
.LBB128:
.LBB129:
	.file 2 "/usr/include/x86_64-linux-gnu/bits/stdio2.h"
	.loc 2 105 0
	movl	$1, %edi
	movl	$.LC0, %esi
	xorl	%eax, %eax
	call	__printf_chk
.LVL1:
.LBE129:
.LBE128:
	.loc 1 21 0
	orl	$-1, %edi
	call	exit
.LVL2:
	.cfi_endproc
.LFE56:
	.size	read_byte.part.0, .-read_byte.part.0
	.section	.rodata.str1.1
.LC1:
	.string	"Unrecognized Opcode: %d\n"
	.text
	.p2align 4,,15
	.globl	read_ins
	.type	read_ins, @function
read_ins:
.LFB46:
	.loc 1 68 0
	.cfi_startproc
	pushq	%rbp
	.cfi_def_cfa_offset 16
	.cfi_offset 6, -16
	pushq	%rbx
	.cfi_def_cfa_offset 24
	.cfi_offset 3, -24
	subq	$8, %rsp
	.cfi_def_cfa_offset 32
.LBB260:
.LBB261:
	.loc 1 18 0
	movq	inputfile(%rip), %rdi
	call	fgetc
.LVL3:
	.loc 1 19 0
	testl	%eax, %eax
	js	.L24
.LBE261:
.LBE260:
	.loc 1 70 0
	cmpb	$16, %al
.LBB264:
.LBB262:
	.loc 1 23 0
	movzbl	%al, %edx
.LBE262:
.LBE264:
	.loc 1 70 0
	ja	.L5
	.p2align 4,,4
	jmp	*.L7(,%rdx,8)
	.section	.rodata
	.align 8
	.align 4
.L7:
	.quad	.L6
	.quad	.L8
	.quad	.L9
	.quad	.L10
	.quad	.L11
	.quad	.L12
	.quad	.L13
	.quad	.L14
	.quad	.L15
	.quad	.L16
	.quad	.L17
	.quad	.L18
	.quad	.L19
	.quad	.L20
	.quad	.L21
	.quad	.L22
	.quad	.L23
	.text
	.p2align 4,,10
	.p2align 3
.L22:
.LBB265:
	.loc 1 119 0
	movl	$4, %edi
	call	malloc
.LVL4:
	movl	$15, (%rax)
.LVL5:
.L25:
.LBE265:
	.loc 1 126 0
	addq	$8, %rsp
	.cfi_remember_state
	.cfi_def_cfa_offset 24
	popq	%rbx
	.cfi_def_cfa_offset 16
	popq	%rbp
	.cfi_def_cfa_offset 8
	ret
.LVL6:
	.p2align 4,,10
	.p2align 3
.L23:
	.cfi_restore_state
.LBB266:
	.loc 1 121 0
	movl	$4, %edi
	call	malloc
.LVL7:
	movl	$16, (%rax)
	jmp	.L25
.LVL8:
	.p2align 4,,10
	.p2align 3
.L6:
.LBE266:
.LBB267:
	.loc 1 72 0
	movl	$8, %edi
	call	malloc
.LVL9:
	movq	%rax, %rbx
.LVL10:
	movl	$0, (%rax)
.LVL11:
	.p2align 4,,10
	.p2align 3
.L50:
.LBE267:
.LBB268:
.LBB269:
.LBB270:
.LBB271:
.LBB272:
	.loc 1 18 0
	movq	inputfile(%rip), %rdi
	call	fgetc
.LVL12:
	.loc 1 19 0
	testl	%eax, %eax
	.loc 1 18 0
	movl	%eax, %ebp
.LVL13:
	.loc 1 19 0
	js	.L24
.LVL14:
.LBE272:
.LBE271:
.LBB273:
.LBB274:
	.loc 1 18 0
	movq	inputfile(%rip), %rdi
	call	fgetc
.LVL15:
	.loc 1 19 0
	testl	%eax, %eax
	js	.L24
.LVL16:
.LBE274:
.LBE273:
	.loc 1 28 0
	movzbl	%al, %edx
	movzbl	%bpl, %ebp
.LVL17:
.LBE270:
.LBE269:
	.loc 1 116 0
	movq	%rbx, %rax
.LVL18:
.LBB276:
.LBB275:
	.loc 1 28 0
	sall	$8, %edx
.LVL19:
	addl	%ebp, %edx
	movl	%edx, 4(%rbx)
.LBE275:
.LBE276:
.LBE268:
	.loc 1 126 0
	addq	$8, %rsp
	.cfi_remember_state
	.cfi_def_cfa_offset 24
	popq	%rbx
	.cfi_def_cfa_offset 16
	popq	%rbp
	.cfi_def_cfa_offset 8
.LVL20:
	ret
.LVL21:
	.p2align 4,,10
	.p2align 3
.L8:
	.cfi_restore_state
.LBB277:
	.loc 1 75 0
	movl	$8, %edi
	call	malloc
.LVL22:
	movq	%rax, %rbx
.LVL23:
	movl	$1, (%rax)
	jmp	.L50
.LVL24:
	.p2align 4,,10
	.p2align 3
.L9:
.LBE277:
.LBB278:
	.loc 1 78 0
	movl	$12, %edi
	call	malloc
.LVL25:
	movq	%rax, %rbx
.LVL26:
	movl	$2, (%rax)
.LVL27:
.L61:
.LBE278:
.LBB279:
.LBB280:
.LBB281:
.LBB282:
.LBB283:
	.loc 1 18 0
	movq	inputfile(%rip), %rdi
	call	fgetc
.LVL28:
	.loc 1 19 0
	testl	%eax, %eax
	.loc 1 18 0
	movl	%eax, %ebp
.LVL29:
	.loc 1 19 0
	js	.L24
.LVL30:
.LBE283:
.LBE282:
.LBB284:
.LBB285:
	.loc 1 18 0
	movq	inputfile(%rip), %rdi
	call	fgetc
.LVL31:
	.loc 1 19 0
	testl	%eax, %eax
	js	.L24
.LVL32:
.LBE285:
.LBE284:
	.loc 1 28 0
	movzbl	%al, %edx
	movzbl	%bpl, %ebp
.LVL33:
.LBE281:
.LBE280:
.LBB287:
.LBB288:
	.loc 1 18 0
	movq	inputfile(%rip), %rdi
.LBE288:
.LBE287:
.LBB290:
.LBB286:
	.loc 1 28 0
	sall	$8, %edx
	addl	%ebp, %edx
	movl	%edx, 4(%rbx)
.LBE286:
.LBE290:
.LBB291:
.LBB289:
	.loc 1 18 0
	call	fgetc
.LVL34:
	.loc 1 19 0
	testl	%eax, %eax
	js	.L24
.LBE289:
.LBE291:
	.loc 1 97 0
	movsbl	%al, %eax
.LVL35:
	movl	%eax, 8(%rbx)
.LBE279:
	.loc 1 126 0
	addq	$8, %rsp
	.cfi_remember_state
	.cfi_def_cfa_offset 24
.LBB292:
	.loc 1 97 0
	movq	%rbx, %rax
.LBE292:
	.loc 1 126 0
	popq	%rbx
	.cfi_def_cfa_offset 16
	popq	%rbp
	.cfi_def_cfa_offset 8
.LVL36:
	ret
.LVL37:
	.p2align 4,,10
	.p2align 3
.L10:
	.cfi_restore_state
.LBB293:
	.loc 1 82 0
	movl	$4, %edi
	call	malloc
.LVL38:
	movl	$3, (%rax)
	jmp	.L25
.LVL39:
	.p2align 4,,10
	.p2align 3
.L11:
.LBE293:
.LBB294:
	.loc 1 84 0
	movl	$8, %edi
	call	malloc
.LVL40:
	movq	%rax, %rbx
.LVL41:
	movl	$4, (%rax)
	jmp	.L50
.LVL42:
	.p2align 4,,10
	.p2align 3
.L12:
.LBE294:
.LBB295:
	.loc 1 87 0
	movl	$8, %edi
	call	malloc
.LVL43:
	movq	%rax, %rbx
.LVL44:
	movl	$5, (%rax)
	jmp	.L50
.LVL45:
	.p2align 4,,10
	.p2align 3
.L13:
.LBE295:
.LBB296:
	.loc 1 90 0
	movl	$8, %edi
	call	malloc
.LVL46:
	movq	%rax, %rbx
.LVL47:
	movl	$6, (%rax)
	jmp	.L50
.LVL48:
	.p2align 4,,10
	.p2align 3
.L14:
.LBE296:
.LBB297:
	.loc 1 93 0
	movl	$12, %edi
	call	malloc
.LVL49:
	movq	%rax, %rbx
.LVL50:
	movl	$7, (%rax)
	jmp	.L61
.LVL51:
	.p2align 4,,10
	.p2align 3
.L15:
.LBE297:
.LBB298:
	.loc 1 97 0
	movl	$12, %edi
	call	malloc
.LVL52:
	movq	%rax, %rbx
.LVL53:
	movl	$8, (%rax)
	jmp	.L61
.LVL54:
	.p2align 4,,10
	.p2align 3
.L16:
.LBE298:
.LBB299:
	.loc 1 101 0
	movl	$8, %edi
	call	malloc
.LVL55:
	movq	%rax, %rbx
.LVL56:
	movl	$9, (%rax)
	jmp	.L50
.LVL57:
	.p2align 4,,10
	.p2align 3
.L17:
.LBE299:
.LBB300:
	.loc 1 104 0
	movl	$8, %edi
	call	malloc
.LVL58:
	movq	%rax, %rbx
.LVL59:
	movl	$10, (%rax)
	jmp	.L50
.LVL60:
	.p2align 4,,10
	.p2align 3
.L18:
.LBE300:
.LBB301:
	.loc 1 107 0
	movl	$8, %edi
	call	malloc
.LVL61:
	movq	%rax, %rbx
.LVL62:
	movl	$11, (%rax)
	jmp	.L50
.LVL63:
	.p2align 4,,10
	.p2align 3
.L19:
.LBE301:
.LBB302:
	.loc 1 110 0
	movl	$8, %edi
	call	malloc
.LVL64:
	movq	%rax, %rbx
.LVL65:
	movl	$12, (%rax)
	jmp	.L50
.LVL66:
	.p2align 4,,10
	.p2align 3
.L20:
.LBE302:
.LBB303:
	.loc 1 113 0
	movl	$8, %edi
	call	malloc
.LVL67:
	movq	%rax, %rbx
.LVL68:
	movl	$13, (%rax)
	jmp	.L50
.LVL69:
	.p2align 4,,10
	.p2align 3
.L21:
.LBE303:
.LBB304:
	.loc 1 116 0
	movl	$8, %edi
	call	malloc
.LVL70:
	movq	%rax, %rbx
.LVL71:
	movl	$14, (%rax)
	jmp	.L50
.LVL72:
	.p2align 4,,10
	.p2align 3
.L5:
.LBE304:
	.loc 1 123 0
	movsbl	%al, %edx
.LBB305:
.LBB306:
	.loc 2 105 0
	movl	$1, %edi
	movl	$.LC1, %esi
	xorl	%eax, %eax
.LVL73:
	call	__printf_chk
.LVL74:
.LBE306:
.LBE305:
	.loc 1 124 0
	movl	$-1, %edi
	call	exit
.LVL75:
.L24:
.LBB307:
.LBB263:
	xorl	%eax, %eax
	call	read_byte.part.0
.LVL76:
.LBE263:
.LBE307:
	.cfi_endproc
.LFE46:
	.size	read_ins, .-read_ins
	.section	.rodata.str1.1
.LC2:
	.string	"Unrecognized value tag: %d\n"
	.text
	.p2align 4,,15
	.globl	read_value
	.type	read_value, @function
read_value:
.LFB47:
	.loc 1 151 0
	.cfi_startproc
	pushq	%r15
	.cfi_def_cfa_offset 16
	.cfi_offset 15, -16
	pushq	%r14
	.cfi_def_cfa_offset 24
	.cfi_offset 14, -24
	pushq	%r13
	.cfi_def_cfa_offset 32
	.cfi_offset 13, -32
	pushq	%r12
	.cfi_def_cfa_offset 40
	.cfi_offset 12, -40
	pushq	%rbp
	.cfi_def_cfa_offset 48
	.cfi_offset 6, -48
	pushq	%rbx
	.cfi_def_cfa_offset 56
	.cfi_offset 3, -56
	subq	$8, %rsp
	.cfi_def_cfa_offset 64
.LBB391:
.LBB392:
	.loc 1 18 0
	movq	inputfile(%rip), %rdi
	call	fgetc
.LVL77:
	.loc 1 19 0
	testl	%eax, %eax
	js	.L74
.LBE392:
.LBE391:
	.loc 1 153 0
	cmpb	$5, %al
.LBB395:
.LBB393:
	.loc 1 23 0
	movzbl	%al, %edx
.LBE393:
.LBE395:
	.loc 1 153 0
	ja	.L66
	.p2align 4,,4
	jmp	*.L68(,%rdx,8)
	.section	.rodata
	.align 8
	.align 4
.L68:
	.quad	.L67
	.quad	.L69
	.quad	.L70
	.quad	.L71
	.quad	.L72
	.quad	.L73
	.text
	.p2align 4,,10
	.p2align 3
.L72:
.LBB396:
	.loc 1 169 0
	movl	$8, %edi
	call	malloc
.LVL78:
.LBB397:
.LBB398:
.LBB399:
.LBB400:
	.loc 1 18 0
	movq	inputfile(%rip), %rdi
.LBE400:
.LBE399:
.LBE398:
.LBE397:
	.loc 1 169 0
	movl	$4, (%rax)
	movq	%rax, %r14
.LVL79:
.LBB407:
.LBB405:
.LBB402:
.LBB401:
	.loc 1 18 0
	call	fgetc
.LVL80:
	.loc 1 19 0
	testl	%eax, %eax
	.loc 1 18 0
	movl	%eax, %ebx
.LVL81:
	.loc 1 19 0
	js	.L74
.LVL82:
.LBE401:
.LBE402:
.LBB403:
.LBB404:
	.loc 1 18 0
	movq	inputfile(%rip), %rdi
	call	fgetc
.LVL83:
	.loc 1 19 0
	testl	%eax, %eax
	js	.L74
.LVL84:
.LBE404:
.LBE403:
	.loc 1 28 0
	movzbl	%al, %edx
	movzbl	%bl, %ebx
.LVL85:
.LBE405:
.LBE407:
	.loc 1 169 0
	movq	%r14, %rax
.LVL86:
.LBB408:
.LBB406:
	.loc 1 28 0
	sall	$8, %edx
.LVL87:
	addl	%ebx, %edx
	movl	%edx, 4(%r14)
.LBE406:
.LBE408:
.LBE396:
	.loc 1 178 0
	addq	$8, %rsp
	.cfi_remember_state
	.cfi_def_cfa_offset 56
	popq	%rbx
	.cfi_def_cfa_offset 48
.LVL88:
	popq	%rbp
	.cfi_def_cfa_offset 40
	popq	%r12
	.cfi_def_cfa_offset 32
	popq	%r13
	.cfi_def_cfa_offset 24
	popq	%r14
	.cfi_def_cfa_offset 16
.LVL89:
	popq	%r15
	.cfi_def_cfa_offset 8
	ret
.LVL90:
	.p2align 4,,10
	.p2align 3
.L73:
	.cfi_restore_state
.LBB409:
	.loc 1 172 0
	movl	$16, %edi
	call	malloc
.LVL91:
	movl	$5, (%rax)
	movq	%rax, %r14
.LVL92:
.LBB410:
.LBB411:
	.loc 1 181 0
	xorl	%eax, %eax
.LVL93:
	call	make_vector
.LVL94:
.LBB412:
.LBB413:
.LBB414:
.LBB415:
	.loc 1 18 0
	movq	inputfile(%rip), %rdi
.LBE415:
.LBE414:
.LBE413:
.LBE412:
	.loc 1 181 0
	movq	%rax, %r12
.LVL95:
.LBB422:
.LBB420:
.LBB417:
.LBB416:
	.loc 1 18 0
	call	fgetc
.LVL96:
	.loc 1 19 0
	testl	%eax, %eax
	.loc 1 18 0
	movl	%eax, %ebx
.LVL97:
	.loc 1 19 0
	js	.L74
.LVL98:
.LBE416:
.LBE417:
.LBB418:
.LBB419:
	.loc 1 18 0
	movq	inputfile(%rip), %rdi
	call	fgetc
.LVL99:
	.loc 1 19 0
	testl	%eax, %eax
	js	.L74
.LVL100:
.LBE419:
.LBE418:
	.loc 1 28 0
	movzbl	%al, %edx
	movzbl	%bl, %r13d
.LBE420:
.LBE422:
.LBB423:
	.loc 1 183 0
	xorl	%ebx, %ebx
.LVL101:
.LBE423:
.LBB434:
.LBB421:
	.loc 1 28 0
	sall	$8, %edx
.LBE421:
.LBE434:
.LBB435:
	.loc 1 183 0
	addl	%edx, %r13d
.LVL102:
	je	.L83
.LVL103:
	.p2align 4,,10
	.p2align 3
.L87:
.LBB424:
.LBB425:
.LBB426:
.LBB427:
	.loc 1 18 0
	movq	inputfile(%rip), %rdi
	call	fgetc
.LVL104:
	.loc 1 19 0
	testl	%eax, %eax
	.loc 1 18 0
	movl	%eax, %ebp
.LVL105:
	.loc 1 19 0
	js	.L74
.LVL106:
.LBE427:
.LBE426:
.LBB428:
.LBB429:
	.loc 1 18 0
	movq	inputfile(%rip), %rdi
	call	fgetc
.LVL107:
	.loc 1 19 0
	testl	%eax, %eax
	js	.L74
.LVL108:
.LBE429:
.LBE428:
	.loc 1 28 0
	movzbl	%al, %edx
	movzbl	%bpl, %ebp
.LVL109:
.LBE425:
.LBE424:
	.loc 1 184 0
	movq	%r12, %rdi
.LBB432:
.LBB430:
	.loc 1 28 0
	sall	$8, %edx
.LBE430:
.LBE432:
	.loc 1 183 0
	addl	$1, %ebx
.LVL110:
.LBB433:
.LBB431:
	.loc 1 28 0
	addl	%ebp, %edx
.LBE431:
.LBE433:
	.loc 1 184 0
	movslq	%edx, %rsi
	call	vector_add
.LVL111:
	.loc 1 183 0
	cmpl	%r13d, %ebx
	jne	.L87
.LVL112:
.L83:
.LBE435:
.LBE411:
.LBE410:
	.loc 1 172 0
	movq	%r12, 8(%r14)
.LBE409:
	.loc 1 178 0
	addq	$8, %rsp
	.cfi_remember_state
	.cfi_def_cfa_offset 56
.LBB436:
	.loc 1 172 0
	movq	%r14, %rax
.LBE436:
	.loc 1 178 0
	popq	%rbx
	.cfi_def_cfa_offset 48
	popq	%rbp
	.cfi_def_cfa_offset 40
	popq	%r12
	.cfi_def_cfa_offset 32
.LVL113:
	popq	%r13
	.cfi_def_cfa_offset 24
	popq	%r14
	.cfi_def_cfa_offset 16
.LVL114:
	popq	%r15
	.cfi_def_cfa_offset 8
	ret
.LVL115:
	.p2align 4,,10
	.p2align 3
.L67:
	.cfi_restore_state
.LBB437:
	.loc 1 155 0
	movl	$8, %edi
	call	malloc
.LVL116:
.LBB438:
.LBB439:
.LBB440:
.LBB441:
	.loc 1 18 0
	movq	inputfile(%rip), %rdi
.LBE441:
.LBE440:
.LBE439:
.LBE438:
	.loc 1 155 0
	movl	$0, (%rax)
	movq	%rax, %r14
.LVL117:
.LBB451:
.LBB450:
.LBB443:
.LBB442:
	.loc 1 18 0
	call	fgetc
.LVL118:
	.loc 1 19 0
	testl	%eax, %eax
	.loc 1 18 0
	movl	%eax, %ebp
.LVL119:
	.loc 1 19 0
	js	.L74
.LVL120:
.LBE442:
.LBE443:
.LBB444:
.LBB445:
	.loc 1 18 0
	movq	inputfile(%rip), %rdi
	call	fgetc
.LVL121:
	.loc 1 19 0
	testl	%eax, %eax
	.loc 1 18 0
	movl	%eax, %ebx
.LVL122:
	.loc 1 19 0
	js	.L74
.LVL123:
.LBE445:
.LBE444:
.LBB446:
.LBB447:
	.loc 1 18 0
	movq	inputfile(%rip), %rdi
	call	fgetc
.LVL124:
	.loc 1 19 0
	testl	%eax, %eax
	.loc 1 18 0
	movl	%eax, %r12d
.LVL125:
	.loc 1 19 0
	js	.L74
.LVL126:
.LBE447:
.LBE446:
.LBB448:
.LBB449:
	.loc 1 18 0
	movq	inputfile(%rip), %rdi
	call	fgetc
.LVL127:
	.loc 1 19 0
	testl	%eax, %eax
	js	.L74
.LVL128:
.LBE449:
.LBE448:
	.loc 1 35 0
	movzbl	%bl, %ecx
	movzbl	%bpl, %ebp
.LVL129:
	movzbl	%r12b, %edx
	sall	$8, %ecx
	sall	$16, %edx
	sall	$24, %eax
.LVL130:
	addl	%ebp, %ecx
	addl	%ecx, %edx
	addl	%edx, %eax
	movl	%eax, 4(%r14)
.LBE450:
.LBE451:
.LBE437:
	.loc 1 178 0
	addq	$8, %rsp
	.cfi_remember_state
	.cfi_def_cfa_offset 56
.LBB452:
	.loc 1 155 0
	movq	%r14, %rax
.LBE452:
	.loc 1 178 0
	popq	%rbx
	.cfi_def_cfa_offset 48
.LVL131:
	popq	%rbp
	.cfi_def_cfa_offset 40
.LVL132:
	popq	%r12
	.cfi_def_cfa_offset 32
.LVL133:
	popq	%r13
	.cfi_def_cfa_offset 24
	popq	%r14
	.cfi_def_cfa_offset 16
.LVL134:
	popq	%r15
	.cfi_def_cfa_offset 8
	ret
.LVL135:
	.p2align 4,,10
	.p2align 3
.L70:
	.cfi_restore_state
.LBB453:
	.loc 1 160 0
	movl	$16, %edi
	call	malloc
.LVL136:
.LBB454:
.LBB455:
.LBB456:
.LBB457:
.LBB458:
.LBB459:
	.loc 1 18 0
	movq	inputfile(%rip), %rdi
.LBE459:
.LBE458:
.LBE457:
.LBE456:
.LBE455:
.LBE454:
	.loc 1 160 0
	movl	$2, (%rax)
	movq	%rax, %r14
.LVL137:
.LBB479:
.LBB477:
.LBB470:
.LBB468:
.LBB461:
.LBB460:
	.loc 1 18 0
	call	fgetc
.LVL138:
	.loc 1 19 0
	testl	%eax, %eax
	.loc 1 18 0
	movl	%eax, %r12d
.LVL139:
	.loc 1 19 0
	js	.L74
.LVL140:
.LBE460:
.LBE461:
.LBB462:
.LBB463:
	.loc 1 18 0
	movq	inputfile(%rip), %rdi
	call	fgetc
.LVL141:
	.loc 1 19 0
	testl	%eax, %eax
	.loc 1 18 0
	movl	%eax, %ebx
.LVL142:
	.loc 1 19 0
	js	.L74
.LVL143:
.LBE463:
.LBE462:
.LBB464:
.LBB465:
	.loc 1 18 0
	movq	inputfile(%rip), %rdi
	call	fgetc
.LVL144:
	.loc 1 19 0
	testl	%eax, %eax
	.loc 1 18 0
	movl	%eax, %r13d
.LVL145:
	.loc 1 19 0
	js	.L74
.LVL146:
.LBE465:
.LBE464:
.LBB466:
.LBB467:
	.loc 1 18 0
	movq	inputfile(%rip), %rdi
	call	fgetc
.LVL147:
	.loc 1 19 0
	testl	%eax, %eax
	js	.L74
.LVL148:
.LBE467:
.LBE466:
	.loc 1 35 0
	movzbl	%bl, %ecx
	movzbl	%r12b, %ebp
	movzbl	%r13b, %edx
	sall	$8, %ecx
	sall	$16, %edx
	sall	$24, %eax
.LVL149:
	addl	%ecx, %ebp
.LBE468:
.LBE470:
.LBB471:
	.loc 1 40 0
	xorl	%ebx, %ebx
.LVL150:
.LBE471:
.LBB474:
.LBB469:
	.loc 1 35 0
	addl	%edx, %ebp
	addl	%eax, %ebp
.LBE469:
.LBE474:
	.loc 1 39 0
	leal	1(%rbp), %edi
	movslq	%edi, %rdi
	call	malloc
.LVL151:
.LBB475:
	.loc 1 40 0
	testl	%ebp, %ebp
.LBE475:
	.loc 1 39 0
	movq	%rax, %r12
.LVL152:
.LBB476:
	.loc 1 40 0
	jle	.L77
.LVL153:
	.p2align 4,,10
	.p2align 3
.L85:
.LBB472:
.LBB473:
	.loc 1 18 0
	movq	inputfile(%rip), %rdi
	call	fgetc
.LVL154:
	.loc 1 19 0
	testl	%eax, %eax
	js	.L74
	.loc 1 23 0
	movb	%al, (%r12,%rbx)
.LVL155:
	addq	$1, %rbx
.LVL156:
.LBE473:
.LBE472:
	.loc 1 40 0
	cmpl	%ebx, %ebp
	jg	.L85
.LVL157:
.L77:
.LBE476:
	.loc 1 42 0
	movslq	%ebp, %rbp
.LBE477:
.LBE479:
	.loc 1 160 0
	movq	%r14, %rax
.LBB480:
.LBB478:
	.loc 1 42 0
	movb	$0, (%r12,%rbp)
.LBE478:
.LBE480:
	.loc 1 160 0
	movq	%r12, 8(%r14)
.LBE453:
	.loc 1 178 0
	addq	$8, %rsp
	.cfi_remember_state
	.cfi_def_cfa_offset 56
	popq	%rbx
	.cfi_def_cfa_offset 48
	popq	%rbp
	.cfi_def_cfa_offset 40
	popq	%r12
	.cfi_def_cfa_offset 32
.LVL158:
	popq	%r13
	.cfi_def_cfa_offset 24
.LVL159:
	popq	%r14
	.cfi_def_cfa_offset 16
.LVL160:
	popq	%r15
	.cfi_def_cfa_offset 8
	ret
.LVL161:
	.p2align 4,,10
	.p2align 3
.L71:
	.cfi_restore_state
.LBB481:
	.loc 1 163 0
	movl	$24, %edi
	call	malloc
.LVL162:
.LBB482:
.LBB483:
.LBB484:
.LBB485:
	.loc 1 18 0
	movq	inputfile(%rip), %rdi
.LBE485:
.LBE484:
.LBE483:
.LBE482:
	.loc 1 163 0
	movl	$3, (%rax)
	movq	%rax, %r14
.LVL163:
.LBB492:
.LBB490:
.LBB487:
.LBB486:
	.loc 1 18 0
	call	fgetc
.LVL164:
	.loc 1 19 0
	testl	%eax, %eax
	.loc 1 18 0
	movl	%eax, %ebx
.LVL165:
	.loc 1 19 0
	js	.L74
.LVL166:
.LBE486:
.LBE487:
.LBB488:
.LBB489:
	.loc 1 18 0
	movq	inputfile(%rip), %rdi
	call	fgetc
.LVL167:
	.loc 1 19 0
	testl	%eax, %eax
	js	.L74
.LVL168:
.LBE489:
.LBE488:
	.loc 1 28 0
	movzbl	%al, %edx
	movzbl	%bl, %ebx
.LVL169:
.LBE490:
.LBE492:
.LBB493:
.LBB494:
	.loc 1 18 0
	movq	inputfile(%rip), %rdi
.LBE494:
.LBE493:
.LBB496:
.LBB491:
	.loc 1 28 0
	sall	$8, %edx
	addl	%ebx, %edx
	movl	%edx, 4(%r14)
.LBE491:
.LBE496:
.LBB497:
.LBB495:
	.loc 1 18 0
	call	fgetc
.LVL170:
	.loc 1 19 0
	testl	%eax, %eax
	js	.L74
.LBE495:
.LBE497:
.LBB498:
.LBB499:
.LBB500:
.LBB501:
	.loc 1 18 0
	movq	inputfile(%rip), %rdi
.LBE501:
.LBE500:
.LBE499:
.LBE498:
	.loc 1 163 0
	movsbl	%al, %eax
.LVL171:
	movl	%eax, 8(%r14)
.LBB508:
.LBB506:
.LBB503:
.LBB502:
	.loc 1 18 0
	call	fgetc
.LVL172:
	.loc 1 19 0
	testl	%eax, %eax
	.loc 1 18 0
	movl	%eax, %ebx
.LVL173:
	.loc 1 19 0
	js	.L74
.LVL174:
.LBE502:
.LBE503:
.LBB504:
.LBB505:
	.loc 1 18 0
	movq	inputfile(%rip), %rdi
	call	fgetc
.LVL175:
	.loc 1 19 0
	testl	%eax, %eax
	js	.L74
.LVL176:
.LBE505:
.LBE504:
	.loc 1 28 0
	movzbl	%al, %edx
	movzbl	%bl, %ebx
.LVL177:
.LBE506:
.LBE508:
.LBB509:
.LBB510:
	.loc 1 197 0
	xorl	%eax, %eax
.LVL178:
.LBE510:
.LBE509:
.LBB530:
.LBB507:
	.loc 1 28 0
	sall	$8, %edx
.LVL179:
	addl	%ebx, %edx
	movl	%edx, 12(%r14)
.LBE507:
.LBE530:
.LBB531:
.LBB529:
	.loc 1 197 0
	call	make_vector
.LVL180:
.LBB511:
.LBB512:
.LBB513:
.LBB514:
	.loc 1 18 0
	movq	inputfile(%rip), %rdi
.LBE514:
.LBE513:
.LBE512:
.LBE511:
	.loc 1 197 0
	movq	%rax, %rbp
.LVL181:
.LBB525:
.LBB523:
.LBB516:
.LBB515:
	.loc 1 18 0
	call	fgetc
.LVL182:
	.loc 1 19 0
	testl	%eax, %eax
	.loc 1 18 0
	movl	%eax, %r13d
.LVL183:
	.loc 1 19 0
	js	.L74
.LVL184:
.LBE515:
.LBE516:
.LBB517:
.LBB518:
	.loc 1 18 0
	movq	inputfile(%rip), %rdi
	call	fgetc
.LVL185:
	.loc 1 19 0
	testl	%eax, %eax
	.loc 1 18 0
	movl	%eax, %ebx
.LVL186:
	.loc 1 19 0
	js	.L74
.LVL187:
.LBE518:
.LBE517:
.LBB519:
.LBB520:
	.loc 1 18 0
	movq	inputfile(%rip), %rdi
	call	fgetc
.LVL188:
	.loc 1 19 0
	testl	%eax, %eax
	.loc 1 18 0
	movl	%eax, %r15d
.LVL189:
	.loc 1 19 0
	js	.L74
.LVL190:
.LBE520:
.LBE519:
.LBB521:
.LBB522:
	.loc 1 18 0
	movq	inputfile(%rip), %rdi
	call	fgetc
.LVL191:
	.loc 1 19 0
	testl	%eax, %eax
	js	.L74
.LVL192:
.LBE522:
.LBE521:
	.loc 1 35 0
	movzbl	%bl, %ecx
	movzbl	%r13b, %r12d
	movzbl	%r15b, %edx
	sall	$8, %ecx
	sall	$16, %edx
	sall	$24, %eax
.LVL193:
	addl	%ecx, %r12d
.LBE523:
.LBE525:
.LBB526:
	.loc 1 199 0
	xorl	%ebx, %ebx
.LVL194:
.LBE526:
.LBB527:
.LBB524:
	.loc 1 35 0
	addl	%edx, %r12d
	addl	%eax, %r12d
.LVL195:
.LBE524:
.LBE527:
.LBB528:
	.loc 1 199 0
	testl	%r12d, %r12d
	jle	.L80
.LVL196:
	.p2align 4,,10
	.p2align 3
.L86:
	.loc 1 200 0
	xorl	%eax, %eax
	.loc 1 199 0
	addl	$1, %ebx
.LVL197:
	.loc 1 200 0
	call	read_ins
.LVL198:
	movq	%rbp, %rdi
	movq	%rax, %rsi
	call	vector_add
.LVL199:
	.loc 1 199 0
	cmpl	%r12d, %ebx
	jne	.L86
.LVL200:
.L80:
.LBE528:
.LBE529:
.LBE531:
	.loc 1 163 0
	movq	%rbp, 16(%r14)
.LBE481:
	.loc 1 178 0
	addq	$8, %rsp
	.cfi_remember_state
	.cfi_def_cfa_offset 56
.LBB532:
	.loc 1 163 0
	movq	%r14, %rax
.LBE532:
	.loc 1 178 0
	popq	%rbx
	.cfi_def_cfa_offset 48
	popq	%rbp
	.cfi_def_cfa_offset 40
.LVL201:
	popq	%r12
	.cfi_def_cfa_offset 32
	popq	%r13
	.cfi_def_cfa_offset 24
.LVL202:
	popq	%r14
	.cfi_def_cfa_offset 16
.LVL203:
	popq	%r15
	.cfi_def_cfa_offset 8
.LVL204:
	ret
.LVL205:
	.p2align 4,,10
	.p2align 3
.L69:
	.cfi_restore_state
.LBB533:
	.loc 1 158 0
	movl	$4, %edi
	call	malloc
.LVL206:
	movl	$1, (%rax)
.LBE533:
	.loc 1 178 0
	addq	$8, %rsp
	.cfi_remember_state
	.cfi_def_cfa_offset 56
	popq	%rbx
	.cfi_def_cfa_offset 48
	popq	%rbp
	.cfi_def_cfa_offset 40
	popq	%r12
	.cfi_def_cfa_offset 32
	popq	%r13
	.cfi_def_cfa_offset 24
	popq	%r14
	.cfi_def_cfa_offset 16
	popq	%r15
	.cfi_def_cfa_offset 8
	ret
.LVL207:
	.p2align 4,,10
	.p2align 3
.L66:
	.cfi_restore_state
	.loc 1 175 0
	movsbl	%al, %edx
.LBB534:
.LBB535:
	.loc 2 105 0
	movl	$1, %edi
	movl	$.LC2, %esi
	xorl	%eax, %eax
.LVL208:
	call	__printf_chk
.LVL209:
.LBE535:
.LBE534:
	.loc 1 176 0
	movl	$-1, %edi
	call	exit
.LVL210:
.L74:
.LBB536:
.LBB394:
	xorl	%eax, %eax
	call	read_byte.part.0
.LVL211:
.LBE394:
.LBE536:
	.cfi_endproc
.LFE47:
	.size	read_value, .-read_value
	.p2align 4,,15
	.globl	read_slots
	.type	read_slots, @function
read_slots:
.LFB48:
	.loc 1 180 0
	.cfi_startproc
	pushq	%r13
	.cfi_def_cfa_offset 16
	.cfi_offset 13, -16
	.loc 1 181 0
	xorl	%eax, %eax
	.loc 1 180 0
	pushq	%r12
	.cfi_def_cfa_offset 24
	.cfi_offset 12, -24
	pushq	%rbp
	.cfi_def_cfa_offset 32
	.cfi_offset 6, -32
	pushq	%rbx
	.cfi_def_cfa_offset 40
	.cfi_offset 3, -40
	subq	$8, %rsp
	.cfi_def_cfa_offset 48
	.loc 1 181 0
	call	make_vector
.LVL212:
.LBB551:
.LBB552:
.LBB553:
.LBB554:
	.loc 1 18 0
	movq	inputfile(%rip), %rdi
.LBE554:
.LBE553:
.LBE552:
.LBE551:
	.loc 1 181 0
	movq	%rax, %r12
.LVL213:
.LBB564:
.LBB561:
.LBB557:
.LBB555:
	.loc 1 18 0
	call	fgetc
.LVL214:
	.loc 1 19 0
	testl	%eax, %eax
	.loc 1 18 0
	movl	%eax, %ebx
.LVL215:
	.loc 1 19 0
	js	.L91
.LVL216:
.LBE555:
.LBE557:
.LBB558:
.LBB559:
	.loc 1 18 0
	movq	inputfile(%rip), %rdi
	call	fgetc
.LVL217:
	.loc 1 19 0
	testl	%eax, %eax
	js	.L91
.LVL218:
.LBE559:
.LBE558:
	.loc 1 28 0
	movzbl	%al, %edx
	movzbl	%bl, %r13d
.LBE561:
.LBE564:
.LBB565:
	.loc 1 183 0
	xorl	%ebx, %ebx
.LVL219:
.LBE565:
.LBB576:
.LBB562:
	.loc 1 28 0
	sall	$8, %edx
.LBE562:
.LBE576:
.LBB577:
	.loc 1 183 0
	addl	%edx, %r13d
.LVL220:
	je	.L95
.LVL221:
	.p2align 4,,10
	.p2align 3
.L96:
.LBB566:
.LBB567:
.LBB568:
.LBB569:
	.loc 1 18 0
	movq	inputfile(%rip), %rdi
	call	fgetc
.LVL222:
	.loc 1 19 0
	testl	%eax, %eax
	.loc 1 18 0
	movl	%eax, %ebp
.LVL223:
	.loc 1 19 0
	js	.L91
.LVL224:
.LBE569:
.LBE568:
.LBB570:
.LBB571:
	.loc 1 18 0
	movq	inputfile(%rip), %rdi
	call	fgetc
.LVL225:
	.loc 1 19 0
	testl	%eax, %eax
	js	.L91
.LVL226:
.LBE571:
.LBE570:
	.loc 1 28 0
	movzbl	%al, %edx
	movzbl	%bpl, %ebp
.LVL227:
.LBE567:
.LBE566:
	.loc 1 184 0
	movq	%r12, %rdi
.LBB574:
.LBB572:
	.loc 1 28 0
	sall	$8, %edx
.LBE572:
.LBE574:
	.loc 1 183 0
	addl	$1, %ebx
.LVL228:
.LBB575:
.LBB573:
	.loc 1 28 0
	addl	%ebp, %edx
.LBE573:
.LBE575:
	.loc 1 184 0
	movslq	%edx, %rsi
	call	vector_add
.LVL229:
	.loc 1 183 0
	cmpl	%r13d, %ebx
	jne	.L96
.LVL230:
.L95:
.LBE577:
	.loc 1 186 0
	addq	$8, %rsp
	.cfi_remember_state
	.cfi_def_cfa_offset 40
	movq	%r12, %rax
	popq	%rbx
	.cfi_def_cfa_offset 32
	popq	%rbp
	.cfi_def_cfa_offset 24
	popq	%r12
	.cfi_def_cfa_offset 16
.LVL231:
	popq	%r13
	.cfi_def_cfa_offset 8
	ret
.LVL232:
.L91:
	.cfi_restore_state
.LBB578:
.LBB563:
.LBB560:
.LBB556:
	xorl	%eax, %eax
	call	read_byte.part.0
.LVL233:
.LBE556:
.LBE560:
.LBE563:
.LBE578:
	.cfi_endproc
.LFE48:
	.size	read_slots, .-read_slots
	.p2align 4,,15
	.globl	read_values
	.type	read_values, @function
read_values:
.LFB49:
	.loc 1 188 0
	.cfi_startproc
	pushq	%r12
	.cfi_def_cfa_offset 16
	.cfi_offset 12, -16
	.loc 1 189 0
	xorl	%eax, %eax
	.loc 1 188 0
	pushq	%rbp
	.cfi_def_cfa_offset 24
	.cfi_offset 6, -24
	pushq	%rbx
	.cfi_def_cfa_offset 32
	.cfi_offset 3, -32
	.loc 1 189 0
	call	make_vector
.LVL234:
.LBB587:
.LBB588:
.LBB589:
.LBB590:
	.loc 1 18 0
	movq	inputfile(%rip), %rdi
.LBE590:
.LBE589:
.LBE588:
.LBE587:
	.loc 1 189 0
	movq	%rax, %rbp
.LVL235:
.LBB600:
.LBB597:
.LBB593:
.LBB591:
	.loc 1 18 0
	call	fgetc
.LVL236:
	.loc 1 19 0
	testl	%eax, %eax
	.loc 1 18 0
	movl	%eax, %ebx
.LVL237:
	.loc 1 19 0
	js	.L100
.LVL238:
.LBE591:
.LBE593:
.LBB594:
.LBB595:
	.loc 1 18 0
	movq	inputfile(%rip), %rdi
	call	fgetc
.LVL239:
	.loc 1 19 0
	testl	%eax, %eax
	js	.L100
.LVL240:
.LBE595:
.LBE594:
	.loc 1 28 0
	movzbl	%al, %edx
	movzbl	%bl, %r12d
.LBE597:
.LBE600:
.LBB601:
	.loc 1 191 0
	xorl	%ebx, %ebx
.LVL241:
.LBE601:
.LBB602:
.LBB598:
	.loc 1 28 0
	sall	$8, %edx
.LBE598:
.LBE602:
.LBB603:
	.loc 1 191 0
	addl	%edx, %r12d
.LVL242:
	je	.L104
.LVL243:
	.p2align 4,,10
	.p2align 3
.L105:
	.loc 1 192 0 discriminator 2
	xorl	%eax, %eax
	.loc 1 191 0 discriminator 2
	addl	$1, %ebx
.LVL244:
	.loc 1 192 0 discriminator 2
	call	read_value
.LVL245:
	movq	%rbp, %rdi
	movq	%rax, %rsi
	call	vector_add
.LVL246:
	.loc 1 191 0 discriminator 2
	cmpl	%r12d, %ebx
	jne	.L105
.LVL247:
.L104:
.LBE603:
	.loc 1 194 0
	popq	%rbx
	.cfi_remember_state
	.cfi_def_cfa_offset 24
	movq	%rbp, %rax
	popq	%rbp
	.cfi_def_cfa_offset 16
.LVL248:
	popq	%r12
	.cfi_def_cfa_offset 8
	ret
.LVL249:
.L100:
	.cfi_restore_state
.LBB604:
.LBB599:
.LBB596:
.LBB592:
	xorl	%eax, %eax
	call	read_byte.part.0
.LVL250:
.LBE592:
.LBE596:
.LBE599:
.LBE604:
	.cfi_endproc
.LFE49:
	.size	read_values, .-read_values
	.p2align 4,,15
	.globl	read_code
	.type	read_code, @function
read_code:
.LFB50:
	.loc 1 196 0
	.cfi_startproc
	pushq	%r14
	.cfi_def_cfa_offset 16
	.cfi_offset 14, -16
	.loc 1 197 0
	xorl	%eax, %eax
	.loc 1 196 0
	pushq	%r13
	.cfi_def_cfa_offset 24
	.cfi_offset 13, -24
	pushq	%r12
	.cfi_def_cfa_offset 32
	.cfi_offset 12, -32
	pushq	%rbp
	.cfi_def_cfa_offset 40
	.cfi_offset 6, -40
	pushq	%rbx
	.cfi_def_cfa_offset 48
	.cfi_offset 3, -48
	.loc 1 197 0
	call	make_vector
.LVL251:
.LBB729:
.LBB730:
.LBB731:
.LBB732:
	.loc 1 18 0
	movq	inputfile(%rip), %rdi
.LBE732:
.LBE731:
.LBE730:
.LBE729:
	.loc 1 197 0
	movq	%rax, %rbp
.LVL252:
.LBB746:
.LBB743:
.LBB735:
.LBB733:
	.loc 1 18 0
	call	fgetc
.LVL253:
	.loc 1 19 0
	testl	%eax, %eax
	.loc 1 18 0
	movl	%eax, %r13d
.LVL254:
	.loc 1 19 0
	js	.L109
.LVL255:
.LBE733:
.LBE735:
.LBB736:
.LBB737:
	.loc 1 18 0
	movq	inputfile(%rip), %rdi
	call	fgetc
.LVL256:
	.loc 1 19 0
	testl	%eax, %eax
	.loc 1 18 0
	movl	%eax, %ebx
.LVL257:
	.loc 1 19 0
	js	.L109
.LVL258:
.LBE737:
.LBE736:
.LBB738:
.LBB739:
	.loc 1 18 0
	movq	inputfile(%rip), %rdi
	call	fgetc
.LVL259:
	.loc 1 19 0
	testl	%eax, %eax
	.loc 1 18 0
	movl	%eax, %r14d
.LVL260:
	.loc 1 19 0
	js	.L109
.LVL261:
.LBE739:
.LBE738:
.LBB740:
.LBB741:
	.loc 1 18 0
	movq	inputfile(%rip), %rdi
	call	fgetc
.LVL262:
	.loc 1 19 0
	testl	%eax, %eax
	js	.L109
.LVL263:
.LBE741:
.LBE740:
	.loc 1 35 0
	movzbl	%bl, %ecx
	movzbl	%r13b, %r12d
	movzbl	%r14b, %edx
	sall	$8, %ecx
	sall	$16, %edx
	sall	$24, %eax
.LVL264:
	addl	%ecx, %r12d
.LBE743:
.LBE746:
.LBB747:
	.loc 1 199 0
	xorl	%ebx, %ebx
.LVL265:
.LBE747:
.LBB797:
.LBB744:
	.loc 1 35 0
	addl	%edx, %r12d
	addl	%eax, %r12d
.LVL266:
.LBE744:
.LBE797:
.LBB798:
	.loc 1 199 0
	testl	%r12d, %r12d
	jle	.L133
.LVL267:
	.p2align 4,,10
	.p2align 3
.L134:
.LBB748:
.LBB749:
.LBB750:
.LBB751:
	.loc 1 18 0
	movq	inputfile(%rip), %rdi
	call	fgetc
.LVL268:
	.loc 1 19 0
	testl	%eax, %eax
	js	.L109
.LBE751:
.LBE750:
	.loc 1 70 0
	cmpb	$16, %al
.LBB753:
.LBB752:
	.loc 1 23 0
	movzbl	%al, %edx
.LBE752:
.LBE753:
	.loc 1 70 0
	ja	.L111
	.p2align 4,,4
	jmp	*.L113(,%rdx,8)
	.section	.rodata
	.align 8
	.align 4
.L113:
	.quad	.L112
	.quad	.L114
	.quad	.L115
	.quad	.L116
	.quad	.L117
	.quad	.L118
	.quad	.L119
	.quad	.L120
	.quad	.L121
	.quad	.L122
	.quad	.L123
	.quad	.L124
	.quad	.L125
	.quad	.L126
	.quad	.L127
	.quad	.L128
	.quad	.L129
	.text
	.p2align 4,,10
	.p2align 3
.L128:
.LBB754:
	.loc 1 119 0
	movl	$4, %edi
	call	malloc
.LVL269:
	movl	$15, (%rax)
	movq	%rax, %rsi
.LVL270:
	.p2align 4,,10
	.p2align 3
.L130:
.LBE754:
.LBE749:
.LBE748:
	.loc 1 200 0
	movq	%rbp, %rdi
	.loc 1 199 0
	addl	$1, %ebx
.LVL271:
	.loc 1 200 0
	call	vector_add
.LVL272:
	.loc 1 199 0
	cmpl	%r12d, %ebx
	jne	.L134
.LVL273:
.L133:
.LBE798:
	.loc 1 202 0
	popq	%rbx
	.cfi_remember_state
	.cfi_def_cfa_offset 40
	movq	%rbp, %rax
	popq	%rbp
	.cfi_def_cfa_offset 32
.LVL274:
	popq	%r12
	.cfi_def_cfa_offset 24
	popq	%r13
	.cfi_def_cfa_offset 16
	popq	%r14
	.cfi_def_cfa_offset 8
	ret
.LVL275:
	.p2align 4,,10
	.p2align 3
.L127:
	.cfi_restore_state
.LBB799:
.LBB796:
.LBB795:
.LBB755:
	.loc 1 116 0
	movl	$8, %edi
	call	malloc
.LVL276:
	movq	%rax, %r13
.LVL277:
	movl	$14, (%rax)
.LVL278:
	.p2align 4,,10
	.p2align 3
.L159:
.LBB756:
.LBB757:
.LBB758:
.LBB759:
	.loc 1 18 0
	movq	inputfile(%rip), %rdi
	call	fgetc
.LVL279:
	.loc 1 19 0
	testl	%eax, %eax
	.loc 1 18 0
	movl	%eax, %r14d
.LVL280:
	.loc 1 19 0
	js	.L109
.LVL281:
.LBE759:
.LBE758:
.LBB760:
.LBB761:
	.loc 1 18 0
	movq	inputfile(%rip), %rdi
	call	fgetc
.LVL282:
	.loc 1 19 0
	testl	%eax, %eax
	js	.L109
.LVL283:
.LBE761:
.LBE760:
	.loc 1 28 0
	movzbl	%al, %edx
	movzbl	%r14b, %r14d
.LVL284:
.LBE757:
.LBE756:
	.loc 1 116 0
	movq	%r13, %rsi
.LBB763:
.LBB762:
	.loc 1 28 0
	sall	$8, %edx
	addl	%r14d, %edx
	movl	%edx, 4(%r13)
	jmp	.L130
.LVL285:
	.p2align 4,,10
	.p2align 3
.L126:
.LBE762:
.LBE763:
.LBE755:
.LBB764:
	.loc 1 113 0
	movl	$8, %edi
	call	malloc
.LVL286:
	movq	%rax, %r13
.LVL287:
	movl	$13, (%rax)
	jmp	.L159
.LVL288:
	.p2align 4,,10
	.p2align 3
.L125:
.LBE764:
.LBB765:
	.loc 1 110 0
	movl	$8, %edi
	call	malloc
.LVL289:
	movq	%rax, %r13
.LVL290:
	movl	$12, (%rax)
	jmp	.L159
.LVL291:
	.p2align 4,,10
	.p2align 3
.L124:
.LBE765:
.LBB766:
	.loc 1 107 0
	movl	$8, %edi
	call	malloc
.LVL292:
	movq	%rax, %r13
.LVL293:
	movl	$11, (%rax)
	jmp	.L159
.LVL294:
	.p2align 4,,10
	.p2align 3
.L123:
.LBE766:
.LBB767:
	.loc 1 104 0
	movl	$8, %edi
	call	malloc
.LVL295:
	movq	%rax, %r13
.LVL296:
	movl	$10, (%rax)
	jmp	.L159
.LVL297:
	.p2align 4,,10
	.p2align 3
.L122:
.LBE767:
.LBB768:
	.loc 1 101 0
	movl	$8, %edi
	call	malloc
.LVL298:
	movq	%rax, %r13
.LVL299:
	movl	$9, (%rax)
	jmp	.L159
.LVL300:
	.p2align 4,,10
	.p2align 3
.L121:
.LBE768:
.LBB769:
	.loc 1 97 0
	movl	$12, %edi
	call	malloc
.LVL301:
	movq	%rax, %r13
.LVL302:
	movl	$8, (%rax)
.LVL303:
.L170:
.LBB770:
.LBB771:
.LBB772:
.LBB773:
	.loc 1 18 0
	movq	inputfile(%rip), %rdi
	call	fgetc
.LVL304:
	.loc 1 19 0
	testl	%eax, %eax
	.loc 1 18 0
	movl	%eax, %r14d
.LVL305:
	.loc 1 19 0
	js	.L109
.LVL306:
.LBE773:
.LBE772:
.LBB774:
.LBB775:
	.loc 1 18 0
	movq	inputfile(%rip), %rdi
	call	fgetc
.LVL307:
	.loc 1 19 0
	testl	%eax, %eax
	js	.L109
.LVL308:
.LBE775:
.LBE774:
	.loc 1 28 0
	movzbl	%al, %edx
	movzbl	%r14b, %r14d
.LVL309:
.LBE771:
.LBE770:
.LBB777:
.LBB778:
	.loc 1 18 0
	movq	inputfile(%rip), %rdi
.LBE778:
.LBE777:
.LBB780:
.LBB776:
	.loc 1 28 0
	sall	$8, %edx
	addl	%r14d, %edx
	movl	%edx, 4(%r13)
.LBE776:
.LBE780:
.LBB781:
.LBB779:
	.loc 1 18 0
	call	fgetc
.LVL310:
	.loc 1 19 0
	testl	%eax, %eax
	js	.L109
.LBE779:
.LBE781:
	.loc 1 97 0
	movsbl	%al, %eax
.LVL311:
	movq	%r13, %rsi
	movl	%eax, 8(%r13)
	jmp	.L130
.LVL312:
	.p2align 4,,10
	.p2align 3
.L120:
.LBE769:
.LBB782:
	.loc 1 93 0
	movl	$12, %edi
	call	malloc
.LVL313:
	movq	%rax, %r13
.LVL314:
	movl	$7, (%rax)
	jmp	.L170
.LVL315:
	.p2align 4,,10
	.p2align 3
.L119:
.LBE782:
.LBB783:
	.loc 1 90 0
	movl	$8, %edi
	call	malloc
.LVL316:
	movq	%rax, %r13
.LVL317:
	movl	$6, (%rax)
	jmp	.L159
.LVL318:
	.p2align 4,,10
	.p2align 3
.L118:
.LBE783:
.LBB784:
	.loc 1 87 0
	movl	$8, %edi
	call	malloc
.LVL319:
	movq	%rax, %r13
.LVL320:
	movl	$5, (%rax)
	jmp	.L159
.LVL321:
	.p2align 4,,10
	.p2align 3
.L117:
.LBE784:
.LBB785:
	.loc 1 84 0
	movl	$8, %edi
	call	malloc
.LVL322:
	movq	%rax, %r13
.LVL323:
	movl	$4, (%rax)
	jmp	.L159
.LVL324:
	.p2align 4,,10
	.p2align 3
.L116:
.LBE785:
.LBB786:
	.loc 1 82 0
	movl	$4, %edi
	call	malloc
.LVL325:
	movl	$3, (%rax)
	movq	%rax, %rsi
	jmp	.L130
.LVL326:
	.p2align 4,,10
	.p2align 3
.L115:
.LBE786:
.LBB787:
	.loc 1 78 0
	movl	$12, %edi
	call	malloc
.LVL327:
	movq	%rax, %r13
.LVL328:
	movl	$2, (%rax)
	jmp	.L170
.LVL329:
	.p2align 4,,10
	.p2align 3
.L114:
.LBE787:
.LBB788:
	.loc 1 75 0
	movl	$8, %edi
	call	malloc
.LVL330:
	movq	%rax, %r13
.LVL331:
	movl	$1, (%rax)
	jmp	.L159
.LVL332:
	.p2align 4,,10
	.p2align 3
.L112:
.LBE788:
.LBB789:
	.loc 1 72 0
	movl	$8, %edi
	call	malloc
.LVL333:
	movq	%rax, %r13
.LVL334:
	movl	$0, (%rax)
	jmp	.L159
.LVL335:
	.p2align 4,,10
	.p2align 3
.L129:
.LBE789:
.LBB790:
	.loc 1 121 0
	movl	$4, %edi
	call	malloc
.LVL336:
	movl	$16, (%rax)
	movq	%rax, %rsi
	jmp	.L130
.LVL337:
	.p2align 4,,10
	.p2align 3
.L111:
.LBE790:
.LBB791:
.LBB792:
	.loc 2 105 0
	movl	$1, %edi
.LBE792:
.LBE791:
	.loc 1 123 0
	movsbl	%dl, %edx
.LBB794:
.LBB793:
	.loc 2 105 0
	movl	$.LC1, %esi
	xorl	%eax, %eax
.LVL338:
	call	__printf_chk
.LVL339:
.LBE793:
.LBE794:
	.loc 1 124 0
	movl	$-1, %edi
	call	exit
.LVL340:
.L109:
.LBE795:
.LBE796:
.LBE799:
.LBB800:
.LBB745:
.LBB742:
.LBB734:
	xorl	%eax, %eax
	call	read_byte.part.0
.LVL341:
.LBE734:
.LBE742:
.LBE745:
.LBE800:
	.cfi_endproc
.LFE50:
	.size	read_code, .-read_code
	.p2align 4,,15
	.globl	read_program
	.type	read_program, @function
read_program:
.LFB51:
	.loc 1 204 0
	.cfi_startproc
	pushq	%r14
	.cfi_def_cfa_offset 16
	.cfi_offset 14, -16
	.loc 1 205 0
	movl	$24, %edi
	.loc 1 204 0
	pushq	%r13
	.cfi_def_cfa_offset 24
	.cfi_offset 13, -24
	pushq	%r12
	.cfi_def_cfa_offset 32
	.cfi_offset 12, -32
	pushq	%rbp
	.cfi_def_cfa_offset 40
	.cfi_offset 6, -40
	pushq	%rbx
	.cfi_def_cfa_offset 48
	.cfi_offset 3, -48
	.loc 1 205 0
	call	malloc
.LVL342:
	movq	%rax, %r13
.LVL343:
.LBB831:
.LBB832:
	.loc 1 189 0
	xorl	%eax, %eax
.LVL344:
	call	make_vector
.LVL345:
.LBB833:
.LBB834:
.LBB835:
.LBB836:
	.loc 1 18 0
	movq	inputfile(%rip), %rdi
.LBE836:
.LBE835:
.LBE834:
.LBE833:
	.loc 1 189 0
	movq	%rax, %rbp
.LVL346:
.LBB846:
.LBB843:
.LBB839:
.LBB837:
	.loc 1 18 0
	call	fgetc
.LVL347:
	.loc 1 19 0
	testl	%eax, %eax
	.loc 1 18 0
	movl	%eax, %ebx
.LVL348:
	.loc 1 19 0
	js	.L174
.LVL349:
.LBE837:
.LBE839:
.LBB840:
.LBB841:
	.loc 1 18 0
	movq	inputfile(%rip), %rdi
	call	fgetc
.LVL350:
	.loc 1 19 0
	testl	%eax, %eax
	js	.L174
.LVL351:
.LBE841:
.LBE840:
	.loc 1 28 0
	movzbl	%al, %edx
	movzbl	%bl, %r12d
.LBE843:
.LBE846:
.LBB847:
	.loc 1 191 0
	xorl	%ebx, %ebx
.LVL352:
.LBE847:
.LBB848:
.LBB844:
	.loc 1 28 0
	sall	$8, %edx
.LBE844:
.LBE848:
.LBB849:
	.loc 1 191 0
	addl	%edx, %r12d
.LVL353:
	je	.L177
.LVL354:
	.p2align 4,,10
	.p2align 3
.L183:
	.loc 1 192 0
	xorl	%eax, %eax
	.loc 1 191 0
	addl	$1, %ebx
.LVL355:
	.loc 1 192 0
	call	read_value
.LVL356:
	movq	%rbp, %rdi
	movq	%rax, %rsi
	call	vector_add
.LVL357:
	.loc 1 191 0
	cmpl	%r12d, %ebx
	jne	.L183
.LVL358:
.L177:
.LBE849:
.LBE832:
.LBE831:
.LBB852:
.LBB853:
	.loc 1 181 0
	xorl	%eax, %eax
.LBE853:
.LBE852:
	.loc 1 206 0
	movq	%rbp, 0(%r13)
.LBB879:
.LBB878:
	.loc 1 181 0
	call	make_vector
.LVL359:
.LBB854:
.LBB855:
.LBB856:
.LBB857:
	.loc 1 18 0
	movq	inputfile(%rip), %rdi
.LBE857:
.LBE856:
.LBE855:
.LBE854:
	.loc 1 181 0
	movq	%rax, %r12
.LVL360:
.LBB864:
.LBB862:
.LBB859:
.LBB858:
	.loc 1 18 0
	call	fgetc
.LVL361:
	.loc 1 19 0
	testl	%eax, %eax
	.loc 1 18 0
	movl	%eax, %ebx
.LVL362:
	.loc 1 19 0
	js	.L174
.LVL363:
.LBE858:
.LBE859:
.LBB860:
.LBB861:
	.loc 1 18 0
	movq	inputfile(%rip), %rdi
	call	fgetc
.LVL364:
	.loc 1 19 0
	testl	%eax, %eax
	js	.L174
.LVL365:
.LBE861:
.LBE860:
	.loc 1 28 0
	movzbl	%al, %edx
	movzbl	%bl, %r14d
.LBE862:
.LBE864:
.LBB865:
	.loc 1 183 0
	xorl	%ebx, %ebx
.LVL366:
.LBE865:
.LBB876:
.LBB863:
	.loc 1 28 0
	sall	$8, %edx
.LBE863:
.LBE876:
.LBB877:
	.loc 1 183 0
	addl	%edx, %r14d
.LVL367:
	je	.L181
.LVL368:
	.p2align 4,,10
	.p2align 3
.L184:
.LBB866:
.LBB867:
.LBB868:
.LBB869:
	.loc 1 18 0
	movq	inputfile(%rip), %rdi
	call	fgetc
.LVL369:
	.loc 1 19 0
	testl	%eax, %eax
	.loc 1 18 0
	movl	%eax, %ebp
.LVL370:
	.loc 1 19 0
	js	.L174
.LVL371:
.LBE869:
.LBE868:
.LBB870:
.LBB871:
	.loc 1 18 0
	movq	inputfile(%rip), %rdi
	call	fgetc
.LVL372:
	.loc 1 19 0
	testl	%eax, %eax
	js	.L174
.LVL373:
.LBE871:
.LBE870:
	.loc 1 28 0
	movzbl	%al, %edx
	movzbl	%bpl, %ebp
.LVL374:
.LBE867:
.LBE866:
	.loc 1 184 0
	movq	%r12, %rdi
.LBB874:
.LBB872:
	.loc 1 28 0
	sall	$8, %edx
.LBE872:
.LBE874:
	.loc 1 183 0
	addl	$1, %ebx
.LVL375:
.LBB875:
.LBB873:
	.loc 1 28 0
	addl	%ebp, %edx
.LBE873:
.LBE875:
	.loc 1 184 0
	movslq	%edx, %rsi
	call	vector_add
.LVL376:
	.loc 1 183 0
	cmpl	%r14d, %ebx
	jne	.L184
.LVL377:
.L181:
.LBE877:
.LBE878:
.LBE879:
.LBB880:
.LBB881:
.LBB882:
.LBB883:
	.loc 1 18 0
	movq	inputfile(%rip), %rdi
.LBE883:
.LBE882:
.LBE881:
.LBE880:
	.loc 1 207 0
	movq	%r12, 8(%r13)
.LBB891:
.LBB888:
.LBB885:
.LBB884:
	.loc 1 18 0
	call	fgetc
.LVL378:
	.loc 1 19 0
	testl	%eax, %eax
	.loc 1 18 0
	movl	%eax, %ebx
.LVL379:
	.loc 1 19 0
	js	.L174
.LVL380:
.LBE884:
.LBE885:
.LBB886:
.LBB887:
	.loc 1 18 0
	movq	inputfile(%rip), %rdi
	call	fgetc
.LVL381:
	.loc 1 19 0
	testl	%eax, %eax
	js	.L174
.LVL382:
.LBE887:
.LBE886:
	.loc 1 28 0
	movzbl	%al, %edx
	movzbl	%bl, %ebx
.LVL383:
.LBE888:
.LBE891:
	.loc 1 210 0
	movq	%r13, %rax
.LVL384:
.LBB892:
.LBB889:
	.loc 1 28 0
	sall	$8, %edx
.LVL385:
	addl	%ebx, %edx
.LBE889:
.LBE892:
	.loc 1 210 0
	popq	%rbx
	.cfi_remember_state
	.cfi_def_cfa_offset 40
.LVL386:
	popq	%rbp
	.cfi_def_cfa_offset 32
	popq	%r12
	.cfi_def_cfa_offset 24
.LVL387:
.LBB893:
.LBB890:
	.loc 1 28 0
	movl	%edx, 16(%r13)
.LBE890:
.LBE893:
	.loc 1 210 0
	popq	%r13
	.cfi_def_cfa_offset 16
.LVL388:
	popq	%r14
	.cfi_def_cfa_offset 8
	ret
.LVL389:
.L174:
	.cfi_restore_state
.LBB894:
.LBB851:
.LBB850:
.LBB845:
.LBB842:
.LBB838:
	xorl	%eax, %eax
	call	read_byte.part.0
.LVL390:
.LBE838:
.LBE842:
.LBE845:
.LBE850:
.LBE851:
.LBE894:
	.cfi_endproc
.LFE51:
	.size	read_program, .-read_program
	.section	.rodata.str1.1
.LC3:
	.string	"r"
.LC4:
	.string	"Could not read file %s.\n"
	.text
	.p2align 4,,15
	.globl	load_bytecode
	.type	load_bytecode, @function
load_bytecode:
.LFB52:
	.loc 1 212 0
	.cfi_startproc
.LVL391:
	pushq	%r14
	.cfi_def_cfa_offset 16
	.cfi_offset 14, -16
	.loc 1 213 0
	movl	$.LC3, %esi
	.loc 1 212 0
	pushq	%r13
	.cfi_def_cfa_offset 24
	.cfi_offset 13, -24
	pushq	%r12
	.cfi_def_cfa_offset 32
	.cfi_offset 12, -32
	pushq	%rbp
	.cfi_def_cfa_offset 40
	.cfi_offset 6, -40
	pushq	%rbx
	.cfi_def_cfa_offset 48
	.cfi_offset 3, -48
	.loc 1 212 0
	movq	%rdi, %rbx
	.loc 1 213 0
	call	fopen
.LVL392:
	.loc 1 214 0
	testq	%rax, %rax
	.loc 1 213 0
	movq	%rax, inputfile(%rip)
	.loc 1 214 0
	je	.L205
.LBB929:
.LBB930:
	.loc 1 205 0
	movl	$24, %edi
	call	malloc
.LVL393:
	movq	%rax, %r13
.LVL394:
.LBB931:
.LBB932:
	.loc 1 189 0
	xorl	%eax, %eax
.LVL395:
	call	make_vector
.LVL396:
.LBB933:
.LBB934:
.LBB935:
.LBB936:
	.loc 1 18 0
	movq	inputfile(%rip), %rdi
.LBE936:
.LBE935:
.LBE934:
.LBE933:
	.loc 1 189 0
	movq	%rax, %rbp
.LVL397:
.LBB946:
.LBB943:
.LBB939:
.LBB937:
	.loc 1 18 0
	call	fgetc
.LVL398:
	.loc 1 19 0
	testl	%eax, %eax
	.loc 1 18 0
	movl	%eax, %ebx
.LVL399:
	.loc 1 19 0
	js	.L191
.LVL400:
.LBE937:
.LBE939:
.LBB940:
.LBB941:
	.loc 1 18 0
	movq	inputfile(%rip), %rdi
	call	fgetc
.LVL401:
	.loc 1 19 0
	testl	%eax, %eax
	js	.L191
.LVL402:
.LBE941:
.LBE940:
	.loc 1 28 0
	movzbl	%al, %edx
	movzbl	%bl, %r12d
.LBE943:
.LBE946:
.LBB947:
	.loc 1 191 0
	xorl	%ebx, %ebx
.LVL403:
.LBE947:
.LBB948:
.LBB944:
	.loc 1 28 0
	sall	$8, %edx
.LBE944:
.LBE948:
.LBB949:
	.loc 1 191 0
	addl	%edx, %r12d
.LVL404:
	je	.L194
.LVL405:
	.p2align 4,,10
	.p2align 3
.L200:
	.loc 1 192 0
	xorl	%eax, %eax
	.loc 1 191 0
	addl	$1, %ebx
.LVL406:
	.loc 1 192 0
	call	read_value
.LVL407:
	movq	%rbp, %rdi
	movq	%rax, %rsi
	call	vector_add
.LVL408:
	.loc 1 191 0
	cmpl	%r12d, %ebx
	jne	.L200
.LVL409:
.L194:
.LBE949:
.LBE932:
.LBE931:
.LBB952:
.LBB953:
	.loc 1 181 0
	xorl	%eax, %eax
.LBE953:
.LBE952:
	.loc 1 206 0
	movq	%rbp, 0(%r13)
.LBB979:
.LBB978:
	.loc 1 181 0
	call	make_vector
.LVL410:
.LBB954:
.LBB955:
.LBB956:
.LBB957:
	.loc 1 18 0
	movq	inputfile(%rip), %rdi
.LBE957:
.LBE956:
.LBE955:
.LBE954:
	.loc 1 181 0
	movq	%rax, %r12
.LVL411:
.LBB964:
.LBB962:
.LBB959:
.LBB958:
	.loc 1 18 0
	call	fgetc
.LVL412:
	.loc 1 19 0
	testl	%eax, %eax
	.loc 1 18 0
	movl	%eax, %ebx
.LVL413:
	.loc 1 19 0
	js	.L191
.LVL414:
.LBE958:
.LBE959:
.LBB960:
.LBB961:
	.loc 1 18 0
	movq	inputfile(%rip), %rdi
	call	fgetc
.LVL415:
	.loc 1 19 0
	testl	%eax, %eax
	js	.L191
.LVL416:
.LBE961:
.LBE960:
	.loc 1 28 0
	movzbl	%al, %edx
	movzbl	%bl, %r14d
.LBE962:
.LBE964:
.LBB965:
	.loc 1 183 0
	xorl	%ebx, %ebx
.LVL417:
.LBE965:
.LBB976:
.LBB963:
	.loc 1 28 0
	sall	$8, %edx
.LBE963:
.LBE976:
.LBB977:
	.loc 1 183 0
	addl	%edx, %r14d
.LVL418:
	je	.L198
.LVL419:
	.p2align 4,,10
	.p2align 3
.L201:
.LBB966:
.LBB967:
.LBB968:
.LBB969:
	.loc 1 18 0
	movq	inputfile(%rip), %rdi
	call	fgetc
.LVL420:
	.loc 1 19 0
	testl	%eax, %eax
	.loc 1 18 0
	movl	%eax, %ebp
.LVL421:
	.loc 1 19 0
	js	.L191
.LVL422:
.LBE969:
.LBE968:
.LBB970:
.LBB971:
	.loc 1 18 0
	movq	inputfile(%rip), %rdi
	call	fgetc
.LVL423:
	.loc 1 19 0
	testl	%eax, %eax
	js	.L191
.LVL424:
.LBE971:
.LBE970:
	.loc 1 28 0
	movzbl	%al, %edx
	movzbl	%bpl, %ebp
.LVL425:
.LBE967:
.LBE966:
	.loc 1 184 0
	movq	%r12, %rdi
.LBB974:
.LBB972:
	.loc 1 28 0
	sall	$8, %edx
.LBE972:
.LBE974:
	.loc 1 183 0
	addl	$1, %ebx
.LVL426:
.LBB975:
.LBB973:
	.loc 1 28 0
	addl	%ebp, %edx
.LBE973:
.LBE975:
	.loc 1 184 0
	movslq	%edx, %rsi
	call	vector_add
.LVL427:
	.loc 1 183 0
	cmpl	%r14d, %ebx
	jne	.L201
.LVL428:
.L198:
.LBE977:
.LBE978:
.LBE979:
.LBB980:
.LBB981:
.LBB982:
.LBB983:
	.loc 1 18 0
	movq	inputfile(%rip), %rdi
.LBE983:
.LBE982:
.LBE981:
.LBE980:
	.loc 1 207 0
	movq	%r12, 8(%r13)
.LBB990:
.LBB988:
.LBB985:
.LBB984:
	.loc 1 18 0
	call	fgetc
.LVL429:
	.loc 1 19 0
	testl	%eax, %eax
	.loc 1 18 0
	movl	%eax, %ebx
.LVL430:
	.loc 1 19 0
	js	.L191
.LVL431:
.LBE984:
.LBE985:
.LBB986:
.LBB987:
	.loc 1 18 0
	movq	inputfile(%rip), %rdi
	call	fgetc
.LVL432:
	.loc 1 19 0
	testl	%eax, %eax
	js	.L191
.LVL433:
.LBE987:
.LBE986:
	.loc 1 28 0
	movzbl	%al, %edx
.LBE988:
.LBE990:
.LBE930:
.LBE929:
	.loc 1 219 0
	movq	inputfile(%rip), %rdi
.LBB995:
.LBB993:
.LBB991:
.LBB989:
	.loc 1 28 0
	movzbl	%bl, %ebx
.LVL434:
	sall	$8, %edx
	addl	%ebx, %edx
	movl	%edx, 16(%r13)
.LBE989:
.LBE991:
.LBE993:
.LBE995:
	.loc 1 219 0
	call	fclose
.LVL435:
	.loc 1 221 0
	popq	%rbx
	.cfi_remember_state
	.cfi_def_cfa_offset 40
.LVL436:
	popq	%rbp
	.cfi_def_cfa_offset 32
	popq	%r12
	.cfi_def_cfa_offset 24
.LVL437:
	movq	%r13, %rax
	popq	%r13
	.cfi_def_cfa_offset 16
.LVL438:
	popq	%r14
	.cfi_def_cfa_offset 8
	ret
.LVL439:
.L191:
	.cfi_restore_state
.LBB996:
.LBB994:
.LBB992:
.LBB951:
.LBB950:
.LBB945:
.LBB942:
.LBB938:
	xorl	%eax, %eax
	call	read_byte.part.0
.LVL440:
.L205:
.LBE938:
.LBE942:
.LBE945:
.LBE950:
.LBE951:
.LBE992:
.LBE994:
.LBE996:
.LBB997:
.LBB998:
	.loc 2 105 0
	movl	$1, %edi
	movq	%rbx, %rdx
	movl	$.LC4, %esi
	call	__printf_chk
.LVL441:
.LBE998:
.LBE997:
	.loc 1 216 0
	movl	$-1, %edi
	call	exit
.LVL442:
	.cfi_endproc
.LFE52:
	.size	load_bytecode, .-load_bytecode
	.section	.rodata.str1.1
.LC5:
	.string	"Int(%d)"
.LC6:
	.string	"Null"
.LC7:
	.string	"String("
.LC8:
	.string	")"
	.section	.rodata.str1.8,"aMS",@progbits,1
	.align 8
.LC9:
	.string	"Method(#%d, nargs:%d, nlocals:%d) :"
	.section	.rodata.str1.1
.LC10:
	.string	"\n      "
.LC11:
	.string	"label #%d"
.LC12:
	.string	"   lit #%d"
.LC13:
	.string	"   printf #%d %d"
.LC14:
	.string	"   array"
.LC15:
	.string	"   object #%d"
.LC16:
	.string	"   slot #%d"
.LC17:
	.string	"   set-slot #%d"
.LC18:
	.string	"   call-slot #%d %d"
.LC19:
	.string	"   call #%d %d"
.LC20:
	.string	"   set local %d"
.LC21:
	.string	"   get local %d"
.LC22:
	.string	"   set global #%d"
.LC23:
	.string	"   get global #%d"
.LC24:
	.string	"   branch #%d"
.LC25:
	.string	"   goto #%d"
.LC26:
	.string	"   return"
.LC27:
	.string	"   drop"
	.section	.rodata.str1.8
	.align 8
.LC28:
	.string	"Unknown instruction with tag: %u\n"
	.section	.rodata.str1.1
.LC29:
	.string	"Slot(#%d)"
.LC30:
	.string	"Class("
.LC31:
	.string	", "
.LC32:
	.string	"#%d"
.LC33:
	.string	"Value with unknown tag: %d\n"
	.text
	.p2align 4,,15
	.globl	print_value
	.type	print_value, @function
print_value:
.LFB53:
	.loc 1 229 0
	.cfi_startproc
.LVL443:
	pushq	%rbp
	.cfi_def_cfa_offset 16
	.cfi_offset 6, -16
	movq	%rdi, %rbp
	pushq	%rbx
	.cfi_def_cfa_offset 24
	.cfi_offset 3, -24
	subq	$8, %rsp
	.cfi_def_cfa_offset 32
	.loc 1 230 0
	movl	(%rdi), %edx
	cmpl	$5, %edx
	ja	.L207
	jmp	*.L209(,%rdx,8)
	.section	.rodata
	.align 8
	.align 4
.L209:
	.quad	.L208
	.quad	.L210
	.quad	.L211
	.quad	.L212
	.quad	.L213
	.quad	.L214
	.text
	.p2align 4,,10
	.p2align 3
.L213:
.LVL444:
.LBB1082:
.LBB1083:
.LBB1084:
	.loc 2 105 0
	movl	4(%rdi), %edx
	movl	$.LC29, %esi
.LVL445:
.L244:
.LBE1084:
.LBE1083:
.LBE1082:
	.loc 1 275 0
	addq	$8, %rsp
	.cfi_remember_state
	.cfi_def_cfa_offset 24
.LBB1089:
.LBB1087:
.LBB1085:
	.loc 2 105 0
	movl	$1, %edi
.LVL446:
	xorl	%eax, %eax
.LBE1085:
.LBE1087:
.LBE1089:
	.loc 1 275 0
	popq	%rbx
	.cfi_def_cfa_offset 16
	popq	%rbp
	.cfi_def_cfa_offset 8
.LVL447:
.LBB1090:
.LBB1088:
.LBB1086:
	.loc 2 105 0
	jmp	__printf_chk
.LVL448:
	.p2align 4,,10
	.p2align 3
.L214:
	.cfi_restore_state
.LBE1086:
.LBE1088:
.LBE1090:
.LBB1091:
.LBB1092:
.LBB1093:
	movl	$1, %edi
.LVL449:
	xorl	%eax, %eax
	movl	$.LC30, %esi
	call	__printf_chk
.LVL450:
.LBE1093:
.LBE1092:
.LBB1094:
	.loc 1 264 0
	movq	8(%rbp), %rdi
	xorl	%ebx, %ebx
	movl	(%rdi), %edx
	testl	%edx, %edx
	jle	.L241
.LVL451:
	.p2align 4,,10
	.p2align 3
.L242:
	.loc 1 266 0
	movl	%ebx, %esi
	.loc 1 264 0
	addl	$1, %ebx
	.loc 1 266 0
	call	vector_get
.LVL452:
.LBB1095:
.LBB1096:
	.loc 2 105 0
	movl	$1, %edi
	movl	%eax, %edx
	movl	$.LC32, %esi
	xorl	%eax, %eax
	call	__printf_chk
.LVL453:
.LBE1096:
.LBE1095:
	.loc 1 264 0
	movq	8(%rbp), %rdi
	cmpl	%ebx, (%rdi)
	jle	.L241
	.loc 1 265 0
	testl	%ebx, %ebx
	jle	.L242
.LVL454:
.LBB1097:
.LBB1098:
	.loc 2 105 0
	movl	$1, %edi
	movl	$.LC31, %esi
	xorl	%eax, %eax
	call	__printf_chk
.LVL455:
	movq	8(%rbp), %rdi
	jmp	.L242
.LVL456:
	.p2align 4,,10
	.p2align 3
.L208:
.LBE1098:
.LBE1097:
.LBE1094:
.LBE1091:
.LBB1105:
.LBB1106:
.LBB1107:
	movl	4(%rdi), %edx
	movl	$.LC5, %esi
	jmp	.L244
.LVL457:
	.p2align 4,,10
	.p2align 3
.L211:
.LBE1107:
.LBE1106:
.LBE1105:
.LBB1108:
.LBB1109:
.LBB1110:
	movl	$1, %edi
.LVL458:
	movl	$.LC7, %esi
	xorl	%eax, %eax
	call	__printf_chk
.LVL459:
.LBE1110:
.LBE1109:
	.loc 1 243 0
	movq	8(%rbp), %rdi
	call	print_string
.LVL460:
.L241:
.LBE1108:
.LBB1111:
.LBB1099:
.LBB1100:
	.loc 2 105 0
	movl	$.LC8, %esi
.LVL461:
.L245:
.LBE1100:
.LBE1099:
.LBE1111:
	.loc 1 275 0
	addq	$8, %rsp
	.cfi_remember_state
	.cfi_def_cfa_offset 24
.LBB1112:
.LBB1103:
.LBB1101:
	.loc 2 105 0
	movl	$1, %edi
	xorl	%eax, %eax
.LBE1101:
.LBE1103:
.LBE1112:
	.loc 1 275 0
	popq	%rbx
	.cfi_def_cfa_offset 16
	popq	%rbp
	.cfi_def_cfa_offset 8
.LVL462:
.LBB1113:
.LBB1104:
.LBB1102:
	.loc 2 105 0
	jmp	__printf_chk
.LVL463:
	.p2align 4,,10
	.p2align 3
.L212:
	.cfi_restore_state
.LBE1102:
.LBE1104:
.LBE1113:
.LBB1114:
.LBB1115:
.LBB1116:
	movl	8(%rdi), %ecx
	movl	4(%rdi), %edx
	xorl	%eax, %eax
	movl	12(%rdi), %r8d
	movl	$.LC9, %esi
	movl	$1, %edi
.LVL464:
	call	__printf_chk
.LVL465:
.LBE1116:
.LBE1115:
.LBB1117:
	.loc 1 250 0
	movq	16(%rbp), %rax
	movl	(%rax), %ecx
	testl	%ecx, %ecx
	jle	.L206
	xorl	%ebx, %ebx
.LVL466:
	.p2align 4,,10
	.p2align 3
.L236:
.LBB1118:
.LBB1119:
	.loc 2 105 0
	movl	$.LC10, %esi
	movl	$1, %edi
	xorl	%eax, %eax
	call	__printf_chk
.LVL467:
.LBE1119:
.LBE1118:
	.loc 1 252 0
	movq	16(%rbp), %rdi
	movl	%ebx, %esi
	call	vector_get
.LVL468:
.LBB1120:
.LBB1121:
	.loc 1 278 0
	movl	(%rax), %edx
	cmpl	$16, %edx
	ja	.L216
	jmp	*.L218(,%rdx,8)
	.section	.rodata
	.align 8
	.align 4
.L218:
	.quad	.L217
	.quad	.L219
	.quad	.L220
	.quad	.L221
	.quad	.L222
	.quad	.L223
	.quad	.L224
	.quad	.L225
	.quad	.L226
	.quad	.L227
	.quad	.L228
	.quad	.L229
	.quad	.L230
	.quad	.L231
	.quad	.L232
	.quad	.L233
	.quad	.L234
	.text
.LVL469:
	.p2align 4,,10
	.p2align 3
.L210:
.LBE1121:
.LBE1120:
.LBE1117:
.LBE1114:
.LBB1181:
.LBB1182:
	.loc 2 105 0
	movl	$.LC6, %esi
	jmp	.L245
.LVL470:
	.p2align 4,,10
	.p2align 3
.L233:
.LBE1182:
.LBE1181:
.LBB1183:
.LBB1178:
.LBB1175:
.LBB1172:
.LBB1122:
.LBB1123:
	movl	$.LC26, %esi
	movl	$1, %edi
	xorl	%eax, %eax
.LVL471:
	call	__printf_chk
.LVL472:
	.p2align 4,,10
	.p2align 3
.L235:
.LBE1123:
.LBE1122:
.LBE1172:
.LBE1175:
	.loc 1 250 0
	movq	16(%rbp), %rax
	addl	$1, %ebx
.LVL473:
	cmpl	%ebx, (%rax)
	jg	.L236
.LVL474:
.L206:
.LBE1178:
.LBE1183:
	.loc 1 275 0
	addq	$8, %rsp
	.cfi_remember_state
	.cfi_def_cfa_offset 24
	popq	%rbx
	.cfi_def_cfa_offset 16
	popq	%rbp
	.cfi_def_cfa_offset 8
.LVL475:
	ret
.LVL476:
	.p2align 4,,10
	.p2align 3
.L232:
	.cfi_restore_state
.LBB1184:
.LBB1179:
.LBB1176:
.LBB1173:
.LBB1124:
.LBB1125:
.LBB1126:
	.loc 2 105 0
	movl	4(%rax), %edx
	movl	$.LC25, %esi
	movl	$1, %edi
	xorl	%eax, %eax
.LVL477:
	call	__printf_chk
.LVL478:
	jmp	.L235
.LVL479:
	.p2align 4,,10
	.p2align 3
.L231:
.LBE1126:
.LBE1125:
.LBE1124:
.LBB1127:
.LBB1128:
.LBB1129:
	movl	4(%rax), %edx
	movl	$.LC24, %esi
	movl	$1, %edi
	xorl	%eax, %eax
.LVL480:
	call	__printf_chk
.LVL481:
	jmp	.L235
.LVL482:
	.p2align 4,,10
	.p2align 3
.L230:
.LBE1129:
.LBE1128:
.LBE1127:
.LBB1130:
.LBB1131:
.LBB1132:
	movl	4(%rax), %edx
	movl	$.LC23, %esi
	movl	$1, %edi
	xorl	%eax, %eax
.LVL483:
	call	__printf_chk
.LVL484:
	jmp	.L235
.LVL485:
	.p2align 4,,10
	.p2align 3
.L229:
.LBE1132:
.LBE1131:
.LBE1130:
.LBB1133:
.LBB1134:
.LBB1135:
	movl	4(%rax), %edx
	movl	$.LC22, %esi
	movl	$1, %edi
	xorl	%eax, %eax
.LVL486:
	call	__printf_chk
.LVL487:
	jmp	.L235
.LVL488:
	.p2align 4,,10
	.p2align 3
.L228:
.LBE1135:
.LBE1134:
.LBE1133:
.LBB1136:
.LBB1137:
.LBB1138:
	movl	4(%rax), %edx
	movl	$.LC21, %esi
	movl	$1, %edi
	xorl	%eax, %eax
.LVL489:
	call	__printf_chk
.LVL490:
	jmp	.L235
.LVL491:
	.p2align 4,,10
	.p2align 3
.L227:
.LBE1138:
.LBE1137:
.LBE1136:
.LBB1139:
.LBB1140:
.LBB1141:
	movl	4(%rax), %edx
	movl	$.LC20, %esi
	movl	$1, %edi
	xorl	%eax, %eax
.LVL492:
	call	__printf_chk
.LVL493:
	jmp	.L235
.LVL494:
	.p2align 4,,10
	.p2align 3
.L226:
.LBE1141:
.LBE1140:
.LBE1139:
.LBB1142:
.LBB1143:
.LBB1144:
	movl	8(%rax), %ecx
	movl	4(%rax), %edx
	movl	$.LC19, %esi
	movl	$1, %edi
	xorl	%eax, %eax
.LVL495:
	call	__printf_chk
.LVL496:
	jmp	.L235
.LVL497:
	.p2align 4,,10
	.p2align 3
.L225:
.LBE1144:
.LBE1143:
.LBE1142:
.LBB1145:
.LBB1146:
.LBB1147:
	movl	8(%rax), %ecx
	movl	4(%rax), %edx
	movl	$.LC18, %esi
	movl	$1, %edi
	xorl	%eax, %eax
.LVL498:
	call	__printf_chk
.LVL499:
	jmp	.L235
.LVL500:
	.p2align 4,,10
	.p2align 3
.L224:
.LBE1147:
.LBE1146:
.LBE1145:
.LBB1148:
.LBB1149:
.LBB1150:
	movl	4(%rax), %edx
	movl	$.LC17, %esi
	movl	$1, %edi
	xorl	%eax, %eax
.LVL501:
	call	__printf_chk
.LVL502:
	jmp	.L235
.LVL503:
	.p2align 4,,10
	.p2align 3
.L223:
.LBE1150:
.LBE1149:
.LBE1148:
.LBB1151:
.LBB1152:
.LBB1153:
	movl	4(%rax), %edx
	movl	$.LC16, %esi
	movl	$1, %edi
	xorl	%eax, %eax
.LVL504:
	call	__printf_chk
.LVL505:
	jmp	.L235
.LVL506:
	.p2align 4,,10
	.p2align 3
.L222:
.LBE1153:
.LBE1152:
.LBE1151:
.LBB1154:
.LBB1155:
.LBB1156:
	movl	4(%rax), %edx
	movl	$.LC15, %esi
	movl	$1, %edi
	xorl	%eax, %eax
.LVL507:
	call	__printf_chk
.LVL508:
	jmp	.L235
.LVL509:
	.p2align 4,,10
	.p2align 3
.L221:
.LBE1156:
.LBE1155:
.LBE1154:
.LBB1157:
.LBB1158:
	movl	$.LC14, %esi
	movl	$1, %edi
	xorl	%eax, %eax
.LVL510:
	call	__printf_chk
.LVL511:
	jmp	.L235
.LVL512:
	.p2align 4,,10
	.p2align 3
.L217:
.LBE1158:
.LBE1157:
.LBB1159:
.LBB1160:
.LBB1161:
	movl	4(%rax), %edx
	movl	$.LC11, %esi
	movl	$1, %edi
	xorl	%eax, %eax
.LVL513:
	call	__printf_chk
.LVL514:
	jmp	.L235
.LVL515:
	.p2align 4,,10
	.p2align 3
.L234:
.LBE1161:
.LBE1160:
.LBE1159:
.LBB1162:
.LBB1163:
	movl	$.LC27, %esi
	movl	$1, %edi
	xorl	%eax, %eax
.LVL516:
	call	__printf_chk
.LVL517:
	jmp	.L235
.LVL518:
	.p2align 4,,10
	.p2align 3
.L220:
.LBE1163:
.LBE1162:
.LBB1164:
.LBB1165:
.LBB1166:
	movl	8(%rax), %ecx
	movl	4(%rax), %edx
	movl	$.LC13, %esi
	movl	$1, %edi
	xorl	%eax, %eax
.LVL519:
	call	__printf_chk
.LVL520:
	jmp	.L235
.LVL521:
	.p2align 4,,10
	.p2align 3
.L219:
.LBE1166:
.LBE1165:
.LBE1164:
.LBB1167:
.LBB1168:
.LBB1169:
	movl	4(%rax), %edx
	movl	$.LC12, %esi
	movl	$1, %edi
	xorl	%eax, %eax
.LVL522:
	call	__printf_chk
.LVL523:
	jmp	.L235
.LVL524:
	.p2align 4,,10
	.p2align 3
.L207:
.LBE1169:
.LBE1168:
.LBE1167:
.LBE1173:
.LBE1176:
.LBE1179:
.LBE1184:
.LBB1185:
.LBB1186:
	movl	$.LC33, %esi
.LVL525:
.L246:
	movl	$1, %edi
	xorl	%eax, %eax
	call	__printf_chk
.LVL526:
.LBE1186:
.LBE1185:
	.loc 1 273 0
	movl	$-1, %edi
	call	exit
.LVL527:
	.p2align 4,,10
	.p2align 3
.L216:
.LBB1187:
.LBB1180:
.LBB1177:
.LBB1174:
.LBB1170:
.LBB1171:
	.loc 2 105 0
	movl	$.LC28, %esi
	jmp	.L246
.LBE1171:
.LBE1170:
.LBE1174:
.LBE1177:
.LBE1180:
.LBE1187:
	.cfi_endproc
.LFE53:
	.size	print_value, .-print_value
	.p2align 4,,15
	.globl	print_ins
	.type	print_ins, @function
print_ins:
.LFB54:
	.loc 1 277 0
	.cfi_startproc
.LVL528:
	.loc 1 278 0
	movl	(%rdi), %edx
	cmpl	$16, %edx
	ja	.L248
	.loc 1 278 0
	jmp	*.L250(,%rdx,8)
	.section	.rodata
	.align 8
	.align 4
.L250:
	.quad	.L249
	.quad	.L251
	.quad	.L252
	.quad	.L253
	.quad	.L254
	.quad	.L255
	.quad	.L256
	.quad	.L257
	.quad	.L258
	.quad	.L259
	.quad	.L260
	.quad	.L261
	.quad	.L262
	.quad	.L263
	.quad	.L264
	.quad	.L265
	.quad	.L266
	.text
	.p2align 4,,10
	.p2align 3
.L265:
.LVL529:
.LBB1188:
.LBB1189:
	.loc 2 105 0
	movl	$.LC26, %esi
	movl	$1, %edi
.LVL530:
	xorl	%eax, %eax
	jmp	__printf_chk
.LVL531:
	.p2align 4,,10
	.p2align 3
.L266:
.LBE1189:
.LBE1188:
.LBB1190:
.LBB1191:
	movl	$.LC27, %esi
	movl	$1, %edi
.LVL532:
	xorl	%eax, %eax
	jmp	__printf_chk
.LVL533:
	.p2align 4,,10
	.p2align 3
.L249:
.LBE1191:
.LBE1190:
.LBB1192:
.LBB1193:
.LBB1194:
	movl	4(%rdi), %edx
	movl	$.LC11, %esi
	movl	$1, %edi
.LVL534:
	xorl	%eax, %eax
	jmp	__printf_chk
.LVL535:
	.p2align 4,,10
	.p2align 3
.L251:
.LBE1194:
.LBE1193:
.LBE1192:
.LBB1195:
.LBB1196:
.LBB1197:
	movl	4(%rdi), %edx
	movl	$.LC12, %esi
	movl	$1, %edi
.LVL536:
	xorl	%eax, %eax
	jmp	__printf_chk
.LVL537:
	.p2align 4,,10
	.p2align 3
.L252:
.LBE1197:
.LBE1196:
.LBE1195:
.LBB1198:
.LBB1199:
.LBB1200:
	movl	8(%rdi), %ecx
	movl	4(%rdi), %edx
	movl	$.LC13, %esi
	movl	$1, %edi
.LVL538:
	xorl	%eax, %eax
	jmp	__printf_chk
.LVL539:
	.p2align 4,,10
	.p2align 3
.L253:
.LBE1200:
.LBE1199:
.LBE1198:
.LBB1201:
.LBB1202:
	movl	$.LC14, %esi
	movl	$1, %edi
.LVL540:
	xorl	%eax, %eax
	jmp	__printf_chk
.LVL541:
	.p2align 4,,10
	.p2align 3
.L254:
.LBE1202:
.LBE1201:
.LBB1203:
.LBB1204:
.LBB1205:
	movl	4(%rdi), %edx
	movl	$.LC15, %esi
	movl	$1, %edi
.LVL542:
	xorl	%eax, %eax
	jmp	__printf_chk
.LVL543:
	.p2align 4,,10
	.p2align 3
.L255:
.LBE1205:
.LBE1204:
.LBE1203:
.LBB1206:
.LBB1207:
.LBB1208:
	movl	4(%rdi), %edx
	movl	$.LC16, %esi
	movl	$1, %edi
.LVL544:
	xorl	%eax, %eax
	jmp	__printf_chk
.LVL545:
	.p2align 4,,10
	.p2align 3
.L256:
.LBE1208:
.LBE1207:
.LBE1206:
.LBB1209:
.LBB1210:
.LBB1211:
	movl	4(%rdi), %edx
	movl	$.LC17, %esi
	movl	$1, %edi
.LVL546:
	xorl	%eax, %eax
	jmp	__printf_chk
.LVL547:
	.p2align 4,,10
	.p2align 3
.L257:
.LBE1211:
.LBE1210:
.LBE1209:
.LBB1212:
.LBB1213:
.LBB1214:
	movl	8(%rdi), %ecx
	movl	4(%rdi), %edx
	movl	$.LC18, %esi
	movl	$1, %edi
.LVL548:
	xorl	%eax, %eax
	jmp	__printf_chk
.LVL549:
	.p2align 4,,10
	.p2align 3
.L258:
.LBE1214:
.LBE1213:
.LBE1212:
.LBB1215:
.LBB1216:
.LBB1217:
	movl	8(%rdi), %ecx
	movl	4(%rdi), %edx
	movl	$.LC19, %esi
	movl	$1, %edi
.LVL550:
	xorl	%eax, %eax
	jmp	__printf_chk
.LVL551:
	.p2align 4,,10
	.p2align 3
.L259:
.LBE1217:
.LBE1216:
.LBE1215:
.LBB1218:
.LBB1219:
.LBB1220:
	movl	4(%rdi), %edx
	movl	$.LC20, %esi
	movl	$1, %edi
.LVL552:
	xorl	%eax, %eax
	jmp	__printf_chk
.LVL553:
	.p2align 4,,10
	.p2align 3
.L260:
.LBE1220:
.LBE1219:
.LBE1218:
.LBB1221:
.LBB1222:
.LBB1223:
	movl	4(%rdi), %edx
	movl	$.LC21, %esi
	movl	$1, %edi
.LVL554:
	xorl	%eax, %eax
	jmp	__printf_chk
.LVL555:
	.p2align 4,,10
	.p2align 3
.L261:
.LBE1223:
.LBE1222:
.LBE1221:
.LBB1224:
.LBB1225:
.LBB1226:
	movl	4(%rdi), %edx
	movl	$.LC22, %esi
	movl	$1, %edi
.LVL556:
	xorl	%eax, %eax
	jmp	__printf_chk
.LVL557:
	.p2align 4,,10
	.p2align 3
.L262:
.LBE1226:
.LBE1225:
.LBE1224:
.LBB1227:
.LBB1228:
.LBB1229:
	movl	4(%rdi), %edx
	movl	$.LC23, %esi
	movl	$1, %edi
.LVL558:
	xorl	%eax, %eax
	jmp	__printf_chk
.LVL559:
	.p2align 4,,10
	.p2align 3
.L263:
.LBE1229:
.LBE1228:
.LBE1227:
.LBB1230:
.LBB1231:
.LBB1232:
	movl	4(%rdi), %edx
	movl	$.LC24, %esi
	movl	$1, %edi
.LVL560:
	xorl	%eax, %eax
	jmp	__printf_chk
.LVL561:
	.p2align 4,,10
	.p2align 3
.L264:
.LBE1232:
.LBE1231:
.LBE1230:
.LBB1233:
.LBB1234:
.LBB1235:
	movl	4(%rdi), %edx
	movl	$.LC25, %esi
	movl	$1, %edi
.LVL562:
	xorl	%eax, %eax
	jmp	__printf_chk
.LVL563:
	.p2align 4,,10
	.p2align 3
.L248:
.LBE1235:
.LBE1234:
.LBE1233:
.LBB1236:
.LBB1237:
	movl	$1, %edi
.LVL564:
.LBE1237:
.LBE1236:
	.loc 1 277 0
	subq	$8, %rsp
	.cfi_def_cfa_offset 16
.LBB1239:
.LBB1238:
	.loc 2 105 0
	movl	$.LC28, %esi
	xorl	%eax, %eax
	call	__printf_chk
.LVL565:
.LBE1238:
.LBE1239:
	.loc 1 363 0
	movl	$-1, %edi
	call	exit
.LVL566:
	.cfi_endproc
.LFE54:
	.size	print_ins, .-print_ins
	.section	.rodata.str1.1
.LC34:
	.string	"Constants :"
.LC35:
	.string	"\nGlobals :"
.LC36:
	.string	"\n   #%d: "
.LC37:
	.string	"\nEntry : #%d"
.LC38:
	.string	"\n   #%d"
	.text
	.p2align 4,,15
	.globl	print_prog
	.type	print_prog, @function
print_prog:
.LFB55:
	.loc 1 368 0
	.cfi_startproc
.LVL567:
	pushq	%r12
	.cfi_def_cfa_offset 16
	.cfi_offset 12, -16
.LBB1240:
.LBB1241:
	.loc 2 105 0
	xorl	%eax, %eax
.LBE1241:
.LBE1240:
	.loc 1 368 0
	movq	%rdi, %r12
.LBB1244:
.LBB1242:
	.loc 2 105 0
	movl	$.LC34, %esi
	movl	$1, %edi
.LVL568:
.LBE1242:
.LBE1244:
	.loc 1 368 0
	pushq	%rbp
	.cfi_def_cfa_offset 24
	.cfi_offset 6, -24
	pushq	%rbx
	.cfi_def_cfa_offset 32
	.cfi_offset 3, -32
.LBB1245:
	.loc 1 371 0
	xorl	%ebx, %ebx
.LBE1245:
.LBB1248:
.LBB1243:
	.loc 2 105 0
	call	__printf_chk
.LVL569:
.LBE1243:
.LBE1248:
	.loc 1 370 0
	movq	(%r12), %rbp
.LVL570:
.LBB1249:
	.loc 1 371 0
	movl	0(%rbp), %edi
	testl	%edi, %edi
	jle	.L272
.LVL571:
	.p2align 4,,10
	.p2align 3
.L275:
.LBB1246:
.LBB1247:
	.loc 2 105 0
	movl	%ebx, %edx
	movl	$.LC36, %esi
	movl	$1, %edi
	xorl	%eax, %eax
	call	__printf_chk
.LVL572:
.LBE1247:
.LBE1246:
	.loc 1 373 0
	movl	%ebx, %esi
	movq	%rbp, %rdi
	.loc 1 371 0
	addl	$1, %ebx
.LVL573:
	.loc 1 373 0
	call	vector_get
.LVL574:
	movq	%rax, %rdi
	call	print_value
.LVL575:
	.loc 1 371 0
	cmpl	%ebx, 0(%rbp)
	jg	.L275
.LVL576:
.L272:
.LBE1249:
.LBB1250:
.LBB1251:
	.loc 2 105 0
	movl	$.LC35, %esi
	movl	$1, %edi
	xorl	%eax, %eax
	call	__printf_chk
.LVL577:
.LBE1251:
.LBE1250:
.LBB1252:
	.loc 1 376 0
	movq	8(%r12), %rdi
	xorl	%ebx, %ebx
	movl	(%rdi), %esi
	testl	%esi, %esi
	jle	.L271
.LVL578:
	.p2align 4,,10
	.p2align 3
.L276:
	.loc 1 377 0 discriminator 2
	movl	%ebx, %esi
	.loc 1 376 0 discriminator 2
	addl	$1, %ebx
.LVL579:
	.loc 1 377 0 discriminator 2
	call	vector_get
.LVL580:
.LBB1253:
.LBB1254:
	.loc 2 105 0 discriminator 2
	movl	$1, %edi
	movl	%eax, %edx
	movl	$.LC38, %esi
	xorl	%eax, %eax
	call	__printf_chk
.LVL581:
.LBE1254:
.LBE1253:
	.loc 1 376 0 discriminator 2
	movq	8(%r12), %rdi
	cmpl	%ebx, (%rdi)
	jg	.L276
.LVL582:
.L271:
.LBE1252:
	.loc 1 379 0
	popq	%rbx
	.cfi_def_cfa_offset 24
	popq	%rbp
	.cfi_def_cfa_offset 16
.LVL583:
.LBB1255:
.LBB1256:
	.loc 2 105 0
	movl	16(%r12), %edx
	movl	$.LC37, %esi
	movl	$1, %edi
.LBE1256:
.LBE1255:
	.loc 1 379 0
	popq	%r12
	.cfi_def_cfa_offset 8
.LVL584:
.LBB1258:
.LBB1257:
	.loc 2 105 0
	xorl	%eax, %eax
	jmp	__printf_chk
.LVL585:
.LBE1257:
.LBE1258:
	.cfi_endproc
.LFE55:
	.size	print_prog, .-print_prog
	.local	inputfile
	.comm	inputfile,8,16
.Letext0:
	.file 3 "/usr/lib/gcc/x86_64-linux-gnu/4.8/include/stddef.h"
	.file 4 "/usr/include/x86_64-linux-gnu/bits/types.h"
	.file 5 "/usr/include/stdio.h"
	.file 6 "/usr/include/libio.h"
	.file 7 "utils.h"
	.file 8 "bytecode.h"
	.file 9 "/usr/include/stdlib.h"
	.section	.note.GNU-stack,"",@progbits
