	.file	"compiler.c"
	.text
.Ltext0:
	.section	.rodata.str1.1,"aMS",@progbits,1
.LC0:
	.string	"Error: isGlobalScope.\n"
	.section	.text.unlikely,"ax",@progbits
	.type	isGlobalScope.part.0, @function
isGlobalScope.part.0:
.LFB108:
	.file 1 "compiler.c"
	.loc 1 636 0
	.cfi_startproc
.LVL0:
	pushq	%rax
	.cfi_def_cfa_offset 16
.LBB193:
.LBB194:
	.file 2 "/usr/include/x86_64-linux-gnu/bits/stdio2.h"
	.loc 2 105 0
	movl	$1, %edi
	movl	$.LC0, %esi
	xorl	%eax, %eax
	call	__printf_chk
.LVL1:
.LBE194:
.LBE193:
	.loc 1 640 0
	orl	$-1, %edi
	call	exit
.LVL2:
	.cfi_endproc
.LFE108:
	.size	isGlobalScope.part.0, .-isGlobalScope.part.0
	.text
	.p2align 4,,15
	.globl	compile_null_exp
	.type	compile_null_exp, @function
compile_null_exp:
.LFB52:
	.loc 1 302 0
	.cfi_startproc
.LVL3:
	pushq	%r13
	.cfi_def_cfa_offset 16
	.cfi_offset 13, -16
	movq	%rsi, %r13
	pushq	%r12
	.cfi_def_cfa_offset 24
	.cfi_offset 12, -24
	pushq	%rbp
	.cfi_def_cfa_offset 32
	.cfi_offset 6, -32
	movq	%rdi, %rbp
	pushq	%rbx
	.cfi_def_cfa_offset 40
	.cfi_offset 3, -40
	subq	$8, %rsp
	.cfi_def_cfa_offset 48
.LBB208:
.LBB209:
	.loc 1 713 0
	movq	(%rdi), %rdi
.LVL4:
	movl	(%rdi), %r12d
.LVL5:
.LBB210:
	.loc 1 714 0
	testl	%r12d, %r12d
	jle	.L4
	xorl	%ebx, %ebx
	jmp	.L7
.LVL6:
	.p2align 4,,10
	.p2align 3
.L11:
	addl	$1, %ebx
.LVL7:
	movq	0(%rbp), %rdi
	cmpl	%r12d, %ebx
	je	.L4
.LVL8:
.L7:
.LBB211:
	.loc 1 715 0
	movl	%ebx, %esi
	call	vector_get
.LVL9:
	.loc 1 716 0
	cmpl	$1, (%rax)
	jne	.L11
.LVL10:
.L5:
.LBE211:
.LBE210:
.LBE209:
.LBE208:
.LBB215:
.LBB216:
	.loc 1 822 0
	movl	$8, %edi
	call	malloc
.LVL11:
.LBE216:
.LBE215:
	.loc 1 304 0
	movq	%r13, %rdi
.LBB218:
.LBB217:
	.loc 1 824 0
	movl	%ebx, 4(%rax)
	.loc 1 822 0
	movq	%rax, %rsi
.LVL12:
	.loc 1 823 0
	movl	$1, (%rax)
.LBE217:
.LBE218:
	.loc 1 304 0
	call	vector_add
.LVL13:
	.loc 1 306 0
	addq	$8, %rsp
	.cfi_remember_state
	.cfi_def_cfa_offset 40
	movl	%ebx, %eax
	popq	%rbx
	.cfi_def_cfa_offset 32
	popq	%rbp
	.cfi_def_cfa_offset 24
.LVL14:
	popq	%r12
	.cfi_def_cfa_offset 16
.LVL15:
	popq	%r13
	.cfi_def_cfa_offset 8
.LVL16:
	ret
.LVL17:
	.p2align 4,,10
	.p2align 3
.L4:
	.cfi_restore_state
.LBB219:
.LBB214:
.LBB212:
.LBB213:
	.loc 1 721 0
	movl	$n.3430, %esi
	call	vector_add
.LVL18:
	.loc 1 722 0
	movq	0(%rbp), %rax
	movl	(%rax), %ebx
	subl	$1, %ebx
	jmp	.L5
.LBE213:
.LBE212:
.LBE214:
.LBE219:
	.cfi_endproc
.LFE52:
	.size	compile_null_exp, .-compile_null_exp
	.p2align 4,,15
	.globl	compile_int_exp
	.type	compile_int_exp, @function
compile_int_exp:
.LFB53:
	.loc 1 308 0
	.cfi_startproc
.LVL19:
	pushq	%r15
	.cfi_def_cfa_offset 16
	.cfi_offset 15, -16
	pushq	%r14
	.cfi_def_cfa_offset 24
	.cfi_offset 14, -24
	movq	%rdx, %r14
	pushq	%r13
	.cfi_def_cfa_offset 32
	.cfi_offset 13, -32
	pushq	%r12
	.cfi_def_cfa_offset 40
	.cfi_offset 12, -40
	pushq	%rbp
	.cfi_def_cfa_offset 48
	.cfi_offset 6, -48
	movq	%rsi, %rbp
	pushq	%rbx
	.cfi_def_cfa_offset 56
	.cfi_offset 3, -56
	subq	$8, %rsp
	.cfi_def_cfa_offset 64
.LBB230:
.LBB231:
	.loc 1 727 0
	movq	(%rsi), %r15
.LBE231:
.LBE230:
	.loc 1 309 0
	movl	4(%rdi), %r13d
.LVL20:
.LBB239:
.LBB238:
	.loc 1 727 0
	movl	(%r15), %r12d
.LVL21:
.LBB232:
	.loc 1 728 0
	testl	%r12d, %r12d
	jle	.L13
	xorl	%ebx, %ebx
.LVL22:
	.p2align 4,,10
	.p2align 3
.L17:
.LBB233:
	.loc 1 729 0
	movl	%ebx, %esi
	movq	%r15, %rdi
	call	vector_get
.LVL23:
	.loc 1 730 0
	movl	(%rax), %edx
	testl	%edx, %edx
	jne	.L14
	cmpl	4(%rax), %r13d
	je	.L15
.L14:
.LBE233:
	.loc 1 728 0
	addl	$1, %ebx
.LVL24:
	movq	0(%rbp), %r15
	cmpl	%r12d, %ebx
	jne	.L17
.LVL25:
.L13:
.LBE232:
.LBB234:
.LBB235:
	.loc 1 671 0
	movl	$8, %edi
	call	malloc
.LVL26:
.LBE235:
.LBE234:
	.loc 1 736 0
	movq	%r15, %rdi
.LBB237:
.LBB236:
	.loc 1 672 0
	movl	$0, (%rax)
	.loc 1 673 0
	movl	%r13d, 4(%rax)
.LBE236:
.LBE237:
	.loc 1 736 0
	movq	%rax, %rsi
	call	vector_add
.LVL27:
	.loc 1 737 0
	movq	0(%rbp), %rax
	movl	(%rax), %ebx
	subl	$1, %ebx
.LVL28:
.L15:
.LBE238:
.LBE239:
.LBB240:
.LBB241:
	.loc 1 822 0
	movl	$8, %edi
	call	malloc
.LVL29:
.LBE241:
.LBE240:
	.loc 1 310 0
	movq	%r14, %rdi
.LBB243:
.LBB242:
	.loc 1 824 0
	movl	%ebx, 4(%rax)
	.loc 1 822 0
	movq	%rax, %rsi
.LVL30:
	.loc 1 823 0
	movl	$1, (%rax)
.LBE242:
.LBE243:
	.loc 1 310 0
	call	vector_add
.LVL31:
	.loc 1 312 0
	addq	$8, %rsp
	.cfi_def_cfa_offset 56
	movl	%ebx, %eax
	popq	%rbx
	.cfi_def_cfa_offset 48
	popq	%rbp
	.cfi_def_cfa_offset 40
.LVL32:
	popq	%r12
	.cfi_def_cfa_offset 32
.LVL33:
	popq	%r13
	.cfi_def_cfa_offset 24
.LVL34:
	popq	%r14
	.cfi_def_cfa_offset 16
.LVL35:
	popq	%r15
	.cfi_def_cfa_offset 8
	ret
	.cfi_endproc
.LFE53:
	.size	compile_int_exp, .-compile_int_exp
	.section	.rodata.str1.1
.LC1:
	.string	"test"
.LC2:
	.string	"%s%d"
	.text
	.p2align 4,,15
	.globl	get_test_label
	.type	get_test_label, @function
get_test_label:
.LFB64:
	.loc 1 525 0
	.cfi_startproc
	pushq	%rbp
	.cfi_def_cfa_offset 16
	.cfi_offset 6, -16
.LBB250:
.LBB251:
	.loc 1 546 0
	movl	$12, %edi
.LBE251:
.LBE250:
	.loc 1 525 0
	pushq	%rbx
	.cfi_def_cfa_offset 24
	.cfi_offset 3, -24
	subq	$8, %rsp
	.cfi_def_cfa_offset 32
.LBB257:
.LBB258:
	.loc 1 553 0
	movl	cur_entry_id.3341(%rip), %ebp
	leal	1(%rbp), %eax
	movl	%eax, cur_entry_id.3341(%rip)
.LVL36:
.LBE258:
.LBE257:
.LBB259:
.LBB256:
	.loc 1 546 0
	call	malloc
.LVL37:
.LBB252:
.LBB253:
	.loc 2 34 0
	movl	%ebp, %r9d
.LBE253:
.LBE252:
	.loc 1 546 0
	movq	%rax, %rbx
.LVL38:
.LBB255:
.LBB254:
	.loc 2 34 0
	movq	%rax, %rdi
	movl	$.LC1, %r8d
	movl	$.LC2, %ecx
	movl	$12, %edx
	movl	$1, %esi
	xorl	%eax, %eax
.LVL39:
	call	__sprintf_chk
.LVL40:
.LBE254:
.LBE255:
.LBE256:
.LBE259:
	.loc 1 527 0
	addq	$8, %rsp
	.cfi_def_cfa_offset 24
	movq	%rbx, %rax
	popq	%rbx
	.cfi_def_cfa_offset 16
.LVL41:
	popq	%rbp
	.cfi_def_cfa_offset 8
.LVL42:
	ret
	.cfi_endproc
.LFE64:
	.size	get_test_label, .-get_test_label
	.section	.rodata.str1.1
.LC3:
	.string	"loop"
	.text
	.p2align 4,,15
	.globl	get_loop_label
	.type	get_loop_label, @function
get_loop_label:
.LFB65:
	.loc 1 529 0
	.cfi_startproc
	pushq	%rbp
	.cfi_def_cfa_offset 16
	.cfi_offset 6, -16
.LBB266:
.LBB267:
	.loc 1 546 0
	movl	$12, %edi
.LBE267:
.LBE266:
	.loc 1 529 0
	pushq	%rbx
	.cfi_def_cfa_offset 24
	.cfi_offset 3, -24
	subq	$8, %rsp
	.cfi_def_cfa_offset 32
.LBB273:
.LBB274:
	.loc 1 553 0
	movl	cur_entry_id.3341(%rip), %ebp
	leal	1(%rbp), %eax
	movl	%eax, cur_entry_id.3341(%rip)
.LVL43:
.LBE274:
.LBE273:
.LBB275:
.LBB272:
	.loc 1 546 0
	call	malloc
.LVL44:
.LBB268:
.LBB269:
	.loc 2 34 0
	movl	%ebp, %r9d
.LBE269:
.LBE268:
	.loc 1 546 0
	movq	%rax, %rbx
.LVL45:
.LBB271:
.LBB270:
	.loc 2 34 0
	movq	%rax, %rdi
	movl	$.LC3, %r8d
	movl	$.LC2, %ecx
	movl	$12, %edx
	movl	$1, %esi
	xorl	%eax, %eax
.LVL46:
	call	__sprintf_chk
.LVL47:
.LBE270:
.LBE271:
.LBE272:
.LBE275:
	.loc 1 531 0
	addq	$8, %rsp
	.cfi_def_cfa_offset 24
	movq	%rbx, %rax
	popq	%rbx
	.cfi_def_cfa_offset 16
.LVL48:
	popq	%rbp
	.cfi_def_cfa_offset 8
.LVL49:
	ret
	.cfi_endproc
.LFE65:
	.size	get_loop_label, .-get_loop_label
	.section	.rodata.str1.1
.LC4:
	.string	"conseq"
	.text
	.p2align 4,,15
	.globl	get_conseq_label
	.type	get_conseq_label, @function
get_conseq_label:
.LFB66:
	.loc 1 533 0
	.cfi_startproc
	pushq	%rbp
	.cfi_def_cfa_offset 16
	.cfi_offset 6, -16
.LBB282:
.LBB283:
	.loc 1 546 0
	movl	$12, %edi
.LBE283:
.LBE282:
	.loc 1 533 0
	pushq	%rbx
	.cfi_def_cfa_offset 24
	.cfi_offset 3, -24
	subq	$8, %rsp
	.cfi_def_cfa_offset 32
.LBB289:
.LBB290:
	.loc 1 553 0
	movl	cur_entry_id.3341(%rip), %ebp
	leal	1(%rbp), %eax
	movl	%eax, cur_entry_id.3341(%rip)
.LVL50:
.LBE290:
.LBE289:
.LBB291:
.LBB288:
	.loc 1 546 0
	call	malloc
.LVL51:
.LBB284:
.LBB285:
	.loc 2 34 0
	movl	%ebp, %r9d
.LBE285:
.LBE284:
	.loc 1 546 0
	movq	%rax, %rbx
.LVL52:
.LBB287:
.LBB286:
	.loc 2 34 0
	movq	%rax, %rdi
	movl	$.LC4, %r8d
	movl	$.LC2, %ecx
	movl	$12, %edx
	movl	$1, %esi
	xorl	%eax, %eax
.LVL53:
	call	__sprintf_chk
.LVL54:
.LBE286:
.LBE287:
.LBE288:
.LBE291:
	.loc 1 535 0
	addq	$8, %rsp
	.cfi_def_cfa_offset 24
	movq	%rbx, %rax
	popq	%rbx
	.cfi_def_cfa_offset 16
.LVL55:
	popq	%rbp
	.cfi_def_cfa_offset 8
.LVL56:
	ret
	.cfi_endproc
.LFE66:
	.size	get_conseq_label, .-get_conseq_label
	.section	.rodata.str1.1
.LC5:
	.string	"end"
	.text
	.p2align 4,,15
	.globl	get_end_label
	.type	get_end_label, @function
get_end_label:
.LFB67:
	.loc 1 537 0
	.cfi_startproc
	pushq	%rbp
	.cfi_def_cfa_offset 16
	.cfi_offset 6, -16
.LBB298:
.LBB299:
	.loc 1 546 0
	movl	$12, %edi
.LBE299:
.LBE298:
	.loc 1 537 0
	pushq	%rbx
	.cfi_def_cfa_offset 24
	.cfi_offset 3, -24
	subq	$8, %rsp
	.cfi_def_cfa_offset 32
.LBB305:
.LBB306:
	.loc 1 553 0
	movl	cur_entry_id.3341(%rip), %ebp
	leal	1(%rbp), %eax
	movl	%eax, cur_entry_id.3341(%rip)
.LVL57:
.LBE306:
.LBE305:
.LBB307:
.LBB304:
	.loc 1 546 0
	call	malloc
.LVL58:
.LBB300:
.LBB301:
	.loc 2 34 0
	movl	%ebp, %r9d
.LBE301:
.LBE300:
	.loc 1 546 0
	movq	%rax, %rbx
.LVL59:
.LBB303:
.LBB302:
	.loc 2 34 0
	movq	%rax, %rdi
	movl	$.LC5, %r8d
	movl	$.LC2, %ecx
	movl	$12, %edx
	movl	$1, %esi
	xorl	%eax, %eax
.LVL60:
	call	__sprintf_chk
.LVL61:
.LBE302:
.LBE303:
.LBE304:
.LBE307:
	.loc 1 539 0
	addq	$8, %rsp
	.cfi_def_cfa_offset 24
	movq	%rbx, %rax
	popq	%rbx
	.cfi_def_cfa_offset 16
.LVL62:
	popq	%rbp
	.cfi_def_cfa_offset 8
.LVL63:
	ret
	.cfi_endproc
.LFE67:
	.size	get_end_label, .-get_end_label
	.section	.rodata.str1.1
.LC6:
	.string	"entry"
	.text
	.p2align 4,,15
	.globl	get_entry_label
	.type	get_entry_label, @function
get_entry_label:
.LFB68:
	.loc 1 541 0
	.cfi_startproc
	pushq	%rbp
	.cfi_def_cfa_offset 16
	.cfi_offset 6, -16
.LBB314:
.LBB315:
	.loc 1 546 0
	movl	$12, %edi
.LBE315:
.LBE314:
	.loc 1 541 0
	pushq	%rbx
	.cfi_def_cfa_offset 24
	.cfi_offset 3, -24
	subq	$8, %rsp
	.cfi_def_cfa_offset 32
.LBB321:
.LBB322:
	.loc 1 553 0
	movl	cur_entry_id.3341(%rip), %ebp
	leal	1(%rbp), %eax
	movl	%eax, cur_entry_id.3341(%rip)
.LVL64:
.LBE322:
.LBE321:
.LBB323:
.LBB320:
	.loc 1 546 0
	call	malloc
.LVL65:
.LBB316:
.LBB317:
	.loc 2 34 0
	movl	%ebp, %r9d
.LBE317:
.LBE316:
	.loc 1 546 0
	movq	%rax, %rbx
.LVL66:
.LBB319:
.LBB318:
	.loc 2 34 0
	movq	%rax, %rdi
	movl	$.LC6, %r8d
	movl	$.LC2, %ecx
	movl	$12, %edx
	movl	$1, %esi
	xorl	%eax, %eax
.LVL67:
	call	__sprintf_chk
.LVL68:
.LBE318:
.LBE319:
.LBE320:
.LBE323:
	.loc 1 543 0
	addq	$8, %rsp
	.cfi_def_cfa_offset 24
	movq	%rbx, %rax
	popq	%rbx
	.cfi_def_cfa_offset 16
.LVL69:
	popq	%rbp
	.cfi_def_cfa_offset 8
.LVL70:
	ret
	.cfi_endproc
.LFE68:
	.size	get_entry_label, .-get_entry_label
	.p2align 4,,15
	.globl	get_label
	.type	get_label, @function
get_label:
.LFB69:
	.loc 1 545 0
	.cfi_startproc
.LVL71:
	pushq	%r12
	.cfi_def_cfa_offset 16
	.cfi_offset 12, -16
	movq	%rsi, %r12
	pushq	%rbp
	.cfi_def_cfa_offset 24
	.cfi_offset 6, -24
	movl	%edi, %ebp
	.loc 1 546 0
	movl	$12, %edi
.LVL72:
	.loc 1 545 0
	pushq	%rbx
	.cfi_def_cfa_offset 32
	.cfi_offset 3, -32
	.loc 1 546 0
	call	malloc
.LVL73:
.LBB326:
.LBB327:
	.loc 2 34 0
	movl	%ebp, %r9d
.LBE327:
.LBE326:
	.loc 1 546 0
	movq	%rax, %rbx
.LVL74:
.LBB329:
.LBB328:
	.loc 2 34 0
	movq	%r12, %r8
	movq	%rax, %rdi
	movl	$.LC2, %ecx
	movl	$12, %edx
	movl	$1, %esi
	xorl	%eax, %eax
.LVL75:
	call	__sprintf_chk
.LVL76:
.LBE328:
.LBE329:
	.loc 1 549 0
	movq	%rbx, %rax
	popq	%rbx
	.cfi_def_cfa_offset 24
.LVL77:
	popq	%rbp
	.cfi_def_cfa_offset 16
.LVL78:
	popq	%r12
	.cfi_def_cfa_offset 8
.LVL79:
	ret
	.cfi_endproc
.LFE69:
	.size	get_label, .-get_label
	.p2align 4,,15
	.globl	get_next_entry_id
	.type	get_next_entry_id, @function
get_next_entry_id:
.LFB70:
	.loc 1 551 0
	.cfi_startproc
	.loc 1 553 0
	movl	cur_entry_id.3341(%rip), %eax
	leal	1(%rax), %edx
	movl	%edx, cur_entry_id.3341(%rip)
	.loc 1 554 0
	ret
	.cfi_endproc
.LFE70:
	.size	get_next_entry_id, .-get_next_entry_id
	.p2align 4,,15
	.globl	get_containing_frame_scope
	.type	get_containing_frame_scope, @function
get_containing_frame_scope:
.LFB71:
	.loc 1 558 0
	.cfi_startproc
.LVL80:
	.loc 1 560 0
	testq	%rdi, %rdi
	.loc 1 558 0
	movq	%rdi, %rax
	.loc 1 560 0
	je	.L34
	.loc 1 561 0
	movl	(%rdi), %esi
	leal	-1(%rsi), %edx
	cmpl	$1, %edx
	ja	.L35
	jmp	.L41
.LVL81:
	.p2align 4,,10
	.p2align 3
.L36:
	movl	(%rax), %ecx
	leal	-1(%rcx), %edx
	cmpl	$1, %edx
	jbe	.L34
.L35:
	.loc 1 564 0
	movq	16(%rax), %rax
.LVL82:
	.loc 1 560 0
	testq	%rax, %rax
	jne	.L36
.L34:
	.loc 1 567 0
	rep; ret
.LVL83:
.L41:
	.p2align 4,,4
	rep; ret
	.cfi_endproc
.LFE71:
	.size	get_containing_frame_scope, .-get_containing_frame_scope
	.section	.rodata.str1.8,"aMS",@progbits,1
	.align 8
.LC7:
	.string	"Error: redefined variable: %s.\n"
	.section	.rodata.str1.1
.LC8:
	.string	"malloc failure!"
	.text
	.p2align 4,,15
	.globl	register_var_in_scope
	.type	register_var_in_scope, @function
register_var_in_scope:
.LFB72:
	.loc 1 569 0
	.cfi_startproc
.LVL84:
	pushq	%r14
	.cfi_def_cfa_offset 16
	.cfi_offset 14, -16
	pushq	%r13
	.cfi_def_cfa_offset 24
	.cfi_offset 13, -24
	movq	%rdi, %r13
	pushq	%r12
	.cfi_def_cfa_offset 32
	.cfi_offset 12, -32
	movq	%rsi, %r12
	pushq	%rbp
	.cfi_def_cfa_offset 40
	.cfi_offset 6, -40
	pushq	%rbx
	.cfi_def_cfa_offset 48
	.cfi_offset 3, -48
.LBB347:
	.loc 1 571 0
	movq	8(%rdi), %rbp
	movl	0(%rbp), %esi
.LVL85:
	testl	%esi, %esi
	jle	.L43
	xorl	%ebx, %ebx
	jmp	.L45
.LVL86:
	.p2align 4,,10
	.p2align 3
.L44:
	movq	8(%r13), %rbp
	addl	$1, %ebx
.LVL87:
	cmpl	%ebx, 0(%rbp)
	jle	.L43
.LVL88:
.L45:
.LBB348:
	.loc 1 572 0
	movl	%ebx, %esi
	movq	%rbp, %rdi
	call	vector_get
.LVL89:
	movq	%r12, %rsi
	movq	%rax, %rdi
	call	strcmp
.LVL90:
.LBE348:
	testl	%eax, %eax
	jne	.L44
.LVL91:
.LBB349:
.LBB350:
	.loc 2 105 0
	movq	%r12, %rdx
	movl	$.LC7, %esi
	movl	$1, %edi
	call	__printf_chk
.LVL92:
.LBE350:
.LBE349:
	.loc 1 571 0
	movq	8(%r13), %rbp
	addl	$1, %ebx
.LVL93:
	cmpl	%ebx, 0(%rbp)
	jg	.L45
.LVL94:
.L43:
.LBE347:
	.loc 1 577 0
	movl	$16, %edi
	movq	%r13, %rbx
	call	malloc
.LVL95:
	movq	%rax, %r14
.LVL96:
	.p2align 4,,10
	.p2align 3
.L48:
.LBB351:
.LBB352:
	.loc 1 561 0
	movl	(%rbx), %eax
	leal	-1(%rax), %ecx
	cmpl	$1, %ecx
	jbe	.L46
	.loc 1 564 0
	movq	16(%rbx), %rbx
.LVL97:
	.loc 1 560 0
	testq	%rbx, %rbx
	jne	.L48
.LBE352:
.LBE351:
	.loc 1 579 0
	movq	8, %rax
	movl	(%rax), %eax
	movl	%eax, 8(%r14)
.L54:
.LVL98:
.LBB353:
.LBB354:
	.loc 1 899 0
	movl	$6, %edi
	call	malloc
.LVL99:
	.loc 1 900 0
	testq	%rax, %rax
	.loc 1 899 0
	movq	%rax, %rbp
.LVL100:
	.loc 1 900 0
	je	.L50
.LVL101:
.LBB355:
.LBB356:
	.file 3 "/usr/include/x86_64-linux-gnu/bits/string3.h"
	.loc 3 105 0
	movl	$42, %ecx
	movl	$1596612394, (%rax)
	movw	%cx, 4(%rax)
.LVL102:
.L51:
.LBE356:
.LBE355:
.LBE354:
.LBE353:
	.loc 1 585 0
	movq	8(%rbx), %rdi
	movq	%r14, %rsi
	.loc 1 581 0
	movq	%rbp, (%r14)
	.loc 1 585 0
	call	vector_add
.LVL103:
	.loc 1 587 0
	cmpq	%rbx, %r13
	je	.L53
.LBB362:
	.loc 1 588 0
	movl	$16, %edi
	call	malloc
.LVL104:
	.loc 1 590 0
	movl	8(%r14), %edx
	.loc 1 591 0
	movq	8(%r13), %rdi
	movq	%rax, %rsi
	.loc 1 589 0
	movq	%r12, (%rax)
	.loc 1 590 0
	movl	%edx, 8(%rax)
	.loc 1 591 0
	call	vector_add
.LVL105:
.L53:
.LBE362:
	.loc 1 594 0
	popq	%rbx
	.cfi_remember_state
	.cfi_def_cfa_offset 40
.LVL106:
	popq	%rbp
	.cfi_def_cfa_offset 32
.LVL107:
	popq	%r12
	.cfi_def_cfa_offset 24
.LVL108:
	popq	%r13
	.cfi_def_cfa_offset 16
.LVL109:
	.loc 1 593 0
	movl	8(%r14), %eax
	.loc 1 594 0
	popq	%r14
	.cfi_def_cfa_offset 8
.LVL110:
	ret
.LVL111:
	.p2align 4,,10
	.p2align 3
.L46:
	.cfi_restore_state
	.loc 1 579 0
	movq	8(%rbx), %rax
	.loc 1 580 0
	cmpq	%rbx, %r13
	.loc 1 579 0
	movl	(%rax), %eax
	movl	%eax, 8(%r14)
	.loc 1 580 0
	jne	.L54
	.loc 1 585 0
	movq	%r14, %rsi
	movq	%rbp, %rdi
	.loc 1 583 0
	movq	%r12, (%r14)
	.loc 1 585 0
	call	vector_add
.LVL112:
	.loc 1 594 0
	popq	%rbx
	.cfi_remember_state
	.cfi_def_cfa_offset 40
.LVL113:
	popq	%rbp
	.cfi_def_cfa_offset 32
	popq	%r12
	.cfi_def_cfa_offset 24
.LVL114:
	popq	%r13
	.cfi_def_cfa_offset 16
.LVL115:
	.loc 1 593 0
	movl	8(%r14), %eax
	.loc 1 594 0
	popq	%r14
	.cfi_def_cfa_offset 8
.LVL116:
	ret
.LVL117:
	.p2align 4,,10
	.p2align 3
.L50:
	.cfi_restore_state
.LBB363:
.LBB361:
.LBB357:
.LBB358:
.LBB359:
.LBB360:
	.loc 2 98 0
	movq	stderr(%rip), %rdi
	movl	$.LC8, %edx
	movl	$1, %esi
	xorl	%eax, %eax
.LVL118:
	call	__fprintf_chk
.LVL119:
	jmp	.L51
.LBE360:
.LBE359:
.LBE358:
.LBE357:
.LBE361:
.LBE363:
	.cfi_endproc
.LFE72:
	.size	register_var_in_scope, .-register_var_in_scope
	.section	.rodata.str1.1
.LC9:
	.string	"this"
	.section	.rodata.str1.8
	.align 8
.LC10:
	.string	"ERROR: Could not resolve variable %s in environment.\n"
	.align 8
.LC11:
	.string	"ERROR[2]: Could not resolve variable %s in environment.\n"
	.text
	.p2align 4,,15
	.globl	get_var_idx_in_frame_scope
	.type	get_var_idx_in_frame_scope, @function
get_var_idx_in_frame_scope:
.LFB73:
	.loc 1 596 0
	.cfi_startproc
.LVL120:
	pushq	%r14
	.cfi_def_cfa_offset 16
	.cfi_offset 14, -16
	.loc 1 597 0
	testq	%rdi, %rdi
	.loc 1 596 0
	pushq	%r13
	.cfi_def_cfa_offset 24
	.cfi_offset 13, -24
	movq	%rsi, %r13
	pushq	%r12
	.cfi_def_cfa_offset 32
	.cfi_offset 12, -32
	movq	%rdi, %r12
	pushq	%rbp
	.cfi_def_cfa_offset 40
	.cfi_offset 6, -40
	pushq	%rbx
	.cfi_def_cfa_offset 48
	.cfi_offset 3, -48
	.loc 1 597 0
	je	.L58
.LBB364:
	.loc 1 610 0
	movl	$5, %r14d
.LVL121:
.L67:
.LBE364:
.LBB365:
	.loc 1 602 0 discriminator 1
	movq	8(%r12), %rdi
	xorl	%ebx, %ebx
	movl	(%rdi), %r8d
	testl	%r8d, %r8d
	jg	.L72
	jmp	.L63
.LVL122:
	.p2align 4,,10
	.p2align 3
.L80:
	.loc 1 602 0 is_stmt 0
	movq	8(%r12), %rdi
	addl	$1, %ebx
.LVL123:
	cmpl	%ebx, (%rdi)
	jle	.L63
.LVL124:
.L72:
.LBB366:
	.loc 1 603 0 is_stmt 1
	movl	%ebx, %esi
	call	vector_get
.LVL125:
.LBB367:
	.loc 1 604 0
	movq	(%rax), %rdi
	movq	%r13, %rsi
.LBE367:
	.loc 1 603 0
	movq	%rax, %rbp
.LVL126:
.LBB368:
	.loc 1 604 0
	call	strcmp
.LVL127:
.LBE368:
	testl	%eax, %eax
	jne	.L80
.LBE366:
.LBE365:
	.loc 1 617 0
	popq	%rbx
	.cfi_remember_state
	.cfi_def_cfa_offset 40
.LVL128:
	movl	8(%rbp), %eax
	popq	%rbp
	.cfi_def_cfa_offset 32
.LVL129:
	popq	%r12
	.cfi_def_cfa_offset 24
	popq	%r13
	.cfi_def_cfa_offset 16
	popq	%r14
	.cfi_def_cfa_offset 8
	ret
	.p2align 4,,10
	.p2align 3
.L63:
	.cfi_restore_state
.LVL130:
.LBB369:
	.loc 1 610 0
	movl	$.LC9, %esi
	movq	%r13, %rdi
	movq	%r14, %rcx
.LBE369:
	.loc 1 611 0
	repz; cmpsb
	je	.L81
	.loc 1 611 0 is_stmt 0 discriminator 1
	cmpl	$1, (%r12)
	je	.L65
.L66:
	.loc 1 616 0 is_stmt 1
	movq	16(%r12), %r12
	.loc 1 597 0
	testq	%r12, %r12
	jne	.L67
.LVL131:
.L58:
.LBB370:
.LBB371:
	.loc 2 105 0
	movq	%r13, %rdx
	movl	$.LC10, %esi
.LVL132:
.L79:
.LBE371:
.LBE370:
.LBB372:
.LBB373:
	movl	$1, %edi
	xorl	%eax, %eax
	call	__printf_chk
.LVL133:
.LBE373:
.LBE372:
	.loc 1 614 0
	movl	$-1, %edi
	call	exit
.LVL134:
	.p2align 4,,10
	.p2align 3
.L81:
	.loc 1 612 0
	cmpl	$2, (%r12)
	jne	.L66
.L65:
.LVL135:
.LBB375:
.LBB374:
	.loc 2 105 0
	movq	%r13, %rdx
	movl	$.LC11, %esi
	jmp	.L79
.LBE374:
.LBE375:
	.cfi_endproc
.LFE73:
	.size	get_var_idx_in_frame_scope, .-get_var_idx_in_frame_scope
	.section	.rodata.str1.8
	.align 8
.LC12:
	.string	"ERROR[3]: Could not resolve variable %s in environment.\n"
	.text
	.p2align 4,,15
	.globl	search_var
	.type	search_var, @function
search_var:
.LFB74:
	.loc 1 619 0
	.cfi_startproc
.LVL136:
	pushq	%r12
	.cfi_def_cfa_offset 16
	.cfi_offset 12, -16
	.loc 1 620 0
	testq	%rdi, %rdi
	.loc 1 619 0
	movq	%rsi, %r12
	pushq	%rbp
	.cfi_def_cfa_offset 24
	.cfi_offset 6, -24
	movq	%rdi, %rbp
	pushq	%rbx
	.cfi_def_cfa_offset 32
	.cfi_offset 3, -32
	.loc 1 620 0
	je	.L83
.LVL137:
.L89:
.LBB381:
	.loc 1 624 0 discriminator 1
	movq	8(%rbp), %rdi
	xorl	%ebx, %ebx
	movl	(%rdi), %r9d
	testl	%r9d, %r9d
	jg	.L92
	jmp	.L87
.LVL138:
	.p2align 4,,10
	.p2align 3
.L95:
	.loc 1 624 0 is_stmt 0
	movq	8(%rbp), %rdi
	addl	$1, %ebx
.LVL139:
	cmpl	%ebx, (%rdi)
	jle	.L87
.LVL140:
.L92:
.LBB382:
	.loc 1 625 0 is_stmt 1
	movl	%ebx, %esi
	call	vector_get
.LVL141:
.LBB383:
	.loc 1 626 0
	movq	(%rax), %rdi
	movq	%r12, %rsi
	call	strcmp
.LVL142:
.LBE383:
	testl	%eax, %eax
	jne	.L95
.LBE382:
.LBE381:
	.loc 1 631 0
	popq	%rbx
	.cfi_remember_state
	.cfi_def_cfa_offset 24
.LVL143:
	movq	%rbp, %rax
	popq	%rbp
	.cfi_def_cfa_offset 16
	popq	%r12
	.cfi_def_cfa_offset 8
.LVL144:
	ret
.LVL145:
	.p2align 4,,10
	.p2align 3
.L87:
	.cfi_restore_state
	.loc 1 630 0
	movq	16(%rbp), %rbp
	.loc 1 620 0
	testq	%rbp, %rbp
	jne	.L89
.L83:
.LVL146:
.LBB384:
.LBB385:
	.loc 2 105 0
	movl	$1, %edi
	movq	%r12, %rdx
	movl	$.LC12, %esi
	xorl	%eax, %eax
	call	__printf_chk
.LVL147:
.LBE385:
.LBE384:
	.loc 1 622 0
	movl	$-1, %edi
	call	exit
.LVL148:
	.cfi_endproc
.LFE74:
	.size	search_var, .-search_var
	.p2align 4,,15
	.globl	isGlobalScope
	.type	isGlobalScope, @function
isGlobalScope:
.LFB75:
	.loc 1 636 0
	.cfi_startproc
.LVL149:
	pushq	%r12
	.cfi_def_cfa_offset 16
	.cfi_offset 12, -16
.LBB397:
.LBB398:
	.loc 1 620 0
	testq	%rdi, %rdi
.LBE398:
.LBE397:
	.loc 1 636 0
	movq	%rsi, %r12
.LVL150:
	pushq	%rbp
	.cfi_def_cfa_offset 24
	.cfi_offset 6, -24
	movq	%rdi, %rbp
	pushq	%rbx
	.cfi_def_cfa_offset 32
	.cfi_offset 3, -32
.LBB406:
.LBB404:
	.loc 1 620 0
	je	.L97
.LVL151:
.L103:
.LBB399:
	.loc 1 624 0
	movq	8(%rbp), %rdi
	xorl	%ebx, %ebx
	movl	(%rdi), %r10d
	testl	%r10d, %r10d
	jg	.L108
	jmp	.L101
.LVL152:
	.p2align 4,,10
	.p2align 3
.L111:
	movq	8(%rbp), %rdi
	addl	$1, %ebx
.LVL153:
	cmpl	(%rdi), %ebx
	jge	.L101
.LVL154:
.L108:
.LBB400:
	.loc 1 625 0
	movl	%ebx, %esi
	call	vector_get
.LVL155:
.LBB401:
	.loc 1 626 0
	movq	(%rax), %rdi
	movq	%r12, %rsi
	call	strcmp
.LVL156:
.LBE401:
	testl	%eax, %eax
	jne	.L111
.LBE400:
.LBE399:
.LBE404:
.LBE406:
.LBB407:
.LBB408:
	.loc 1 651 0
	movq	root_scope.3422(%rip), %rax
	testq	%rax, %rax
	je	.L112
.LBE408:
.LBE407:
	.loc 1 642 0
	cmpq	%rbp, %rax
	.loc 1 647 0
	popq	%rbx
	.cfi_remember_state
	.cfi_def_cfa_offset 24
.LVL157:
	.loc 1 642 0
	sete	%al
	.loc 1 647 0
	popq	%rbp
	.cfi_def_cfa_offset 16
	.loc 1 642 0
	movzbl	%al, %eax
	.loc 1 647 0
	popq	%r12
	.cfi_def_cfa_offset 8
.LVL158:
	ret
.LVL159:
	.p2align 4,,10
	.p2align 3
.L101:
	.cfi_restore_state
.LBB415:
.LBB405:
	.loc 1 630 0
	movq	16(%rbp), %rbp
	.loc 1 620 0
	testq	%rbp, %rbp
	jne	.L103
.L97:
.LVL160:
.LBB402:
.LBB403:
	.loc 2 105 0
	movl	$1, %edi
	movq	%r12, %rdx
	movl	$.LC12, %esi
	xorl	%eax, %eax
	call	__printf_chk
.LVL161:
.LBE403:
.LBE402:
	.loc 1 622 0
	movl	$-1, %edi
	call	exit
.LVL162:
	.p2align 4,,10
	.p2align 3
.L112:
.LBE405:
.LBE415:
.LBB416:
.LBB413:
.LBB409:
.LBB410:
	.loc 1 658 0
	movl	$24, %edi
	call	malloc
.LVL163:
	movq	%rax, %rbx
.LVL164:
	.loc 1 659 0
	movl	$1, (%rax)
	.loc 1 660 0
	xorl	%eax, %eax
.LVL165:
	call	make_vector
.LVL166:
	movq	%rax, 8(%rbx)
.LBE410:
.LBE409:
	.loc 1 652 0
	movq	%rbx, %rax
.LBB412:
.LBB411:
	.loc 1 661 0
	movq	$0, 16(%rbx)
.LBE411:
.LBE412:
.LBE413:
.LBE416:
	.loc 1 642 0
	cmpq	%rbp, %rax
.LBB417:
.LBB414:
	.loc 1 652 0
	movq	%rbx, root_scope.3422(%rip)
.LBE414:
.LBE417:
	.loc 1 647 0
	popq	%rbx
	.cfi_def_cfa_offset 24
.LVL167:
	.loc 1 642 0
	sete	%al
.LVL168:
	.loc 1 647 0
	popq	%rbp
	.cfi_def_cfa_offset 16
	.loc 1 642 0
	movzbl	%al, %eax
	.loc 1 647 0
	popq	%r12
	.cfi_def_cfa_offset 8
.LVL169:
	ret
	.cfi_endproc
.LFE75:
	.size	isGlobalScope, .-isGlobalScope
	.p2align 4,,15
	.globl	get_root_scope
	.type	get_root_scope, @function
get_root_scope:
.LFB76:
	.loc 1 649 0
	.cfi_startproc
	.loc 1 651 0
	movq	root_scope.3422(%rip), %rax
	testq	%rax, %rax
	je	.L119
	.loc 1 655 0
	ret
	.p2align 4,,10
	.p2align 3
.L119:
	.loc 1 649 0
	pushq	%rbx
	.cfi_def_cfa_offset 16
	.cfi_offset 3, -16
.LBB420:
.LBB421:
	.loc 1 658 0
	movl	$24, %edi
	call	malloc
	movq	%rax, %rbx
	.loc 1 659 0
	movl	$1, (%rax)
	.loc 1 660 0
	xorl	%eax, %eax
	call	make_vector
	.loc 1 661 0
	movq	$0, 16(%rbx)
	.loc 1 660 0
	movq	%rax, 8(%rbx)
.LBE421:
.LBE420:
	.loc 1 652 0
	movq	%rbx, %rax
	movq	%rbx, root_scope.3422(%rip)
	.loc 1 655 0
	popq	%rbx
	.cfi_restore 3
	.cfi_def_cfa_offset 8
	ret
	.cfi_endproc
.LFE76:
	.size	get_root_scope, .-get_root_scope
	.p2align 4,,15
	.globl	make_scope
	.type	make_scope, @function
make_scope:
.LFB77:
	.loc 1 657 0
	.cfi_startproc
.LVL170:
	pushq	%r12
	.cfi_def_cfa_offset 16
	.cfi_offset 12, -16
	movl	%esi, %r12d
	pushq	%rbp
	.cfi_def_cfa_offset 24
	.cfi_offset 6, -24
	movq	%rdi, %rbp
	.loc 1 658 0
	movl	$24, %edi
.LVL171:
	.loc 1 657 0
	pushq	%rbx
	.cfi_def_cfa_offset 32
	.cfi_offset 3, -32
	.loc 1 658 0
	call	malloc
.LVL172:
	movq	%rax, %rbx
.LVL173:
	.loc 1 659 0
	movl	%r12d, (%rax)
	.loc 1 660 0
	xorl	%eax, %eax
.LVL174:
	call	make_vector
.LVL175:
	.loc 1 661 0
	movq	%rbp, 16(%rbx)
	.loc 1 660 0
	movq	%rax, 8(%rbx)
	.loc 1 663 0
	movq	%rbx, %rax
	popq	%rbx
	.cfi_def_cfa_offset 24
.LVL176:
	popq	%rbp
	.cfi_def_cfa_offset 16
.LVL177:
	popq	%r12
	.cfi_def_cfa_offset 8
.LVL178:
	ret
	.cfi_endproc
.LFE77:
	.size	make_scope, .-make_scope
	.p2align 4,,15
	.globl	make_null_val
	.type	make_null_val, @function
make_null_val:
.LFB78:
	.loc 1 665 0
	.cfi_startproc
	.loc 1 668 0
	movl	$n.3430, %eax
	ret
	.cfi_endproc
.LFE78:
	.size	make_null_val, .-make_null_val
	.p2align 4,,15
	.globl	make_int_val
	.type	make_int_val, @function
make_int_val:
.LFB79:
	.loc 1 670 0
	.cfi_startproc
.LVL179:
	pushq	%rbx
	.cfi_def_cfa_offset 16
	.cfi_offset 3, -16
	.loc 1 670 0
	movl	%edi, %ebx
	.loc 1 671 0
	movl	$8, %edi
.LVL180:
	call	malloc
.LVL181:
	.loc 1 672 0
	movl	$0, (%rax)
	.loc 1 673 0
	movl	%ebx, 4(%rax)
	.loc 1 675 0
	popq	%rbx
	.cfi_def_cfa_offset 8
.LVL182:
	ret
	.cfi_endproc
.LFE79:
	.size	make_int_val, .-make_int_val
	.p2align 4,,15
	.globl	make_string_val
	.type	make_string_val, @function
make_string_val:
.LFB80:
	.loc 1 677 0
	.cfi_startproc
.LVL183:
	pushq	%r13
	.cfi_def_cfa_offset 16
	.cfi_offset 13, -16
	pushq	%r12
	.cfi_def_cfa_offset 24
	.cfi_offset 12, -24
	movq	%rdi, %r12
	.loc 1 678 0
	movl	$16, %edi
.LVL184:
	.loc 1 677 0
	pushq	%rbp
	.cfi_def_cfa_offset 32
	.cfi_offset 6, -32
	pushq	%rbx
	.cfi_def_cfa_offset 40
	.cfi_offset 3, -40
	subq	$8, %rsp
	.cfi_def_cfa_offset 48
	.loc 1 678 0
	call	malloc
.LVL185:
.LBB432:
.LBB433:
	.loc 1 899 0
	movq	%r12, %rdi
.LBE433:
.LBE432:
	.loc 1 679 0
	movl	$2, (%rax)
	.loc 1 678 0
	movq	%rax, %rbx
.LVL186:
.LBB442:
.LBB440:
	.loc 1 899 0
	call	strlen
.LVL187:
	leaq	1(%rax), %r13
	movq	%r13, %rdi
	call	malloc
.LVL188:
	.loc 1 900 0
	testq	%rax, %rax
	.loc 1 899 0
	movq	%rax, %rbp
.LVL189:
	.loc 1 900 0
	je	.L126
.LVL190:
.LBB434:
.LBB435:
	.loc 3 105 0
	movq	%r13, %rdx
	movq	%r12, %rsi
	movq	%rax, %rdi
	call	memcpy
.LVL191:
.L127:
.LBE435:
.LBE434:
.LBE440:
.LBE442:
	.loc 1 680 0
	movq	%rbp, 8(%rbx)
	.loc 1 682 0
	addq	$8, %rsp
	.cfi_remember_state
	.cfi_def_cfa_offset 40
	movq	%rbx, %rax
	popq	%rbx
	.cfi_def_cfa_offset 32
.LVL192:
	popq	%rbp
	.cfi_def_cfa_offset 24
.LVL193:
	popq	%r12
	.cfi_def_cfa_offset 16
.LVL194:
	popq	%r13
	.cfi_def_cfa_offset 8
	ret
.LVL195:
	.p2align 4,,10
	.p2align 3
.L126:
	.cfi_restore_state
.LBB443:
.LBB441:
.LBB436:
.LBB437:
.LBB438:
.LBB439:
	.loc 2 98 0
	movq	stderr(%rip), %rdi
	movl	$.LC8, %edx
	movl	$1, %esi
	xorl	%eax, %eax
.LVL196:
	call	__fprintf_chk
.LVL197:
	jmp	.L127
.LBE439:
.LBE438:
.LBE437:
.LBE436:
.LBE441:
.LBE443:
	.cfi_endproc
.LFE80:
	.size	make_string_val, .-make_string_val
	.p2align 4,,15
	.globl	make_method_value
	.type	make_method_value, @function
make_method_value:
.LFB82:
	.loc 1 691 0
	.cfi_startproc
	pushq	%rbx
	.cfi_def_cfa_offset 16
	.cfi_offset 3, -16
	.loc 1 692 0
	movl	$24, %edi
	call	malloc
.LVL198:
	movq	%rax, %rbx
.LVL199:
	.loc 1 694 0
	movl	$3, (%rax)
	.loc 1 695 0
	movl	$-1, 4(%rax)
	.loc 1 697 0
	movl	$0, 8(%rax)
	.loc 1 698 0
	movl	$0, 12(%rax)
	.loc 1 699 0
	xorl	%eax, %eax
.LVL200:
	call	make_vector
.LVL201:
	movq	%rax, 16(%rbx)
	.loc 1 701 0
	movq	%rbx, %rax
	popq	%rbx
	.cfi_def_cfa_offset 8
.LVL202:
	ret
	.cfi_endproc
.LFE82:
	.size	make_method_value, .-make_method_value
	.p2align 4,,15
	.globl	make_class_val
	.type	make_class_val, @function
make_class_val:
.LFB83:
	.loc 1 703 0
	.cfi_startproc
.LVL203:
	pushq	%rbx
	.cfi_def_cfa_offset 16
	.cfi_offset 3, -16
	.loc 1 703 0
	movq	%rdi, %rbx
	.loc 1 704 0
	movl	$16, %edi
.LVL204:
	call	malloc
.LVL205:
	.loc 1 706 0
	movl	$5, (%rax)
	.loc 1 707 0
	movq	%rbx, 8(%rax)
	.loc 1 709 0
	popq	%rbx
	.cfi_def_cfa_offset 8
.LVL206:
	ret
	.cfi_endproc
.LFE83:
	.size	make_class_val, .-make_class_val
	.p2align 4,,15
	.globl	register_const_null
	.type	register_const_null, @function
register_const_null:
.LFB84:
	.loc 1 711 0
	.cfi_startproc
.LVL207:
	pushq	%r12
	.cfi_def_cfa_offset 16
	.cfi_offset 12, -16
	pushq	%rbp
	.cfi_def_cfa_offset 24
	.cfi_offset 6, -24
	movq	%rdi, %rbp
	pushq	%rbx
	.cfi_def_cfa_offset 32
	.cfi_offset 3, -32
	.loc 1 713 0
	movq	(%rdi), %rdi
.LVL208:
	movl	(%rdi), %r12d
.LVL209:
.LBB453:
	.loc 1 714 0
	testl	%r12d, %r12d
	jle	.L134
	xorl	%ebx, %ebx
	jmp	.L137
.LVL210:
	.p2align 4,,10
	.p2align 3
.L140:
	addl	$1, %ebx
.LVL211:
	movq	0(%rbp), %rdi
	cmpl	%r12d, %ebx
	je	.L134
.LVL212:
.L137:
.LBB454:
	.loc 1 715 0
	movl	%ebx, %esi
	call	vector_get
.LVL213:
	.loc 1 716 0
	cmpl	$1, (%rax)
	jne	.L140
	movl	%ebx, %eax
.LVL214:
.LBE454:
.LBE453:
	.loc 1 723 0
	popq	%rbx
	.cfi_remember_state
	.cfi_def_cfa_offset 24
.LVL215:
	popq	%rbp
	.cfi_def_cfa_offset 16
.LVL216:
	popq	%r12
	.cfi_def_cfa_offset 8
.LVL217:
	ret
.LVL218:
	.p2align 4,,10
	.p2align 3
.L134:
	.cfi_restore_state
.LBB455:
.LBB456:
	.loc 1 721 0
	movl	$n.3430, %esi
	call	vector_add
.LVL219:
	.loc 1 722 0
	movq	0(%rbp), %rax
.LBE456:
.LBE455:
	.loc 1 723 0
	popq	%rbx
	.cfi_def_cfa_offset 24
	popq	%rbp
	.cfi_def_cfa_offset 16
.LVL220:
.LBB459:
.LBB457:
	.loc 1 722 0
	movl	(%rax), %eax
.LBE457:
.LBE459:
	.loc 1 723 0
	popq	%r12
	.cfi_def_cfa_offset 8
.LVL221:
.LBB460:
.LBB458:
	.loc 1 722 0
	subl	$1, %eax
.LBE458:
.LBE460:
	.loc 1 723 0
	ret
	.cfi_endproc
.LFE84:
	.size	register_const_null, .-register_const_null
	.p2align 4,,15
	.globl	register_const_int
	.type	register_const_int, @function
register_const_int:
.LFB85:
	.loc 1 725 0
	.cfi_startproc
.LVL222:
	pushq	%r14
	.cfi_def_cfa_offset 16
	.cfi_offset 14, -16
	movl	%esi, %r14d
	pushq	%r13
	.cfi_def_cfa_offset 24
	.cfi_offset 13, -24
	pushq	%r12
	.cfi_def_cfa_offset 32
	.cfi_offset 12, -32
	movq	%rdi, %r12
	pushq	%rbp
	.cfi_def_cfa_offset 40
	.cfi_offset 6, -40
	pushq	%rbx
	.cfi_def_cfa_offset 48
	.cfi_offset 3, -48
	.loc 1 727 0
	movq	(%rdi), %rbp
	movl	0(%rbp), %r13d
.LVL223:
.LBB465:
	.loc 1 728 0
	testl	%r13d, %r13d
	jle	.L142
	xorl	%ebx, %ebx
.LVL224:
	.p2align 4,,10
	.p2align 3
.L146:
.LBB466:
	.loc 1 729 0
	movl	%ebx, %esi
	movq	%rbp, %rdi
	call	vector_get
.LVL225:
	.loc 1 730 0
	movl	(%rax), %r11d
	testl	%r11d, %r11d
	jne	.L143
	.loc 1 730 0 is_stmt 0 discriminator 1
	cmpl	%r14d, 4(%rax)
	je	.L147
.L143:
.LBE466:
	.loc 1 728 0 is_stmt 1
	addl	$1, %ebx
.LVL226:
	movq	(%r12), %rbp
	cmpl	%r13d, %ebx
	jne	.L146
.LVL227:
.L142:
.LBE465:
.LBB468:
.LBB469:
	.loc 1 671 0
	movl	$8, %edi
	call	malloc
.LVL228:
.LBE469:
.LBE468:
	.loc 1 736 0
	movq	%rbp, %rdi
.LBB471:
.LBB470:
	.loc 1 673 0
	movl	%r14d, 4(%rax)
	.loc 1 672 0
	movl	$0, (%rax)
.LBE470:
.LBE471:
	.loc 1 736 0
	movq	%rax, %rsi
	call	vector_add
.LVL229:
	.loc 1 737 0
	movq	(%r12), %rax
	.loc 1 738 0
	popq	%rbx
	.cfi_remember_state
	.cfi_def_cfa_offset 40
	popq	%rbp
	.cfi_def_cfa_offset 32
	.loc 1 737 0
	movl	(%rax), %eax
	.loc 1 738 0
	popq	%r12
	.cfi_def_cfa_offset 24
.LVL230:
	popq	%r13
	.cfi_def_cfa_offset 16
.LVL231:
	.loc 1 737 0
	subl	$1, %eax
	.loc 1 738 0
	popq	%r14
	.cfi_def_cfa_offset 8
.LVL232:
	ret
.LVL233:
	.p2align 4,,10
	.p2align 3
.L147:
	.cfi_restore_state
.LBB472:
.LBB467:
	movl	%ebx, %eax
.LVL234:
.LBE467:
.LBE472:
	popq	%rbx
	.cfi_def_cfa_offset 40
.LVL235:
	popq	%rbp
	.cfi_def_cfa_offset 32
	popq	%r12
	.cfi_def_cfa_offset 24
.LVL236:
	popq	%r13
	.cfi_def_cfa_offset 16
.LVL237:
	popq	%r14
	.cfi_def_cfa_offset 8
.LVL238:
	ret
	.cfi_endproc
.LFE85:
	.size	register_const_int, .-register_const_int
	.p2align 4,,15
	.globl	register_const_str
	.type	register_const_str, @function
register_const_str:
.LFB86:
	.loc 1 740 0
	.cfi_startproc
.LVL239:
	pushq	%r14
	.cfi_def_cfa_offset 16
	.cfi_offset 14, -16
	pushq	%r13
	.cfi_def_cfa_offset 24
	.cfi_offset 13, -24
	movq	%rsi, %r13
	pushq	%r12
	.cfi_def_cfa_offset 32
	.cfi_offset 12, -32
	pushq	%rbp
	.cfi_def_cfa_offset 40
	.cfi_offset 6, -40
	movq	%rdi, %rbp
	pushq	%rbx
	.cfi_def_cfa_offset 48
	.cfi_offset 3, -48
	.loc 1 742 0
	movq	(%rdi), %rdi
.LVL240:
.LBB488:
	.loc 1 743 0
	xorl	%ebx, %ebx
.LBE488:
	.loc 1 742 0
	movl	(%rdi), %r12d
.LVL241:
.LBB491:
	.loc 1 743 0
	testl	%r12d, %r12d
	jg	.L159
	jmp	.L155
.LVL242:
	.p2align 4,,10
	.p2align 3
.L153:
	addl	$1, %ebx
.LVL243:
	cmpl	%r12d, %ebx
	je	.L155
	movq	0(%rbp), %rdi
.LVL244:
.L159:
.LBB489:
	.loc 1 744 0
	movl	%ebx, %esi
	call	vector_get
.LVL245:
	.loc 1 745 0
	cmpl	$2, (%rax)
	jne	.L153
.LBB490:
	.loc 1 746 0 discriminator 1
	movq	8(%rax), %rdi
	movq	%r13, %rsi
	call	strcmp
.LVL246:
.LBE490:
	.loc 1 745 0 discriminator 1
	testl	%eax, %eax
	jne	.L153
	movl	%ebx, %eax
.LBE489:
.LBE491:
	.loc 1 753 0
	popq	%rbx
	.cfi_remember_state
	.cfi_def_cfa_offset 40
.LVL247:
	popq	%rbp
	.cfi_def_cfa_offset 32
.LVL248:
	popq	%r12
	.cfi_def_cfa_offset 24
.LVL249:
	popq	%r13
	.cfi_def_cfa_offset 16
.LVL250:
	popq	%r14
	.cfi_def_cfa_offset 8
	ret
.LVL251:
	.p2align 4,,10
	.p2align 3
.L155:
	.cfi_restore_state
.LBB492:
.LBB493:
	.loc 1 678 0
	movl	$16, %edi
	call	malloc
.LVL252:
.LBB494:
.LBB495:
	.loc 1 899 0
	movq	%r13, %rdi
.LBE495:
.LBE494:
	.loc 1 679 0
	movl	$2, (%rax)
	.loc 1 678 0
	movq	%rax, %rbx
.LVL253:
.LBB504:
.LBB502:
	.loc 1 899 0
	call	strlen
.LVL254:
	leaq	1(%rax), %r14
	movq	%r14, %rdi
	call	malloc
.LVL255:
	.loc 1 900 0
	testq	%rax, %rax
	.loc 1 899 0
	movq	%rax, %r12
.LVL256:
	.loc 1 900 0
	je	.L162
.LVL257:
.LBB496:
.LBB497:
	.loc 3 105 0
	movq	%r14, %rdx
	movq	%r13, %rsi
	movq	%rax, %rdi
	call	memcpy
.LVL258:
.L157:
.LBE497:
.LBE496:
.LBE502:
.LBE504:
.LBE493:
.LBE492:
	.loc 1 751 0
	movq	0(%rbp), %rdi
.LBB508:
.LBB506:
	.loc 1 680 0
	movq	%r12, 8(%rbx)
.LBE506:
.LBE508:
	.loc 1 751 0
	movq	%rbx, %rsi
	call	vector_add
.LVL259:
	.loc 1 752 0
	movq	0(%rbp), %rax
	.loc 1 753 0
	popq	%rbx
	.cfi_remember_state
	.cfi_def_cfa_offset 40
.LVL260:
	popq	%rbp
	.cfi_def_cfa_offset 32
.LVL261:
	.loc 1 752 0
	movl	(%rax), %eax
	.loc 1 753 0
	popq	%r12
	.cfi_def_cfa_offset 24
.LVL262:
	popq	%r13
	.cfi_def_cfa_offset 16
.LVL263:
	.loc 1 752 0
	subl	$1, %eax
	.loc 1 753 0
	popq	%r14
	.cfi_def_cfa_offset 8
	ret
.LVL264:
	.p2align 4,,10
	.p2align 3
.L162:
	.cfi_restore_state
.LBB509:
.LBB507:
.LBB505:
.LBB503:
.LBB498:
.LBB499:
.LBB500:
.LBB501:
	.loc 2 98 0
	movq	stderr(%rip), %rdi
	movl	$.LC8, %edx
	movl	$1, %esi
	xorl	%eax, %eax
.LVL265:
	call	__fprintf_chk
.LVL266:
	jmp	.L157
.LBE501:
.LBE500:
.LBE499:
.LBE498:
.LBE503:
.LBE505:
.LBE507:
.LBE509:
	.cfi_endproc
.LFE86:
	.size	register_const_str, .-register_const_str
	.section	.rodata.str1.8
	.align 8
.LC13:
	.string	"Error: unknown reference: %s.\n"
	.text
	.p2align 4,,15
	.globl	compile_ref_exp
	.type	compile_ref_exp, @function
compile_ref_exp:
.LFB51:
	.loc 1 282 0
	.cfi_startproc
.LVL267:
	pushq	%r15
	.cfi_def_cfa_offset 16
	.cfi_offset 15, -16
	pushq	%r14
	.cfi_def_cfa_offset 24
	.cfi_offset 14, -24
	pushq	%r13
	.cfi_def_cfa_offset 32
	.cfi_offset 13, -32
	movq	%rsi, %r13
	pushq	%r12
	.cfi_def_cfa_offset 40
	.cfi_offset 12, -40
	movq	%rcx, %r12
	pushq	%rbp
	.cfi_def_cfa_offset 48
	.cfi_offset 6, -48
	pushq	%rbx
	.cfi_def_cfa_offset 56
	.cfi_offset 3, -56
	subq	$24, %rsp
	.cfi_def_cfa_offset 80
.LBB533:
.LBB534:
.LBB535:
.LBB536:
	.loc 1 620 0
	testq	%rcx, %rcx
.LBE536:
.LBE535:
.LBE534:
.LBE533:
	.loc 1 284 0
	movq	8(%rsi), %rbp
.LVL268:
	.loc 1 282 0
	movq	%rdi, 8(%rsp)
.LBB555:
.LBB552:
.LBB544:
.LBB542:
	.loc 1 620 0
	je	.L164
	movq	%rdx, %r14
	movq	%rcx, %rbx
.LVL269:
.L170:
.LBB537:
	.loc 1 624 0
	movq	8(%rbx), %rdi
	xorl	%r15d, %r15d
	movl	(%rdi), %eax
	testl	%eax, %eax
	jg	.L181
	jmp	.L168
.LVL270:
	.p2align 4,,10
	.p2align 3
.L187:
	movq	8(%rbx), %rdi
	addl	$1, %r15d
.LVL271:
	cmpl	(%rdi), %r15d
	jge	.L168
.LVL272:
.L181:
.LBB538:
	.loc 1 625 0
	movl	%r15d, %esi
	call	vector_get
.LVL273:
.LBB539:
	.loc 1 626 0
	movq	(%rax), %rdi
	movq	%rbp, %rsi
	call	strcmp
.LVL274:
.LBE539:
	testl	%eax, %eax
	jne	.L187
.LBE538:
.LBE537:
.LBE542:
.LBE544:
.LBB545:
.LBB546:
	.loc 1 651 0
	movq	root_scope.3422(%rip), %rax
	testq	%rax, %rax
	je	.L188
.LVL275:
.L171:
.LBE546:
.LBE545:
	.loc 1 642 0
	cmpq	%rbx, %rax
	je	.L189
.LBE552:
.LBE555:
	.loc 1 288 0
	movq	8(%r13), %rsi
	movq	%r12, %rdi
	call	get_var_idx_in_frame_scope
.LVL276:
	.loc 1 289 0
	cmpl	$-1, %eax
	.loc 1 288 0
	movl	%eax, %ebx
.LVL277:
	.loc 1 289 0
	jne	.L190
.LVL278:
.LBB556:
	.loc 1 291 0
	movq	8(%r13), %rdx
	movl	$.LC9, %edi
	movl	$5, %ecx
	movq	%rdx, %rsi
.LBE556:
	repz; cmpsb
	jne	.L175
.LBB557:
	.loc 1 292 0
	movq	8(%rsp), %rdi
	movl	$.LC9, %esi
	call	register_const_str
.LVL279:
.LBB558:
.LBB559:
	.loc 1 776 0
	movl	$8, %edi
.LBE559:
.LBE558:
	.loc 1 292 0
	movl	%eax, %ebp
.LVL280:
.LBB562:
.LBB560:
	.loc 1 776 0
	call	malloc
.LVL281:
.LBE560:
.LBE562:
	.loc 1 293 0
	movq	%r14, %rdi
.LBB563:
.LBB561:
	.loc 1 776 0
	movq	%rax, %rsi
.LVL282:
	.loc 1 777 0
	movl	$12, (%rax)
	.loc 1 778 0
	movl	%ebp, 4(%rax)
.LBE561:
.LBE563:
	.loc 1 293 0
	call	vector_add
.LVL283:
.L184:
.LBE557:
	.loc 1 300 0
	addq	$24, %rsp
	.cfi_remember_state
	.cfi_def_cfa_offset 56
	movl	%ebx, %eax
	popq	%rbx
	.cfi_def_cfa_offset 48
.LVL284:
	popq	%rbp
	.cfi_def_cfa_offset 40
	popq	%r12
	.cfi_def_cfa_offset 32
.LVL285:
	popq	%r13
	.cfi_def_cfa_offset 24
.LVL286:
	popq	%r14
	.cfi_def_cfa_offset 16
.LVL287:
	popq	%r15
	.cfi_def_cfa_offset 8
.LVL288:
	ret
.LVL289:
	.p2align 4,,10
	.p2align 3
.L168:
	.cfi_restore_state
.LBB564:
.LBB553:
.LBB550:
.LBB543:
	.loc 1 630 0
	movq	16(%rbx), %rbx
	.loc 1 620 0
	testq	%rbx, %rbx
	jne	.L170
.LVL290:
.L164:
.LBB540:
.LBB541:
	.loc 2 105 0
	movl	$1, %edi
	movq	%rbp, %rdx
	movl	$.LC12, %esi
	xorl	%eax, %eax
	call	__printf_chk
.LVL291:
.LBE541:
.LBE540:
	.loc 1 622 0
	movl	$-1, %edi
	call	exit
.LVL292:
	.p2align 4,,10
	.p2align 3
.L190:
.LBE543:
.LBE550:
.LBE553:
.LBE564:
.LBB565:
.LBB566:
	.loc 1 790 0
	movl	$8, %edi
	call	malloc
.LVL293:
.LBE566:
.LBE565:
	.loc 1 290 0
	movq	%r14, %rdi
.LBB568:
.LBB567:
	.loc 1 791 0
	movl	$10, (%rax)
	.loc 1 792 0
	movl	%ebx, 4(%rax)
.LBE567:
.LBE568:
	.loc 1 290 0
	movq	%rax, %rsi
	call	vector_add
.LVL294:
	jmp	.L184
.LVL295:
.L189:
	.loc 1 285 0
	movq	8(%r13), %rsi
	movq	8(%rsp), %rdi
	call	register_const_str
.LVL296:
.LBB569:
.LBB570:
	.loc 1 776 0
	movl	$8, %edi
.LBE570:
.LBE569:
	.loc 1 285 0
	movl	%eax, %ebx
.LVL297:
.LBB573:
.LBB571:
	.loc 1 776 0
	call	malloc
.LVL298:
.LBE571:
.LBE573:
	.loc 1 286 0
	movq	%r14, %rdi
.LBB574:
.LBB572:
	.loc 1 777 0
	movl	$12, (%rax)
	.loc 1 778 0
	movl	%ebx, 4(%rax)
.LBE572:
.LBE574:
	.loc 1 286 0
	movq	%rax, %rsi
	call	vector_add
.LVL299:
	jmp	.L184
.LVL300:
.L188:
.LBB575:
.LBB554:
.LBB551:
.LBB549:
.LBB547:
.LBB548:
	.loc 1 658 0
	movl	$24, %edi
	call	malloc
.LVL301:
	movq	%rax, %rbp
.LVL302:
	.loc 1 659 0
	movl	$1, (%rax)
	.loc 1 660 0
	xorl	%eax, %eax
.LVL303:
	call	make_vector
.LVL304:
	.loc 1 661 0
	movq	$0, 16(%rbp)
	.loc 1 660 0
	movq	%rax, 8(%rbp)
.LBE548:
.LBE547:
	.loc 1 652 0
	movq	%rbp, %rax
	movq	%rbp, root_scope.3422(%rip)
	jmp	.L171
.LVL305:
.L175:
.LBE549:
.LBE551:
.LBE554:
.LBE575:
.LBB576:
.LBB577:
	.loc 2 105 0
	movl	$1, %edi
	movl	$.LC13, %esi
	xorl	%eax, %eax
.LVL306:
	call	__printf_chk
.LVL307:
.LBE577:
.LBE576:
	.loc 1 296 0
	movl	%ebx, %edi
	call	exit
.LVL308:
	.cfi_endproc
.LFE51:
	.size	compile_ref_exp, .-compile_ref_exp
	.p2align 4,,15
	.globl	compile_entry_fun
	.type	compile_entry_fun, @function
compile_entry_fun:
.LFB62:
	.loc 1 493 0
	.cfi_startproc
.LVL309:
	pushq	%r14
	.cfi_def_cfa_offset 16
	.cfi_offset 14, -16
	pushq	%r13
	.cfi_def_cfa_offset 24
	.cfi_offset 13, -24
	movq	%rsi, %r13
	pushq	%r12
	.cfi_def_cfa_offset 32
	.cfi_offset 12, -32
	pushq	%rbp
	.cfi_def_cfa_offset 40
	.cfi_offset 6, -40
	movq	%rdi, %rbp
	pushq	%rbx
	.cfi_def_cfa_offset 48
	.cfi_offset 3, -48
.LBB603:
.LBB604:
	.loc 1 713 0
	movq	(%rdi), %rdi
.LVL310:
	movl	(%rdi), %r12d
.LVL311:
.LBB605:
	.loc 1 714 0
	testl	%r12d, %r12d
	jle	.L192
	xorl	%ebx, %ebx
	jmp	.L195
.LVL312:
	.p2align 4,,10
	.p2align 3
.L198:
	addl	$1, %ebx
.LVL313:
	movq	0(%rbp), %rdi
	cmpl	%r12d, %ebx
	je	.L192
.LVL314:
.L195:
.LBB606:
	.loc 1 715 0
	movl	%ebx, %esi
	call	vector_get
.LVL315:
	.loc 1 716 0
	cmpl	$1, (%rax)
	jne	.L198
.LVL316:
.L193:
.LBE606:
.LBE605:
.LBE604:
.LBE603:
.LBB610:
.LBB611:
.LBB612:
.LBB613:
	.loc 1 553 0
	movl	cur_entry_id.3341(%rip), %r14d
.LBE613:
.LBE612:
.LBB615:
.LBB616:
	.loc 1 546 0
	movl	$12, %edi
.LBE616:
.LBE615:
.LBB622:
.LBB614:
	.loc 1 553 0
	leal	1(%r14), %eax
	movl	%eax, cur_entry_id.3341(%rip)
.LVL317:
.LBE614:
.LBE622:
.LBB623:
.LBB621:
	.loc 1 546 0
	call	malloc
.LVL318:
.LBB617:
.LBB618:
	.loc 2 34 0
	movl	%r14d, %r9d
	movl	$.LC6, %r8d
	movl	$.LC2, %ecx
	movl	$12, %edx
.LBE618:
.LBE617:
	.loc 1 546 0
	movq	%rax, %r12
.LVL319:
.LBB620:
.LBB619:
	.loc 2 34 0
	movq	%rax, %rdi
	movl	$1, %esi
	xorl	%eax, %eax
.LVL320:
	call	__sprintf_chk
.LVL321:
.LBE619:
.LBE620:
.LBE621:
.LBE623:
.LBE611:
.LBE610:
	.loc 1 496 0
	movq	%r12, %rsi
	movq	%rbp, %rdi
	call	register_const_str
.LVL322:
.LBB624:
.LBB625:
	.loc 1 762 0
	movq	0(%rbp), %rdi
	movq	%r13, %rsi
.LBE625:
.LBE624:
	.loc 1 496 0
	movl	%eax, 4(%r13)
.LVL323:
.LBB628:
.LBB626:
	.loc 1 762 0
	call	vector_add
.LVL324:
	.loc 1 763 0
	movq	0(%rbp), %rax
.LBE626:
.LBE628:
.LBB629:
.LBB630:
	.loc 1 810 0
	movl	$4, %edi
.LBE630:
.LBE629:
.LBB633:
.LBB627:
	.loc 1 763 0
	movl	(%rax), %eax
	subl	$1, %eax
.LBE627:
.LBE633:
	.loc 1 499 0
	movl	%eax, 16(%rbp)
.LBB634:
.LBB631:
	.loc 1 810 0
	call	malloc
.LVL325:
.LBE631:
.LBE634:
	.loc 1 501 0
	movq	16(%r13), %rdi
	movq	%rax, %rsi
.LBB635:
.LBB632:
	.loc 1 811 0
	movl	$16, (%rax)
.LBE632:
.LBE635:
	.loc 1 501 0
	call	vector_add
.LVL326:
.LBB636:
.LBB637:
	.loc 1 822 0
	movl	$8, %edi
	call	malloc
.LVL327:
.LBE637:
.LBE636:
	.loc 1 502 0
	movq	16(%r13), %rdi
.LBB640:
.LBB638:
	.loc 1 824 0
	movl	%ebx, 4(%rax)
.LBE638:
.LBE640:
	.loc 1 502 0
	movq	%rax, %rsi
.LBB641:
.LBB639:
	.loc 1 823 0
	movl	$1, (%rax)
.LBE639:
.LBE641:
	.loc 1 502 0
	call	vector_add
.LVL328:
.LBB642:
.LBB643:
	.loc 1 804 0
	movl	$4, %edi
	call	malloc
.LVL329:
	.loc 1 805 0
	movl	$15, (%rax)
.LBE643:
.LBE642:
	.loc 1 503 0
	movq	16(%r13), %rdi
	movq	%rax, %rsi
	.loc 1 504 0
	popq	%rbx
	.cfi_remember_state
	.cfi_def_cfa_offset 40
	popq	%rbp
	.cfi_def_cfa_offset 32
.LVL330:
	popq	%r12
	.cfi_def_cfa_offset 24
.LVL331:
	popq	%r13
	.cfi_def_cfa_offset 16
.LVL332:
	popq	%r14
	.cfi_def_cfa_offset 8
.LVL333:
	.loc 1 503 0
	jmp	vector_add
.LVL334:
	.p2align 4,,10
	.p2align 3
.L192:
	.cfi_restore_state
.LBB644:
.LBB609:
.LBB607:
.LBB608:
	.loc 1 721 0
	movl	$n.3430, %esi
	call	vector_add
.LVL335:
	.loc 1 722 0
	movq	0(%rbp), %rax
	movl	(%rax), %ebx
	subl	$1, %ebx
	jmp	.L193
.LBE608:
.LBE607:
.LBE609:
.LBE644:
	.cfi_endproc
.LFE62:
	.size	compile_entry_fun, .-compile_entry_fun
	.p2align 4,,15
	.globl	make_slot_val
	.type	make_slot_val, @function
make_slot_val:
.LFB81:
	.loc 1 684 0
	.cfi_startproc
.LVL336:
	pushq	%r12
	.cfi_def_cfa_offset 16
	.cfi_offset 12, -16
	movq	%rsi, %r12
	pushq	%rbp
	.cfi_def_cfa_offset 24
	.cfi_offset 6, -24
	movq	%rdi, %rbp
	.loc 1 685 0
	movl	$8, %edi
.LVL337:
	.loc 1 684 0
	pushq	%rbx
	.cfi_def_cfa_offset 32
	.cfi_offset 3, -32
	.loc 1 685 0
	call	malloc
.LVL338:
	.loc 1 687 0
	movq	%r12, %rsi
	.loc 1 685 0
	movq	%rax, %rbx
.LVL339:
	.loc 1 687 0
	movq	%rbp, %rdi
	.loc 1 686 0
	movl	$4, (%rax)
	.loc 1 687 0
	call	register_const_str
.LVL340:
	movl	%eax, 4(%rbx)
	.loc 1 689 0
	movq	%rbx, %rax
	popq	%rbx
	.cfi_def_cfa_offset 24
.LVL341:
	popq	%rbp
	.cfi_def_cfa_offset 16
.LVL342:
	popq	%r12
	.cfi_def_cfa_offset 8
.LVL343:
	ret
	.cfi_endproc
.LFE81:
	.size	make_slot_val, .-make_slot_val
	.section	.rodata.str1.8
	.align 8
.LC14:
	.string	"Unrecognized Expression with tag %d\n"
	.text
	.p2align 4,,15
	.globl	compile_exp
	.type	compile_exp, @function
compile_exp:
.LFB42:
	.loc 1 114 0
	.cfi_startproc
.LVL344:
	pushq	%r15
	.cfi_def_cfa_offset 16
	.cfi_offset 15, -16
	pushq	%r14
	.cfi_def_cfa_offset 24
	.cfi_offset 14, -24
	pushq	%r13
	.cfi_def_cfa_offset 32
	.cfi_offset 13, -32
	pushq	%r12
	.cfi_def_cfa_offset 40
	.cfi_offset 12, -40
	movq	%rdx, %r12
	pushq	%rbp
	.cfi_def_cfa_offset 48
	.cfi_offset 6, -48
	pushq	%rbx
	.cfi_def_cfa_offset 56
	.cfi_offset 3, -56
	movq	%rdi, %rbx
	subq	$24, %rsp
	.cfi_def_cfa_offset 80
	.loc 1 115 0
	movl	(%rdi), %edx
.LVL345:
	cmpl	$12, %edx
	ja	.L202
	movq	%rsi, %rbp
	movq	%rcx, %r13
	jmp	*.L204(,%rdx,8)
	.section	.rodata
	.align 8
	.align 4
.L204:
	.quad	.L203
	.quad	.L205
	.quad	.L206
	.quad	.L207
	.quad	.L208
	.quad	.L209
	.quad	.L210
	.quad	.L211
	.quad	.L212
	.quad	.L213
	.quad	.L214
	.quad	.L215
	.quad	.L216
	.text
	.p2align 4,,10
	.p2align 3
.L215:
.LVL346:
	.loc 1 174 0
	addq	$24, %rsp
	.cfi_remember_state
	.cfi_def_cfa_offset 56
.LBB723:
	.loc 1 161 0
	movq	%r12, %rdx
.LBE723:
	.loc 1 174 0
	popq	%rbx
	.cfi_def_cfa_offset 48
	popq	%rbp
	.cfi_def_cfa_offset 40
	popq	%r12
	.cfi_def_cfa_offset 32
.LVL347:
	popq	%r13
	.cfi_def_cfa_offset 24
	popq	%r14
	.cfi_def_cfa_offset 16
	popq	%r15
	.cfi_def_cfa_offset 8
.LBB724:
	.loc 1 161 0
	jmp	compile_while_exp
.LVL348:
	.p2align 4,,10
	.p2align 3
.L216:
	.cfi_restore_state
.LBE724:
	.loc 1 174 0
	addq	$24, %rsp
	.cfi_remember_state
	.cfi_def_cfa_offset 56
.LBB725:
	.loc 1 165 0
	movq	%rdi, %rsi
.LVL349:
	movq	%rbp, %rdi
.LBE725:
	.loc 1 174 0
	popq	%rbx
	.cfi_def_cfa_offset 48
.LVL350:
	popq	%rbp
	.cfi_def_cfa_offset 40
.LVL351:
.LBB726:
	.loc 1 165 0
	movq	%r12, %rdx
.LBE726:
	.loc 1 174 0
	popq	%r12
	.cfi_def_cfa_offset 32
.LVL352:
	popq	%r13
	.cfi_def_cfa_offset 24
	popq	%r14
	.cfi_def_cfa_offset 16
	popq	%r15
	.cfi_def_cfa_offset 8
.LBB727:
	.loc 1 165 0
	jmp	compile_ref_exp
.LVL353:
	.p2align 4,,10
	.p2align 3
.L203:
	.cfi_restore_state
.LBE727:
.LBB728:
.LBB729:
.LBB730:
.LBB731:
.LBB732:
	.loc 1 727 0
	movq	(%rsi), %r15
.LBE732:
.LBE731:
	.loc 1 309 0
	movl	4(%rdi), %r14d
.LVL354:
.LBB740:
.LBB739:
	.loc 1 727 0
	movl	(%r15), %r13d
.LVL355:
.LBB733:
	.loc 1 728 0
	testl	%r13d, %r13d
	jle	.L219
	xorl	%ebx, %ebx
.LVL356:
	.p2align 4,,10
	.p2align 3
.L223:
.LBB734:
	.loc 1 729 0
	movl	%ebx, %esi
	movq	%r15, %rdi
	call	vector_get
.LVL357:
	.loc 1 730 0
	movl	(%rax), %edx
	testl	%edx, %edx
	jne	.L220
	cmpl	4(%rax), %r14d
	je	.L225
.L220:
.LBE734:
	.loc 1 728 0
	addl	$1, %ebx
.LVL358:
	movq	0(%rbp), %r15
	cmpl	%r13d, %ebx
	jne	.L223
.LVL359:
.L219:
.LBE733:
.LBB735:
.LBB736:
	.loc 1 671 0
	movl	$8, %edi
	call	malloc
.LVL360:
.LBE736:
.LBE735:
	.loc 1 736 0
	movq	%r15, %rdi
.LBB738:
.LBB737:
	.loc 1 672 0
	movl	$0, (%rax)
	.loc 1 673 0
	movl	%r14d, 4(%rax)
.LBE737:
.LBE738:
	.loc 1 736 0
	movq	%rax, %rsi
	call	vector_add
.LVL361:
	.loc 1 737 0
	movq	0(%rbp), %rax
	movl	(%rax), %ebx
	subl	$1, %ebx
.LVL362:
.L225:
.LBE739:
.LBE740:
.LBE730:
.LBE729:
.LBE728:
.LBB741:
.LBB742:
.LBB743:
.LBB744:
	.loc 1 822 0
	movl	$8, %edi
	call	malloc
.LVL363:
.LBE744:
.LBE743:
	.loc 1 304 0
	movq	%r12, %rdi
.LBB746:
.LBB745:
	.loc 1 823 0
	movl	$1, (%rax)
	.loc 1 824 0
	movl	%ebx, 4(%rax)
.LBE745:
.LBE746:
	.loc 1 304 0
	movq	%rax, %rsi
	call	vector_add
.LVL364:
.LBE742:
.LBE741:
	.loc 1 121 0
	jmp	.L218
.LVL365:
	.p2align 4,,10
	.p2align 3
.L205:
.LBB757:
.LBB755:
.LBB747:
.LBB748:
	.loc 1 713 0
	movq	(%rsi), %rdi
	movl	(%rdi), %r13d
.LVL366:
.LBB749:
	.loc 1 714 0
	testl	%r13d, %r13d
	jle	.L224
	xorl	%ebx, %ebx
.LVL367:
	jmp	.L227
.LVL368:
	.p2align 4,,10
	.p2align 3
.L241:
	addl	$1, %ebx
.LVL369:
	movq	0(%rbp), %rdi
	cmpl	%r13d, %ebx
	je	.L224
.LVL370:
.L227:
.LBB750:
	.loc 1 715 0
	movl	%ebx, %esi
	call	vector_get
.LVL371:
	.loc 1 716 0
	cmpl	$1, (%rax)
	jne	.L241
	.p2align 4,,3
	jmp	.L225
.LVL372:
	.p2align 4,,10
	.p2align 3
.L206:
.LBE750:
.LBE749:
.LBE748:
.LBE747:
.LBE755:
.LBE757:
.LBB758:
.LBB759:
.LBB760:
.LBB761:
	.loc 1 257 0
	movl	16(%rdi), %ecx
.LVL373:
	xorl	%r15d, %r15d
	xorl	%r14d, %r14d
	testl	%ecx, %ecx
	jle	.L228
.LVL374:
	.p2align 4,,10
	.p2align 3
.L237:
	.loc 1 258 0
	movq	24(%rbx), %rax
	movq	%r13, %rcx
	movq	%r12, %rdx
	movq	%rbp, %rsi
	.loc 1 257 0
	addl	$1, %r14d
.LVL375:
	.loc 1 258 0
	movq	(%rax,%r15), %rdi
	addq	$8, %r15
	call	compile_exp
.LVL376:
	.loc 1 257 0
	cmpl	16(%rbx), %r14d
	jl	.L237
.LVL377:
.L228:
.LBE761:
	.loc 1 260 0
	movq	8(%rbx), %rsi
	movq	%rbp, %rdi
	call	register_const_str
.LVL378:
.LBB762:
.LBB763:
	.loc 1 845 0
	movl	$12, %edi
.LBE763:
.LBE762:
	.loc 1 260 0
	movl	%eax, %ebp
.LVL379:
	.loc 1 261 0
	movl	16(%rbx), %ebx
.LVL380:
.LBB765:
.LBB764:
	.loc 1 845 0
	call	malloc
.LVL381:
	movq	%rax, %rsi
.LVL382:
	.loc 1 846 0
	movl	$2, (%rax)
	jmp	.L240
.LVL383:
	.p2align 4,,10
	.p2align 3
.L207:
.LBE764:
.LBE765:
.LBE760:
.LBE759:
.LBE758:
.LBB766:
.LBB767:
.LBB768:
	.loc 1 207 0
	movq	8(%rdi), %rdi
	movq	%r12, %rdx
	call	compile_exp
.LVL384:
	.loc 1 208 0
	movq	16(%rbx), %rdi
	movq	%r13, %rcx
	movq	%r12, %rdx
	movq	%rbp, %rsi
.LBE768:
.LBE767:
	.loc 1 129 0
	movl	$-1, %ebx
.LVL385:
.LBB774:
.LBB773:
	.loc 1 208 0
	call	compile_exp
.LVL386:
.LBB769:
.LBB770:
	.loc 1 816 0
	movl	$4, %edi
	call	malloc
.LVL387:
.LBE770:
.LBE769:
	.loc 1 209 0
	movq	%r12, %rdi
.LBB772:
.LBB771:
	.loc 1 817 0
	movl	$3, (%rax)
.LBE771:
.LBE772:
	.loc 1 209 0
	movq	%rax, %rsi
	call	vector_add
.LVL388:
	.p2align 4,,10
	.p2align 3
.L218:
.LBE773:
.LBE774:
.LBE766:
	.loc 1 174 0
	addq	$24, %rsp
	.cfi_remember_state
	.cfi_def_cfa_offset 56
	movl	%ebx, %eax
	popq	%rbx
	.cfi_def_cfa_offset 48
	popq	%rbp
	.cfi_def_cfa_offset 40
	popq	%r12
	.cfi_def_cfa_offset 32
.LVL389:
	popq	%r13
	.cfi_def_cfa_offset 24
	popq	%r14
	.cfi_def_cfa_offset 16
	popq	%r15
	.cfi_def_cfa_offset 8
	ret
.LVL390:
	.p2align 4,,10
	.p2align 3
.L211:
	.cfi_restore_state
.LBB775:
.LBB776:
.LBB777:
	.loc 1 315 0
	movq	16(%rdi), %rdi
	movq	%r12, %rdx
.LBB778:
	.loc 1 317 0
	xorl	%r15d, %r15d
	xorl	%r14d, %r14d
.LBE778:
	.loc 1 315 0
	call	compile_exp
.LVL391:
.LBB779:
	.loc 1 317 0
	movl	24(%rbx), %eax
	testl	%eax, %eax
	jle	.L231
.LVL392:
	.p2align 4,,10
	.p2align 3
.L238:
	.loc 1 318 0
	movq	32(%rbx), %rax
	movq	%r13, %rcx
	movq	%r12, %rdx
	movq	%rbp, %rsi
	.loc 1 317 0
	addl	$1, %r14d
.LVL393:
	.loc 1 318 0
	movq	(%rax,%r15), %rdi
	addq	$8, %r15
	call	compile_exp
.LVL394:
	.loc 1 317 0
	cmpl	24(%rbx), %r14d
	jl	.L238
.LVL395:
.L231:
.LBE779:
	.loc 1 320 0
	movq	8(%rbx), %rsi
	movq	%rbp, %rdi
	call	register_const_str
.LVL396:
	.loc 1 321 0
	movl	24(%rbx), %ebx
.LVL397:
.LBB780:
.LBB781:
	.loc 1 837 0
	movl	$12, %edi
.LBE781:
.LBE780:
	.loc 1 320 0
	movl	%eax, %ebp
.LVL398:
.LBB784:
.LBB782:
	.loc 1 837 0
	call	malloc
.LVL399:
	movq	%rax, %rsi
	.loc 1 838 0
	movl	$7, (%rax)
.LBE782:
.LBE784:
	.loc 1 321 0
	addl	$1, %ebx
.LVL400:
.L240:
.LBB785:
.LBB783:
	.loc 1 840 0
	movl	%ebx, 8(%rsi)
	.loc 1 839 0
	movl	%ebp, 4(%rsi)
.LBE783:
.LBE785:
	.loc 1 321 0
	movq	%r12, %rdi
	call	vector_add
.LVL401:
.LBE777:
.LBE776:
	.loc 1 145 0
	movl	$-1, %ebx
	jmp	.L218
.LVL402:
	.p2align 4,,10
	.p2align 3
.L212:
.LBE775:
.LBB786:
.LBB787:
.LBB788:
	.loc 1 326 0
	movq	8(%rdi), %rsi
.LVL403:
	movq	%rbp, %rdi
	call	register_const_str
.LVL404:
.LBB789:
	.loc 1 328 0
	movl	16(%rbx), %edx
.LBE789:
	.loc 1 326 0
	movl	%eax, 8(%rsp)
.LVL405:
.LBB790:
	.loc 1 328 0
	testl	%edx, %edx
	jle	.L233
	xorl	%r15d, %r15d
	xorl	%r14d, %r14d
.LVL406:
	.p2align 4,,10
	.p2align 3
.L234:
	.loc 1 329 0
	movq	24(%rbx), %rax
	movq	%r12, %rdx
	movq	%r13, %rcx
	movq	%rbp, %rsi
	.loc 1 328 0
	addl	$1, %r14d
.LVL407:
	.loc 1 329 0
	movq	(%rax,%r15), %rdi
	addq	$8, %r15
	call	compile_exp
.LVL408:
	.loc 1 328 0
	movl	16(%rbx), %edx
	cmpl	%edx, %r14d
	jl	.L234
.LVL409:
.L233:
.LBE790:
.LBB791:
.LBB792:
	.loc 1 829 0
	movl	$12, %edi
	movl	%edx, 12(%rsp)
.LVL410:
.LBE792:
.LBE791:
.LBE788:
.LBE787:
	.loc 1 149 0
	movl	$-1, %ebx
.LVL411:
.LBB800:
.LBB799:
.LBB796:
.LBB793:
	.loc 1 829 0
	call	malloc
.LVL412:
	.loc 1 831 0
	movl	8(%rsp), %ecx
	.loc 1 832 0
	movl	12(%rsp), %edx
.LBE793:
.LBE796:
	.loc 1 331 0
	movq	%rax, %rsi
.LBB797:
.LBB794:
	.loc 1 830 0
	movl	$8, (%rax)
.LBE794:
.LBE797:
	.loc 1 331 0
	movq	%r12, %rdi
.LBB798:
.LBB795:
	.loc 1 831 0
	movl	%ecx, 4(%rax)
	.loc 1 832 0
	movl	%edx, 8(%rax)
.LBE795:
.LBE798:
	.loc 1 331 0
	call	vector_add
.LVL413:
.LBE799:
.LBE800:
	.loc 1 149 0
	jmp	.L218
.LVL414:
	.p2align 4,,10
	.p2align 3
.L213:
.LBE786:
	.loc 1 174 0
	addq	$24, %rsp
	.cfi_remember_state
	.cfi_def_cfa_offset 56
.LBB801:
	.loc 1 153 0
	movq	%r12, %rdx
.LBE801:
	.loc 1 174 0
	popq	%rbx
	.cfi_def_cfa_offset 48
.LVL415:
	popq	%rbp
	.cfi_def_cfa_offset 40
	popq	%r12
	.cfi_def_cfa_offset 32
.LVL416:
	popq	%r13
	.cfi_def_cfa_offset 24
	popq	%r14
	.cfi_def_cfa_offset 16
	popq	%r15
	.cfi_def_cfa_offset 8
.LBB802:
	.loc 1 153 0
	jmp	compile_set_exp
.LVL417:
	.p2align 4,,10
	.p2align 3
.L209:
	.cfi_restore_state
.LBE802:
.LBB803:
.LBB804:
.LBB805:
	.loc 1 177 0
	movq	16(%rdi), %rdi
	movq	%r12, %rdx
	call	compile_exp
.LVL418:
	.loc 1 178 0
	movq	8(%rbx), %rsi
	movq	%rbp, %rdi
	call	register_const_str
.LVL419:
.LBB806:
.LBB807:
	.loc 1 874 0
	movl	$8, %edi
.LBE807:
.LBE806:
	.loc 1 178 0
	movl	%eax, %ebx
.LVL420:
.LBB810:
.LBB808:
	.loc 1 874 0
	call	malloc
.LVL421:
.LBE808:
.LBE810:
	.loc 1 179 0
	movq	%r12, %rdi
.LBB811:
.LBB809:
	.loc 1 876 0
	movl	%ebx, 4(%rax)
	.loc 1 874 0
	movq	%rax, %rsi
.LVL422:
	.loc 1 875 0
	movl	$5, (%rax)
.LBE809:
.LBE811:
.LBE805:
.LBE804:
	.loc 1 137 0
	movl	$-1, %ebx
.LVL423:
.LBB813:
.LBB812:
	.loc 1 179 0
	call	vector_add
.LVL424:
.LBE812:
.LBE813:
	.loc 1 137 0
	jmp	.L218
.LVL425:
	.p2align 4,,10
	.p2align 3
.L210:
.LBE803:
.LBB814:
.LBB815:
.LBB816:
	.loc 1 184 0
	movq	16(%rdi), %rdi
	movq	%r12, %rdx
	call	compile_exp
.LVL426:
	.loc 1 185 0
	movq	24(%rbx), %rdi
	movq	%r13, %rcx
	movq	%r12, %rdx
	movq	%rbp, %rsi
	call	compile_exp
.LVL427:
	.loc 1 186 0
	movq	8(%rbx), %rsi
	movq	%rbp, %rdi
	call	register_const_str
.LVL428:
.LBB817:
.LBB818:
	.loc 1 881 0
	movl	$8, %edi
.LBE818:
.LBE817:
	.loc 1 186 0
	movl	%eax, %ebx
.LVL429:
.LBB821:
.LBB819:
	.loc 1 881 0
	call	malloc
.LVL430:
.LBE819:
.LBE821:
	.loc 1 187 0
	movq	%r12, %rdi
.LBB822:
.LBB820:
	.loc 1 883 0
	movl	%ebx, 4(%rax)
	.loc 1 881 0
	movq	%rax, %rsi
.LVL431:
	.loc 1 882 0
	movl	$6, (%rax)
.LBE820:
.LBE822:
.LBE816:
.LBE815:
	.loc 1 141 0
	movl	$-1, %ebx
.LVL432:
.LBB824:
.LBB823:
	.loc 1 187 0
	call	vector_add
.LVL433:
.LBE823:
.LBE824:
	.loc 1 141 0
	jmp	.L218
.LVL434:
	.p2align 4,,10
	.p2align 3
.L208:
.LBE814:
	.loc 1 174 0
	addq	$24, %rsp
	.cfi_remember_state
	.cfi_def_cfa_offset 56
.LBB825:
	.loc 1 133 0
	movq	%r12, %rdx
.LBE825:
	.loc 1 174 0
	popq	%rbx
	.cfi_def_cfa_offset 48
.LVL435:
	popq	%rbp
	.cfi_def_cfa_offset 40
	popq	%r12
	.cfi_def_cfa_offset 32
.LVL436:
	popq	%r13
	.cfi_def_cfa_offset 24
	popq	%r14
	.cfi_def_cfa_offset 16
	popq	%r15
	.cfi_def_cfa_offset 8
.LBB826:
	.loc 1 133 0
	jmp	compile_object_exp
.LVL437:
	.p2align 4,,10
	.p2align 3
.L214:
	.cfi_restore_state
.LBE826:
	.loc 1 174 0
	addq	$24, %rsp
	.cfi_remember_state
	.cfi_def_cfa_offset 56
.LBB827:
	.loc 1 157 0
	movq	%r12, %rdx
.LBE827:
	.loc 1 174 0
	popq	%rbx
	.cfi_def_cfa_offset 48
.LVL438:
	popq	%rbp
	.cfi_def_cfa_offset 40
	popq	%r12
	.cfi_def_cfa_offset 32
.LVL439:
	popq	%r13
	.cfi_def_cfa_offset 24
	popq	%r14
	.cfi_def_cfa_offset 16
	popq	%r15
	.cfi_def_cfa_offset 8
.LBB828:
	.loc 1 157 0
	jmp	compile_if_exp
.LVL440:
	.p2align 4,,10
	.p2align 3
.L202:
	.cfi_restore_state
.LBE828:
.LBB829:
.LBB830:
	.loc 2 105 0
	movl	$.LC14, %esi
.LVL441:
	movl	$1, %edi
	xorl	%eax, %eax
	call	__printf_chk
.LVL442:
.LBE830:
.LBE829:
	.loc 1 173 0
	movl	$-1, %ebx
.LVL443:
	jmp	.L218
.LVL444:
	.p2align 4,,10
	.p2align 3
.L224:
.LBB831:
.LBB756:
.LBB754:
.LBB753:
.LBB751:
.LBB752:
	.loc 1 721 0
	movl	$n.3430, %esi
	call	vector_add
.LVL445:
	.loc 1 722 0
	movq	0(%rbp), %rax
	movl	(%rax), %ebx
	subl	$1, %ebx
	jmp	.L225
.LBE752:
.LBE751:
.LBE753:
.LBE754:
.LBE756:
.LBE831:
	.cfi_endproc
.LFE42:
	.size	compile_exp, .-compile_exp
	.p2align 4,,15
	.globl	compile_var_stmt
	.type	compile_var_stmt, @function
compile_var_stmt:
.LFB59:
	.loc 1 406 0
	.cfi_startproc
.LVL446:
	pushq	%r15
	.cfi_def_cfa_offset 16
	.cfi_offset 15, -16
	pushq	%r14
	.cfi_def_cfa_offset 24
	.cfi_offset 14, -24
	movq	%rsi, %r14
	pushq	%r13
	.cfi_def_cfa_offset 32
	.cfi_offset 13, -32
	movq	%rdx, %r13
	pushq	%r12
	.cfi_def_cfa_offset 40
	.cfi_offset 12, -40
	movq	%rdi, %r12
	pushq	%rbp
	.cfi_def_cfa_offset 48
	.cfi_offset 6, -48
	pushq	%rbx
	.cfi_def_cfa_offset 56
	.cfi_offset 3, -56
	movq	%rcx, %rbx
	subq	$24, %rsp
	.cfi_def_cfa_offset 80
	.loc 1 407 0
	movq	16(%rdi), %rdi
.LVL447:
	call	compile_exp
.LVL448:
	.loc 1 408 0
	movq	8(%r12), %rsi
	movq	%rbx, %rdi
	call	register_var_in_scope
.LVL449:
.LBB856:
.LBB857:
.LBB858:
.LBB859:
	.loc 1 620 0
	testq	%rbx, %rbx
.LBE859:
.LBE858:
.LBE857:
.LBE856:
	.loc 1 408 0
	movl	%eax, 12(%rsp)
.LVL450:
	.loc 1 410 0
	movq	8(%r12), %rbp
.LVL451:
.LBB881:
.LBB879:
.LBB867:
.LBB865:
	.loc 1 620 0
	je	.L243
.LVL452:
.L249:
.LBB860:
	.loc 1 624 0
	movq	8(%rbx), %rdi
	xorl	%r15d, %r15d
	movl	(%rdi), %esi
	testl	%esi, %esi
	jg	.L257
	jmp	.L247
.LVL453:
	.p2align 4,,10
	.p2align 3
.L261:
	movq	8(%rbx), %rdi
	addl	$1, %r15d
.LVL454:
	cmpl	(%rdi), %r15d
	jge	.L247
.LVL455:
.L257:
.LBB861:
	.loc 1 625 0
	movl	%r15d, %esi
	call	vector_get
.LVL456:
.LBB862:
	.loc 1 626 0
	movq	(%rax), %rdi
	movq	%rbp, %rsi
	call	strcmp
.LVL457:
.LBE862:
	testl	%eax, %eax
	jne	.L261
.LBE861:
.LBE860:
.LBE865:
.LBE867:
.LBB868:
.LBB869:
	.loc 1 651 0
	movq	root_scope.3422(%rip), %rax
	testq	%rax, %rax
	je	.L262
.LBE869:
.LBE868:
	.loc 1 642 0
	cmpq	%rbx, %rax
	je	.L263
.LVL458:
.L259:
.LBE879:
.LBE881:
.LBB882:
.LBB883:
	.loc 1 797 0
	movl	$8, %edi
	call	malloc
.LVL459:
	.loc 1 799 0
	movl	12(%rsp), %ecx
	.loc 1 798 0
	movl	$9, (%rax)
.LBE883:
.LBE882:
	.loc 1 421 0
	movq	%rax, %rsi
	movq	%r13, %rdi
.LBB885:
.LBB884:
	.loc 1 799 0
	movl	%ecx, 4(%rax)
.LBE884:
.LBE885:
	.loc 1 421 0
	call	vector_add
.LVL460:
.L253:
.LBB886:
.LBB887:
	.loc 1 810 0
	movl	$4, %edi
	call	malloc
.LVL461:
	.loc 1 811 0
	movl	$16, (%rax)
.LBE887:
.LBE886:
	.loc 1 424 0
	addq	$24, %rsp
	.cfi_remember_state
	.cfi_def_cfa_offset 56
	.loc 1 423 0
	movq	%r13, %rdi
	.loc 1 424 0
	popq	%rbx
	.cfi_def_cfa_offset 48
	popq	%rbp
	.cfi_def_cfa_offset 40
	popq	%r12
	.cfi_def_cfa_offset 32
.LVL462:
	popq	%r13
	.cfi_def_cfa_offset 24
.LVL463:
	popq	%r14
	.cfi_def_cfa_offset 16
.LVL464:
	popq	%r15
	.cfi_def_cfa_offset 8
	.loc 1 423 0
	movq	%rax, %rsi
	jmp	vector_add
.LVL465:
	.p2align 4,,10
	.p2align 3
.L247:
	.cfi_restore_state
.LBB888:
.LBB880:
.LBB876:
.LBB866:
	.loc 1 630 0
	movq	16(%rbx), %rbx
	.loc 1 620 0
	testq	%rbx, %rbx
	jne	.L249
.L243:
.LVL466:
.LBB863:
.LBB864:
	.loc 2 105 0
	movl	$1, %edi
	movq	%rbp, %rdx
	movl	$.LC12, %esi
	xorl	%eax, %eax
	call	__printf_chk
.LVL467:
.LBE864:
.LBE863:
	.loc 1 622 0
	movl	$-1, %edi
	call	exit
.LVL468:
	.p2align 4,,10
	.p2align 3
.L262:
.LBE866:
.LBE876:
.LBB877:
.LBB874:
.LBB870:
.LBB871:
	.loc 1 658 0
	movl	$24, %edi
	call	malloc
.LVL469:
	movq	%rax, %rbp
.LVL470:
	.loc 1 659 0
	movl	$1, (%rax)
	.loc 1 660 0
	xorl	%eax, %eax
.LVL471:
	call	make_vector
.LVL472:
	movq	%rax, 8(%rbp)
.LBE871:
.LBE870:
	.loc 1 652 0
	movq	%rbp, %rax
.LBB873:
.LBB872:
	.loc 1 661 0
	movq	$0, 16(%rbp)
.LBE872:
.LBE873:
.LBE874:
.LBE877:
	.loc 1 642 0
	cmpq	%rbx, %rax
.LBB878:
.LBB875:
	.loc 1 652 0
	movq	%rbp, root_scope.3422(%rip)
.LBE875:
.LBE878:
	.loc 1 642 0
	jne	.L259
.LVL473:
.L263:
.LBE880:
.LBE888:
.LBB889:
	.loc 1 414 0
	movq	8(%r12), %rsi
	movq	%r14, %rdi
	call	register_const_str
.LVL474:
	.loc 1 415 0
	movq	8(%r12), %rbp
.LBB890:
.LBB891:
.LBB892:
.LBB893:
	.loc 1 685 0
	movl	$8, %edi
.LBE893:
.LBE892:
.LBE891:
.LBE890:
	.loc 1 414 0
	movl	%eax, %r15d
.LVL475:
.LBB900:
.LBB898:
.LBB896:
.LBB894:
	.loc 1 685 0
	call	malloc
.LVL476:
	.loc 1 687 0
	movq	%r14, %rdi
	.loc 1 686 0
	movl	$4, (%rax)
	.loc 1 685 0
	movq	%rax, %rbx
.LVL477:
	.loc 1 687 0
	movq	%rbp, %rsi
	call	register_const_str
.LVL478:
.LBE894:
.LBE896:
	.loc 1 757 0
	movq	(%r14), %rdi
.LBB897:
.LBB895:
	.loc 1 687 0
	movl	%eax, 4(%rbx)
.LBE895:
.LBE897:
	.loc 1 757 0
	movq	%rbx, %rsi
	call	vector_add
.LVL479:
	.loc 1 758 0
	movq	(%r14), %rax
.LBE898:
.LBE900:
	.loc 1 416 0
	movq	8(%r14), %rdi
.LBB901:
.LBB899:
	.loc 1 758 0
	movl	(%rax), %esi
	subl	$1, %esi
.LBE899:
.LBE901:
	.loc 1 416 0
	movslq	%esi, %rsi
	call	vector_add
.LVL480:
.LBB902:
.LBB903:
	.loc 1 783 0
	movl	$8, %edi
	call	malloc
.LVL481:
.LBE903:
.LBE902:
	.loc 1 417 0
	movq	%r13, %rdi
.LBB905:
.LBB904:
	.loc 1 783 0
	movq	%rax, %rsi
.LVL482:
	.loc 1 784 0
	movl	$11, (%rax)
	.loc 1 785 0
	movl	%r15d, 4(%rax)
.LBE904:
.LBE905:
	.loc 1 417 0
	call	vector_add
.LVL483:
.LBE889:
	jmp	.L253
	.cfi_endproc
.LFE59:
	.size	compile_var_stmt, .-compile_var_stmt
	.section	.rodata.str1.8
	.align 8
.LC15:
	.string	"Unrecognized scope statement with tag %d\n"
	.text
	.p2align 4,,15
	.globl	compile_scopestmt
	.type	compile_scopestmt, @function
compile_scopestmt:
.LFB61:
	.loc 1 459 0
	.cfi_startproc
.LVL484:
	pushq	%r13
	.cfi_def_cfa_offset 16
	.cfi_offset 13, -16
	movq	%rcx, %r13
	pushq	%r12
	.cfi_def_cfa_offset 24
	.cfi_offset 12, -24
	movq	%rsi, %r12
	pushq	%rbp
	.cfi_def_cfa_offset 32
	.cfi_offset 6, -32
	movq	%rdx, %rbp
	pushq	%rbx
	.cfi_def_cfa_offset 40
	.cfi_offset 3, -40
	movq	%rdi, %rbx
	subq	$8, %rsp
	.cfi_def_cfa_offset 48
	.loc 1 460 0
	movl	(%rbx), %edx
.LVL485:
	cmpl	$14, %edx
	je	.L266
.LVL486:
.L276:
	jbe	.L274
	cmpl	$15, %edx
	je	.L269
	cmpl	$16, %edx
	.p2align 4,,5
	jne	.L265
.LVL487:
.LBB914:
	.loc 1 484 0
	movq	8(%rbx), %rdi
.LBE914:
	.loc 1 491 0
	addq	$8, %rsp
	.cfi_remember_state
	.cfi_def_cfa_offset 40
.LBB915:
	.loc 1 484 0
	movq	%rbp, %rdx
.LBE915:
	.loc 1 491 0
	popq	%rbx
	.cfi_def_cfa_offset 32
.LVL488:
	popq	%rbp
	.cfi_def_cfa_offset 24
.LVL489:
.LBB916:
	.loc 1 484 0
	movq	%r12, %rsi
	movq	%r13, %rcx
.LBE916:
	.loc 1 491 0
	popq	%r12
	.cfi_def_cfa_offset 16
.LVL490:
	popq	%r13
	.cfi_def_cfa_offset 8
.LVL491:
.LBB917:
	.loc 1 484 0
	jmp	compile_exp
.LVL492:
	.p2align 4,,10
	.p2align 3
.L269:
	.cfi_restore_state
.LBE917:
.LBB918:
	.loc 1 475 0
	movq	8(%rbx), %rdi
	movq	%r13, %rcx
	movq	%rbp, %rdx
	movq	%r12, %rsi
	call	compile_scopestmt
.LVL493:
	.loc 1 476 0
	movq	8(%rbx), %rax
	cmpl	$16, (%rax)
	je	.L275
.L271:
	.loc 1 479 0
	movq	16(%rbx), %rbx
.LVL494:
.LBE918:
	.loc 1 460 0
	movl	(%rbx), %edx
	cmpl	$14, %edx
	jne	.L276
.L266:
.LVL495:
	.loc 1 491 0
	addq	$8, %rsp
	.cfi_remember_state
	.cfi_def_cfa_offset 40
.LBB923:
	.loc 1 470 0
	movq	%rbx, %rdi
	movq	%rbp, %rdx
.LBE923:
	.loc 1 491 0
	popq	%rbx
	.cfi_def_cfa_offset 32
.LVL496:
	popq	%rbp
	.cfi_def_cfa_offset 24
.LVL497:
.LBB924:
	.loc 1 470 0
	movq	%r12, %rsi
	movq	%r13, %rcx
.LBE924:
	.loc 1 491 0
	popq	%r12
	.cfi_def_cfa_offset 16
.LVL498:
	popq	%r13
	.cfi_def_cfa_offset 8
.LVL499:
.LBB925:
	.loc 1 470 0
	jmp	compile_fn_stmt
.LVL500:
	.p2align 4,,10
	.p2align 3
.L274:
	.cfi_restore_state
.LBE925:
	.loc 1 460 0
	cmpl	$13, %edx
	jne	.L265
.LVL501:
	.loc 1 491 0
	addq	$8, %rsp
	.cfi_remember_state
	.cfi_def_cfa_offset 40
.LBB926:
	.loc 1 463 0
	movq	%rbx, %rdi
	movq	%rbp, %rdx
.LBE926:
	.loc 1 491 0
	popq	%rbx
	.cfi_def_cfa_offset 32
.LVL502:
	popq	%rbp
	.cfi_def_cfa_offset 24
.LVL503:
.LBB927:
	.loc 1 463 0
	movq	%r12, %rsi
	movq	%r13, %rcx
.LBE927:
	.loc 1 491 0
	popq	%r12
	.cfi_def_cfa_offset 16
.LVL504:
	popq	%r13
	.cfi_def_cfa_offset 8
.LVL505:
.LBB928:
	.loc 1 463 0
	jmp	compile_var_stmt
.LVL506:
	.p2align 4,,10
	.p2align 3
.L265:
	.cfi_restore_state
.LBE928:
.LBB929:
.LBB930:
	.loc 2 105 0
	movl	$1, %edi
	movl	$.LC15, %esi
	xorl	%eax, %eax
	call	__printf_chk
.LVL507:
.LBE930:
.LBE929:
	.loc 1 489 0
	movl	$-1, %edi
	call	exit
.LVL508:
	.p2align 4,,10
	.p2align 3
.L275:
.LBB931:
.LBB919:
.LBB920:
	.loc 1 810 0
	movl	$4, %edi
	call	malloc
.LVL509:
.LBE920:
.LBE919:
	.loc 1 477 0
	movq	%rbp, %rdi
.LBB922:
.LBB921:
	.loc 1 811 0
	movl	$16, (%rax)
.LBE921:
.LBE922:
	.loc 1 477 0
	movq	%rax, %rsi
	call	vector_add
.LVL510:
	jmp	.L271
.LBE931:
	.cfi_endproc
.LFE61:
	.size	compile_scopestmt, .-compile_scopestmt
	.p2align 4,,15
	.globl	compile_fn_slot_stmt
	.type	compile_fn_slot_stmt, @function
compile_fn_slot_stmt:
.LFB57:
	.loc 1 346 0
	.cfi_startproc
.LVL511:
	pushq	%r15
	.cfi_def_cfa_offset 16
	.cfi_offset 15, -16
	movq	%rdi, %r15
.LBB954:
.LBB955:
	.loc 1 692 0
	movl	$24, %edi
.LVL512:
.LBE955:
.LBE954:
	.loc 1 346 0
	pushq	%r14
	.cfi_def_cfa_offset 24
	.cfi_offset 14, -24
	movq	%rsi, %r14
	pushq	%r13
	.cfi_def_cfa_offset 32
	.cfi_offset 13, -32
	pushq	%r12
	.cfi_def_cfa_offset 40
	.cfi_offset 12, -40
	pushq	%rbp
	.cfi_def_cfa_offset 48
	.cfi_offset 6, -48
.LBB957:
	.loc 1 357 0
	xorl	%ebp, %ebp
.LBE957:
	.loc 1 346 0
	pushq	%rbx
	.cfi_def_cfa_offset 56
	.cfi_offset 3, -56
	movq	%rcx, %rbx
	subq	$24, %rsp
	.cfi_def_cfa_offset 80
.LBB958:
.LBB956:
	.loc 1 692 0
	call	malloc
.LVL513:
	movq	%rax, %r13
.LVL514:
	.loc 1 694 0
	movl	$3, (%rax)
	.loc 1 695 0
	movl	$-1, 4(%rax)
	.loc 1 697 0
	movl	$0, 8(%rax)
	.loc 1 698 0
	movl	$0, 12(%rax)
	.loc 1 699 0
	xorl	%eax, %eax
.LVL515:
	call	make_vector
.LVL516:
	movq	%rax, 16(%r13)
.LBE956:
.LBE958:
	.loc 1 349 0
	movl	16(%r15), %eax
	.loc 1 353 0
	movq	%rbx, %rdi
	movq	8(%r15), %rsi
	.loc 1 349 0
	addl	$1, %eax
	movl	%eax, 8(%r13)
	.loc 1 353 0
	call	register_var_in_scope
.LVL517:
.LBB959:
.LBB960:
	.loc 1 658 0
	movl	$24, %edi
	call	malloc
.LVL518:
	movq	%rax, %r12
.LVL519:
	.loc 1 659 0
	movl	$1, (%rax)
	.loc 1 660 0
	xorl	%eax, %eax
.LVL520:
	call	make_vector
.LVL521:
.LBE960:
.LBE959:
	.loc 1 356 0
	movl	$.LC9, %esi
	movq	%r12, %rdi
.LBB962:
.LBB961:
	.loc 1 660 0
	movq	%rax, 8(%r12)
	.loc 1 661 0
	movq	%rbx, 16(%r12)
.LBE961:
.LBE962:
	.loc 1 356 0
	call	register_var_in_scope
.LVL522:
.LBB963:
	.loc 1 357 0
	movl	16(%r15), %r9d
	testl	%r9d, %r9d
	jle	.L281
.LVL523:
	.p2align 4,,10
	.p2align 3
.L296:
	.loc 1 358 0 discriminator 2
	movq	24(%r15), %rax
	movq	%r12, %rdi
	movq	(%rax,%rbp,8), %rsi
	call	register_var_in_scope
.LVL524:
	leal	1(%rbp), %eax
.LVL525:
	addq	$1, %rbp
	.loc 1 357 0 discriminator 2
	cmpl	%eax, 16(%r15)
	jg	.L296
.LVL526:
.L281:
.LBE963:
	.loc 1 360 0
	movq	16(%r13), %rdx
	movq	32(%r15), %rdi
	movq	%r12, %rcx
	movq	%r14, %rsi
	call	compile_scopestmt
.LVL527:
	.loc 1 362 0
	movq	8(%r15), %rsi
	movq	%r14, %rdi
	call	register_const_str
.LVL528:
	.loc 1 365 0
	movq	16(%r13), %rdi
	.loc 1 362 0
	movl	%eax, 4(%r13)
	.loc 1 364 0
	movl	(%rdi), %eax
	leal	-1(%rax), %esi
	call	vector_get
.LVL529:
	.loc 1 366 0
	cmpl	$16, (%rax)
	je	.L301
.LVL530:
.L280:
.LBB964:
.LBB965:
	.loc 1 804 0
	movl	$4, %edi
	call	malloc
.LVL531:
.LBE965:
.LBE964:
	.loc 1 370 0
	movq	16(%r13), %rdi
	movq	%rax, %rsi
.LBB967:
.LBB966:
	.loc 1 805 0
	movl	$15, (%rax)
.LBE966:
.LBE967:
	.loc 1 370 0
	call	vector_add
.LVL532:
.LBB968:
.LBB969:
	.loc 1 762 0
	movq	(%r14), %rdi
	movq	%r13, %rsi
	call	vector_add
.LVL533:
	.loc 1 763 0
	movq	(%r14), %rax
.LBE969:
.LBE968:
	.loc 1 374 0
	movq	8(%r15), %rbp
.LBB972:
.LBB970:
	.loc 1 763 0
	movl	(%rax), %eax
	subl	$1, %eax
.LBE970:
.LBE972:
.LBB973:
.LBB974:
.LBB975:
.LBB976:
	.loc 1 620 0
	testq	%rbx, %rbx
.LBE976:
.LBE975:
.LBE974:
.LBE973:
.LBB999:
.LBB971:
	.loc 1 763 0
	movl	%eax, 12(%rsp)
.LVL534:
.LBE971:
.LBE999:
.LBB1000:
.LBB996:
.LBB984:
.LBB982:
	.loc 1 620 0
	je	.L283
.LVL535:
.L289:
.LBB977:
	.loc 1 624 0
	movq	8(%rbx), %rdi
	xorl	%r15d, %r15d
	movl	(%rdi), %r8d
	testl	%r8d, %r8d
	jg	.L297
	jmp	.L287
.LVL536:
	.p2align 4,,10
	.p2align 3
.L302:
	movq	8(%rbx), %rdi
	addl	$1, %r15d
.LVL537:
	cmpl	(%rdi), %r15d
	jge	.L287
.LVL538:
.L297:
.LBB978:
	.loc 1 625 0
	movl	%r15d, %esi
	call	vector_get
.LVL539:
.LBB979:
	.loc 1 626 0
	movq	(%rax), %rdi
	movq	%rbp, %rsi
	call	strcmp
.LVL540:
.LBE979:
	testl	%eax, %eax
	jne	.L302
.LBE978:
.LBE977:
.LBE982:
.LBE984:
.LBB985:
.LBB986:
	.loc 1 651 0
	movq	root_scope.3422(%rip), %rax
	testq	%rax, %rax
	je	.L303
.LBE986:
.LBE985:
	.loc 1 642 0
	cmpq	%rbx, %rax
	je	.L304
.LVL541:
.L292:
.LBE996:
.LBE1000:
	.loc 1 379 0
	movq	8(%r12), %rax
	movl	(%rax), %eax
	subl	8(%r13), %eax
	movl	%eax, 12(%r13)
	.loc 1 381 0
	movl	12(%rsp), %eax
	addq	$24, %rsp
	.cfi_remember_state
	.cfi_def_cfa_offset 56
	popq	%rbx
	.cfi_def_cfa_offset 48
	popq	%rbp
	.cfi_def_cfa_offset 40
	popq	%r12
	.cfi_def_cfa_offset 32
.LVL542:
	popq	%r13
	.cfi_def_cfa_offset 24
.LVL543:
	popq	%r14
	.cfi_def_cfa_offset 16
.LVL544:
	popq	%r15
	.cfi_def_cfa_offset 8
.LVL545:
	ret
.LVL546:
	.p2align 4,,10
	.p2align 3
.L287:
	.cfi_restore_state
.LBB1001:
.LBB997:
.LBB993:
.LBB983:
	.loc 1 630 0
	movq	16(%rbx), %rbx
	.loc 1 620 0
	testq	%rbx, %rbx
	jne	.L289
.L283:
.LVL547:
.LBB980:
.LBB981:
	.loc 2 105 0
	movl	$1, %edi
	movq	%rbp, %rdx
	movl	$.LC12, %esi
	xorl	%eax, %eax
	call	__printf_chk
.LVL548:
.LBE981:
.LBE980:
	.loc 1 622 0
	movl	$-1, %edi
	call	exit
.LVL549:
	.p2align 4,,10
	.p2align 3
.L301:
.LBE983:
.LBE993:
.LBE997:
.LBE1001:
	.loc 1 367 0
	movq	16(%r13), %rdi
	call	vector_pop
.LVL550:
	jmp	.L280
.LVL551:
.L303:
.LBB1002:
.LBB998:
.LBB994:
.LBB991:
.LBB987:
.LBB988:
	.loc 1 658 0
	movl	$24, %edi
	call	malloc
.LVL552:
	movq	%rax, %rbp
.LVL553:
	.loc 1 659 0
	movl	$1, (%rax)
	.loc 1 660 0
	xorl	%eax, %eax
.LVL554:
	call	make_vector
.LVL555:
	movq	%rax, 8(%rbp)
.LBE988:
.LBE987:
	.loc 1 652 0
	movq	%rbp, %rax
.LBB990:
.LBB989:
	.loc 1 661 0
	movq	$0, 16(%rbp)
.LBE989:
.LBE990:
.LBE991:
.LBE994:
	.loc 1 642 0
	cmpq	%rbx, %rax
.LBB995:
.LBB992:
	.loc 1 652 0
	movq	%rbp, root_scope.3422(%rip)
.LBE992:
.LBE995:
	.loc 1 642 0
	jne	.L292
.LVL556:
.L304:
.LBE998:
.LBE1002:
	.loc 1 375 0
	movslq	12(%rsp), %rsi
	movq	8(%r14), %rdi
	call	vector_add
.LVL557:
	jmp	.L292
	.cfi_endproc
.LFE57:
	.size	compile_fn_slot_stmt, .-compile_fn_slot_stmt
	.p2align 4,,15
	.globl	compile_fn_stmt
	.type	compile_fn_stmt, @function
compile_fn_stmt:
.LFB60:
	.loc 1 426 0
	.cfi_startproc
.LVL558:
	pushq	%r15
	.cfi_def_cfa_offset 16
	.cfi_offset 15, -16
	movq	%rdi, %r15
.LBB1025:
.LBB1026:
	.loc 1 692 0
	movl	$24, %edi
.LVL559:
.LBE1026:
.LBE1025:
	.loc 1 426 0
	pushq	%r14
	.cfi_def_cfa_offset 24
	.cfi_offset 14, -24
	movq	%rsi, %r14
	pushq	%r13
	.cfi_def_cfa_offset 32
	.cfi_offset 13, -32
	pushq	%r12
	.cfi_def_cfa_offset 40
	.cfi_offset 12, -40
	pushq	%rbp
	.cfi_def_cfa_offset 48
	.cfi_offset 6, -48
.LBB1029:
	.loc 1 434 0
	xorl	%ebp, %ebp
.LBE1029:
	.loc 1 426 0
	pushq	%rbx
	.cfi_def_cfa_offset 56
	.cfi_offset 3, -56
	movq	%rcx, %rbx
	subq	$24, %rsp
	.cfi_def_cfa_offset 80
.LBB1030:
.LBB1027:
	.loc 1 692 0
	call	malloc
.LVL560:
	movq	%rax, %r13
.LVL561:
	.loc 1 694 0
	movl	$3, (%rax)
	.loc 1 695 0
	movl	$-1, 4(%rax)
	.loc 1 697 0
	movl	$0, 8(%rax)
	.loc 1 698 0
	movl	$0, 12(%rax)
	.loc 1 699 0
	xorl	%eax, %eax
.LVL562:
	call	make_vector
.LVL563:
.LBE1027:
.LBE1030:
	.loc 1 432 0
	movq	8(%r15), %rsi
.LBB1031:
.LBB1028:
	.loc 1 699 0
	movq	%rax, 16(%r13)
.LBE1028:
.LBE1031:
	.loc 1 432 0
	movq	%rbx, %rdi
	.loc 1 428 0
	movl	16(%r15), %eax
	movl	%eax, 8(%r13)
	.loc 1 432 0
	call	register_var_in_scope
.LVL564:
.LBB1032:
.LBB1033:
	.loc 1 658 0
	movl	$24, %edi
	call	malloc
.LVL565:
	movq	%rax, %r12
.LVL566:
	.loc 1 659 0
	movl	$1, (%rax)
	.loc 1 660 0
	xorl	%eax, %eax
.LVL567:
	call	make_vector
.LVL568:
.LBE1033:
.LBE1032:
.LBB1035:
	.loc 1 434 0
	movl	16(%r15), %r11d
.LBE1035:
.LBB1036:
.LBB1034:
	.loc 1 660 0
	movq	%rax, 8(%r12)
	.loc 1 661 0
	movq	%rbx, 16(%r12)
.LVL569:
.LBE1034:
.LBE1036:
.LBB1037:
	.loc 1 434 0
	testl	%r11d, %r11d
	jle	.L309
.LVL570:
	.p2align 4,,10
	.p2align 3
.L324:
	.loc 1 435 0 discriminator 2
	movq	24(%r15), %rax
	movq	%r12, %rdi
	movq	(%rax,%rbp,8), %rsi
	call	register_var_in_scope
.LVL571:
	leal	1(%rbp), %eax
.LVL572:
	addq	$1, %rbp
	.loc 1 434 0 discriminator 2
	cmpl	%eax, 16(%r15)
	jg	.L324
.LVL573:
.L309:
.LBE1037:
	.loc 1 437 0
	movq	16(%r13), %rdx
	movq	32(%r15), %rdi
	movq	%r12, %rcx
	movq	%r14, %rsi
	call	compile_scopestmt
.LVL574:
	.loc 1 439 0
	movq	8(%r15), %rsi
	movq	%r14, %rdi
	call	register_const_str
.LVL575:
	.loc 1 442 0
	movq	16(%r13), %rdi
	.loc 1 439 0
	movl	%eax, 4(%r13)
	.loc 1 441 0
	movl	(%rdi), %eax
	leal	-1(%rax), %esi
	call	vector_get
.LVL576:
	.loc 1 443 0
	cmpl	$16, (%rax)
	je	.L329
.LVL577:
.L308:
.LBB1038:
.LBB1039:
	.loc 1 804 0
	movl	$4, %edi
	call	malloc
.LVL578:
.LBE1039:
.LBE1038:
	.loc 1 447 0
	movq	16(%r13), %rdi
	movq	%rax, %rsi
.LBB1041:
.LBB1040:
	.loc 1 805 0
	movl	$15, (%rax)
.LBE1040:
.LBE1041:
	.loc 1 447 0
	call	vector_add
.LVL579:
.LBB1042:
.LBB1043:
	.loc 1 762 0
	movq	(%r14), %rdi
	movq	%r13, %rsi
	call	vector_add
.LVL580:
	.loc 1 763 0
	movq	(%r14), %rax
.LBE1043:
.LBE1042:
.LBB1047:
.LBB1048:
.LBB1049:
.LBB1050:
	.loc 1 620 0
	testq	%rbx, %rbx
.LBE1050:
.LBE1049:
.LBE1048:
.LBE1047:
	.loc 1 451 0
	movq	8(%r15), %rbp
.LBB1073:
.LBB1044:
	.loc 1 763 0
	movl	(%rax), %eax
	movl	%eax, 12(%rsp)
.LVL581:
.LBE1044:
.LBE1073:
.LBB1074:
.LBB1070:
.LBB1058:
.LBB1056:
	.loc 1 620 0
	je	.L311
.LVL582:
.L317:
.LBB1051:
	.loc 1 624 0
	movq	8(%rbx), %rdi
	xorl	%r15d, %r15d
	movl	(%rdi), %r10d
	testl	%r10d, %r10d
	jg	.L325
	jmp	.L315
.LVL583:
	.p2align 4,,10
	.p2align 3
.L330:
	movq	8(%rbx), %rdi
	addl	$1, %r15d
.LVL584:
	cmpl	(%rdi), %r15d
	jge	.L315
.LVL585:
.L325:
.LBB1052:
	.loc 1 625 0
	movl	%r15d, %esi
	call	vector_get
.LVL586:
.LBB1053:
	.loc 1 626 0
	movq	(%rax), %rdi
	movq	%rbp, %rsi
	call	strcmp
.LVL587:
.LBE1053:
	testl	%eax, %eax
	jne	.L330
.LBE1052:
.LBE1051:
.LBE1056:
.LBE1058:
.LBB1059:
.LBB1060:
	.loc 1 651 0
	movq	root_scope.3422(%rip), %rax
	testq	%rax, %rax
	je	.L331
.LBE1060:
.LBE1059:
	.loc 1 642 0
	cmpq	%rbx, %rax
	je	.L319
.LVL588:
.L320:
.LBE1070:
.LBE1074:
	.loc 1 456 0
	movq	8(%r12), %rax
	movl	(%rax), %eax
	subl	8(%r13), %eax
	movl	%eax, 12(%r13)
	.loc 1 457 0
	addq	$24, %rsp
	.cfi_remember_state
	.cfi_def_cfa_offset 56
	popq	%rbx
	.cfi_def_cfa_offset 48
	popq	%rbp
	.cfi_def_cfa_offset 40
	popq	%r12
	.cfi_def_cfa_offset 32
.LVL589:
	popq	%r13
	.cfi_def_cfa_offset 24
.LVL590:
	popq	%r14
	.cfi_def_cfa_offset 16
.LVL591:
	popq	%r15
	.cfi_def_cfa_offset 8
.LVL592:
	ret
.LVL593:
	.p2align 4,,10
	.p2align 3
.L315:
	.cfi_restore_state
.LBB1075:
.LBB1071:
.LBB1067:
.LBB1057:
	.loc 1 630 0
	movq	16(%rbx), %rbx
	.loc 1 620 0
	testq	%rbx, %rbx
	jne	.L317
.L311:
.LVL594:
.LBB1054:
.LBB1055:
	.loc 2 105 0
	movl	$1, %edi
	movq	%rbp, %rdx
	movl	$.LC12, %esi
	xorl	%eax, %eax
	call	__printf_chk
.LVL595:
.LBE1055:
.LBE1054:
	.loc 1 622 0
	movl	$-1, %edi
	call	exit
.LVL596:
	.p2align 4,,10
	.p2align 3
.L329:
.LBE1057:
.LBE1067:
.LBE1071:
.LBE1075:
	.loc 1 444 0
	movq	16(%r13), %rdi
	call	vector_pop
.LVL597:
	jmp	.L308
.LVL598:
.L331:
.LBB1076:
.LBB1072:
.LBB1068:
.LBB1065:
.LBB1061:
.LBB1062:
	.loc 1 658 0
	movl	$24, %edi
	call	malloc
.LVL599:
	movq	%rax, %rbp
.LVL600:
	.loc 1 659 0
	movl	$1, (%rax)
	.loc 1 660 0
	xorl	%eax, %eax
.LVL601:
	call	make_vector
.LVL602:
	movq	%rax, 8(%rbp)
.LBE1062:
.LBE1061:
	.loc 1 652 0
	movq	%rbp, %rax
.LBB1064:
.LBB1063:
	.loc 1 661 0
	movq	$0, 16(%rbp)
.LBE1063:
.LBE1064:
.LBE1065:
.LBE1068:
	.loc 1 642 0
	cmpq	%rbx, %rax
.LBB1069:
.LBB1066:
	.loc 1 652 0
	movq	%rbp, root_scope.3422(%rip)
.LBE1066:
.LBE1069:
	.loc 1 642 0
	jne	.L320
.LVL603:
.L319:
.LBE1072:
.LBE1076:
.LBB1077:
.LBB1045:
	.loc 1 763 0
	movl	12(%rsp), %esi
.LBE1045:
.LBE1077:
	.loc 1 452 0
	movq	8(%r14), %rdi
.LBB1078:
.LBB1046:
	.loc 1 763 0
	subl	$1, %esi
.LBE1046:
.LBE1078:
	.loc 1 452 0
	movslq	%esi, %rsi
	call	vector_add
.LVL604:
	jmp	.L320
	.cfi_endproc
.LFE60:
	.size	compile_fn_stmt, .-compile_fn_stmt
	.p2align 4,,15
	.globl	compile_slot_exp
	.type	compile_slot_exp, @function
compile_slot_exp:
.LFB43:
	.loc 1 176 0
	.cfi_startproc
.LVL605:
	pushq	%r12
	.cfi_def_cfa_offset 16
	.cfi_offset 12, -16
	movq	%rdi, %r12
	pushq	%rbp
	.cfi_def_cfa_offset 24
	.cfi_offset 6, -24
	movq	%rsi, %rbp
	pushq	%rbx
	.cfi_def_cfa_offset 32
	.cfi_offset 3, -32
	.loc 1 177 0
	movq	16(%rdi), %rdi
.LVL606:
	.loc 1 176 0
	movq	%rdx, %rbx
	.loc 1 177 0
	call	compile_exp
.LVL607:
	.loc 1 178 0
	movq	8(%r12), %rsi
	movq	%rbp, %rdi
	call	register_const_str
.LVL608:
.LBB1081:
.LBB1082:
	.loc 1 874 0
	movl	$8, %edi
.LBE1082:
.LBE1081:
	.loc 1 178 0
	movl	%eax, %ebp
.LVL609:
.LBB1085:
.LBB1083:
	.loc 1 874 0
	call	malloc
.LVL610:
.LBE1083:
.LBE1085:
	.loc 1 179 0
	movq	%rbx, %rdi
.LBB1086:
.LBB1084:
	.loc 1 876 0
	movl	%ebp, 4(%rax)
	.loc 1 874 0
	movq	%rax, %rsi
.LVL611:
	.loc 1 875 0
	movl	$5, (%rax)
.LBE1084:
.LBE1086:
	.loc 1 179 0
	call	vector_add
.LVL612:
	.loc 1 181 0
	popq	%rbx
	.cfi_def_cfa_offset 24
.LVL613:
	popq	%rbp
	.cfi_def_cfa_offset 16
.LVL614:
	movl	$-1, %eax
	popq	%r12
	.cfi_def_cfa_offset 8
.LVL615:
	ret
	.cfi_endproc
.LFE43:
	.size	compile_slot_exp, .-compile_slot_exp
	.p2align 4,,15
	.globl	compile_set_slot_exp
	.type	compile_set_slot_exp, @function
compile_set_slot_exp:
.LFB44:
	.loc 1 183 0
	.cfi_startproc
.LVL616:
	pushq	%r13
	.cfi_def_cfa_offset 16
	.cfi_offset 13, -16
	movq	%rcx, %r13
	pushq	%r12
	.cfi_def_cfa_offset 24
	.cfi_offset 12, -24
	movq	%rdi, %r12
	pushq	%rbp
	.cfi_def_cfa_offset 32
	.cfi_offset 6, -32
	movq	%rsi, %rbp
	pushq	%rbx
	.cfi_def_cfa_offset 40
	.cfi_offset 3, -40
	movq	%rdx, %rbx
	subq	$8, %rsp
	.cfi_def_cfa_offset 48
	.loc 1 184 0
	movq	16(%rdi), %rdi
.LVL617:
	call	compile_exp
.LVL618:
	.loc 1 185 0
	movq	24(%r12), %rdi
	movq	%r13, %rcx
	movq	%rbx, %rdx
	movq	%rbp, %rsi
	call	compile_exp
.LVL619:
	.loc 1 186 0
	movq	8(%r12), %rsi
	movq	%rbp, %rdi
	call	register_const_str
.LVL620:
.LBB1089:
.LBB1090:
	.loc 1 881 0
	movl	$8, %edi
.LBE1090:
.LBE1089:
	.loc 1 186 0
	movl	%eax, %ebp
.LVL621:
.LBB1093:
.LBB1091:
	.loc 1 881 0
	call	malloc
.LVL622:
.LBE1091:
.LBE1093:
	.loc 1 187 0
	movq	%rbx, %rdi
.LBB1094:
.LBB1092:
	.loc 1 883 0
	movl	%ebp, 4(%rax)
	.loc 1 881 0
	movq	%rax, %rsi
.LVL623:
	.loc 1 882 0
	movl	$6, (%rax)
.LBE1092:
.LBE1094:
	.loc 1 187 0
	call	vector_add
.LVL624:
	.loc 1 189 0
	addq	$8, %rsp
	.cfi_def_cfa_offset 40
	movl	$-1, %eax
	popq	%rbx
	.cfi_def_cfa_offset 32
.LVL625:
	popq	%rbp
	.cfi_def_cfa_offset 24
.LVL626:
	popq	%r12
	.cfi_def_cfa_offset 16
.LVL627:
	popq	%r13
	.cfi_def_cfa_offset 8
.LVL628:
	ret
	.cfi_endproc
.LFE44:
	.size	compile_set_slot_exp, .-compile_set_slot_exp
	.p2align 4,,15
	.globl	compile_array_exp
	.type	compile_array_exp, @function
compile_array_exp:
.LFB46:
	.loc 1 206 0
	.cfi_startproc
.LVL629:
	pushq	%r13
	.cfi_def_cfa_offset 16
	.cfi_offset 13, -16
	movq	%rdi, %r13
	pushq	%r12
	.cfi_def_cfa_offset 24
	.cfi_offset 12, -24
	movq	%rcx, %r12
	pushq	%rbp
	.cfi_def_cfa_offset 32
	.cfi_offset 6, -32
	movq	%rsi, %rbp
	pushq	%rbx
	.cfi_def_cfa_offset 40
	.cfi_offset 3, -40
	movq	%rdx, %rbx
	subq	$8, %rsp
	.cfi_def_cfa_offset 48
	.loc 1 207 0
	movq	8(%rdi), %rdi
.LVL630:
	call	compile_exp
.LVL631:
	.loc 1 208 0
	movq	16(%r13), %rdi
	movq	%r12, %rcx
	movq	%rbx, %rdx
	movq	%rbp, %rsi
	call	compile_exp
.LVL632:
.LBB1097:
.LBB1098:
	.loc 1 816 0
	movl	$4, %edi
	call	malloc
.LVL633:
.LBE1098:
.LBE1097:
	.loc 1 209 0
	movq	%rbx, %rdi
.LBB1100:
.LBB1099:
	.loc 1 817 0
	movl	$3, (%rax)
.LBE1099:
.LBE1100:
	.loc 1 209 0
	movq	%rax, %rsi
	call	vector_add
.LVL634:
	.loc 1 211 0
	addq	$8, %rsp
	.cfi_def_cfa_offset 40
	movl	$-1, %eax
	popq	%rbx
	.cfi_def_cfa_offset 32
.LVL635:
	popq	%rbp
	.cfi_def_cfa_offset 24
.LVL636:
	popq	%r12
	.cfi_def_cfa_offset 16
.LVL637:
	popq	%r13
	.cfi_def_cfa_offset 8
.LVL638:
	ret
	.cfi_endproc
.LFE46:
	.size	compile_array_exp, .-compile_array_exp
	.p2align 4,,15
	.globl	compile_while_exp
	.type	compile_while_exp, @function
compile_while_exp:
.LFB47:
	.loc 1 213 0
	.cfi_startproc
.LVL639:
	pushq	%r15
	.cfi_def_cfa_offset 16
	.cfi_offset 15, -16
	pushq	%r14
	.cfi_def_cfa_offset 24
	.cfi_offset 14, -24
	movq	%rdi, %r14
.LBB1140:
.LBB1141:
.LBB1142:
.LBB1143:
	.loc 1 546 0
	movl	$12, %edi
.LVL640:
.LBE1143:
.LBE1142:
.LBE1141:
.LBE1140:
	.loc 1 213 0
	pushq	%r13
	.cfi_def_cfa_offset 32
	.cfi_offset 13, -32
	movq	%rdx, %r13
	pushq	%r12
	.cfi_def_cfa_offset 40
	.cfi_offset 12, -40
	pushq	%rbp
	.cfi_def_cfa_offset 48
	.cfi_offset 6, -48
	movq	%rsi, %rbp
	pushq	%rbx
	.cfi_def_cfa_offset 56
	.cfi_offset 3, -56
	subq	$24, %rsp
	.cfi_def_cfa_offset 80
.LBB1156:
.LBB1154:
.LBB1149:
.LBB1150:
	.loc 1 553 0
	movl	cur_entry_id.3341(%rip), %r12d
.LBE1150:
.LBE1149:
.LBE1154:
.LBE1156:
	.loc 1 213 0
	movq	%rcx, 8(%rsp)
.LBB1157:
.LBB1155:
.LBB1152:
.LBB1151:
	.loc 1 553 0
	leal	1(%r12), %eax
	movl	%eax, cur_entry_id.3341(%rip)
.LVL641:
.LBE1151:
.LBE1152:
.LBB1153:
.LBB1148:
	.loc 1 546 0
	call	malloc
.LVL642:
.LBB1144:
.LBB1145:
	.loc 2 34 0
	movl	%r12d, %r9d
	movl	$.LC1, %r8d
	movl	$.LC2, %ecx
	movl	$12, %edx
.LBE1145:
.LBE1144:
	.loc 1 546 0
	movq	%rax, %rbx
.LVL643:
.LBB1147:
.LBB1146:
	.loc 2 34 0
	movq	%rax, %rdi
	movl	$1, %esi
	xorl	%eax, %eax
.LVL644:
	call	__sprintf_chk
.LVL645:
.LBE1146:
.LBE1147:
.LBE1148:
.LBE1153:
.LBE1155:
.LBE1157:
	.loc 1 214 0
	movq	%rbx, %rsi
	movq	%rbp, %rdi
	call	register_const_str
.LVL646:
.LBB1158:
.LBB1159:
.LBB1160:
.LBB1161:
	.loc 1 553 0
	movl	cur_entry_id.3341(%rip), %r12d
.LVL647:
.LBE1161:
.LBE1160:
.LBE1159:
.LBE1158:
	.loc 1 214 0
	movl	%eax, %r15d
.LVL648:
.LBB1173:
.LBB1172:
.LBB1163:
.LBB1164:
	.loc 1 546 0
	movl	$12, %edi
.LBE1164:
.LBE1163:
.LBB1170:
.LBB1162:
	.loc 1 553 0
	leal	1(%r12), %eax
.LVL649:
	movl	%eax, cur_entry_id.3341(%rip)
.LVL650:
.LBE1162:
.LBE1170:
.LBB1171:
.LBB1169:
	.loc 1 546 0
	call	malloc
.LVL651:
.LBB1165:
.LBB1166:
	.loc 2 34 0
	movl	%r12d, %r9d
	movl	$.LC3, %r8d
	movl	$.LC2, %ecx
	movl	$12, %edx
.LBE1166:
.LBE1165:
	.loc 1 546 0
	movq	%rax, %rbx
.LVL652:
.LBB1168:
.LBB1167:
	.loc 2 34 0
	movq	%rax, %rdi
	movl	$1, %esi
	xorl	%eax, %eax
.LVL653:
	call	__sprintf_chk
.LVL654:
.LBE1167:
.LBE1168:
.LBE1169:
.LBE1171:
.LBE1172:
.LBE1173:
	.loc 1 215 0
	movq	%rbx, %rsi
	movq	%rbp, %rdi
	call	register_const_str
.LVL655:
.LBB1174:
.LBB1175:
	.loc 1 867 0
	movl	$8, %edi
.LBE1175:
.LBE1174:
	.loc 1 215 0
	movl	%eax, %r12d
.LVL656:
.LBB1178:
.LBB1176:
	.loc 1 867 0
	call	malloc
.LVL657:
.LBE1176:
.LBE1178:
	.loc 1 217 0
	movq	%r13, %rdi
	movq	%rax, %rsi
.LBB1179:
.LBB1177:
	.loc 1 868 0
	movl	$14, (%rax)
	.loc 1 869 0
	movl	%r15d, 4(%rax)
.LBE1177:
.LBE1179:
	.loc 1 217 0
	call	vector_add
.LVL658:
.LBB1180:
.LBB1181:
	.loc 1 853 0
	movl	$8, %edi
	call	malloc
.LVL659:
.LBE1181:
.LBE1180:
	.loc 1 219 0
	movq	%r13, %rdi
	movq	%rax, %rsi
.LBB1183:
.LBB1182:
	.loc 1 855 0
	movl	%r12d, 4(%rax)
	.loc 1 854 0
	movl	$0, (%rax)
.LBE1182:
.LBE1183:
	.loc 1 219 0
	call	vector_add
.LVL660:
.LBB1184:
.LBB1185:
	.loc 1 658 0
	movl	$24, %edi
	call	malloc
.LVL661:
	movq	%rax, %rbx
.LVL662:
	.loc 1 659 0
	movl	$0, (%rax)
	.loc 1 660 0
	xorl	%eax, %eax
.LVL663:
	call	make_vector
.LVL664:
	movq	%rax, 8(%rbx)
	.loc 1 661 0
	movq	8(%rsp), %rax
.LBE1185:
.LBE1184:
	.loc 1 221 0
	movq	%rbx, %rcx
	movq	16(%r14), %rdi
	movq	%r13, %rdx
	movq	%rbp, %rsi
.LBB1187:
.LBB1186:
	.loc 1 661 0
	movq	%rax, 16(%rbx)
.LBE1186:
.LBE1187:
	.loc 1 221 0
	call	compile_scopestmt
.LVL665:
.LBB1188:
.LBB1189:
	.loc 1 810 0
	movl	$4, %edi
	call	malloc
.LVL666:
.LBE1189:
.LBE1188:
	.loc 1 223 0
	movq	%r13, %rdi
	movq	%rax, %rsi
.LBB1191:
.LBB1190:
	.loc 1 811 0
	movl	$16, (%rax)
.LBE1190:
.LBE1191:
	.loc 1 223 0
	call	vector_add
.LVL667:
.LBB1192:
.LBB1193:
	.loc 1 853 0
	movl	$8, %edi
	call	malloc
.LVL668:
.LBE1193:
.LBE1192:
	.loc 1 225 0
	movq	%r13, %rdi
	movq	%rax, %rsi
.LBB1195:
.LBB1194:
	.loc 1 854 0
	movl	$0, (%rax)
	.loc 1 855 0
	movl	%r15d, 4(%rax)
.LBE1194:
.LBE1195:
	.loc 1 225 0
	call	vector_add
.LVL669:
	.loc 1 227 0
	movq	8(%rsp), %rcx
	movq	8(%r14), %rdi
	movq	%r13, %rdx
	movq	%rbp, %rsi
	call	compile_exp
.LVL670:
.LBB1196:
.LBB1197:
	.loc 1 860 0
	movl	$8, %edi
	call	malloc
.LVL671:
.LBE1197:
.LBE1196:
	.loc 1 229 0
	movq	%r13, %rdi
.LBB1199:
.LBB1198:
	.loc 1 862 0
	movl	%r12d, 4(%rax)
	.loc 1 860 0
	movq	%rax, %rsi
.LVL672:
	.loc 1 861 0
	movl	$13, (%rax)
.LBE1198:
.LBE1199:
	.loc 1 229 0
	call	vector_add
.LVL673:
.LBB1200:
.LBB1201:
	.loc 1 713 0
	movq	0(%rbp), %rdi
	movl	(%rdi), %r12d
.LVL674:
.LBB1202:
	.loc 1 714 0
	testl	%r12d, %r12d
	jle	.L339
	xorl	%ebx, %ebx
.LVL675:
	jmp	.L342
.LVL676:
	.p2align 4,,10
	.p2align 3
.L345:
	addl	$1, %ebx
.LVL677:
	movq	0(%rbp), %rdi
	cmpl	%r12d, %ebx
	je	.L339
.LVL678:
.L342:
.LBB1203:
	.loc 1 715 0
	movl	%ebx, %esi
	call	vector_get
.LVL679:
	.loc 1 716 0
	cmpl	$1, (%rax)
	jne	.L345
.LVL680:
.L340:
.LBE1203:
.LBE1202:
.LBE1201:
.LBE1200:
.LBB1207:
.LBB1208:
	.loc 1 822 0
	movl	$8, %edi
	call	malloc
.LVL681:
.LBE1208:
.LBE1207:
	.loc 1 232 0
	movq	%r13, %rdi
.LBB1210:
.LBB1209:
	.loc 1 824 0
	movl	%ebx, 4(%rax)
	.loc 1 823 0
	movl	$1, (%rax)
.LBE1209:
.LBE1210:
	.loc 1 232 0
	movq	%rax, %rsi
	call	vector_add
.LVL682:
	.loc 1 234 0
	addq	$24, %rsp
	.cfi_remember_state
	.cfi_def_cfa_offset 56
	movl	$-1, %eax
	popq	%rbx
	.cfi_def_cfa_offset 48
	popq	%rbp
	.cfi_def_cfa_offset 40
.LVL683:
	popq	%r12
	.cfi_def_cfa_offset 32
.LVL684:
	popq	%r13
	.cfi_def_cfa_offset 24
.LVL685:
	popq	%r14
	.cfi_def_cfa_offset 16
.LVL686:
	popq	%r15
	.cfi_def_cfa_offset 8
.LVL687:
	ret
.LVL688:
	.p2align 4,,10
	.p2align 3
.L339:
	.cfi_restore_state
.LBB1211:
.LBB1206:
.LBB1204:
.LBB1205:
	.loc 1 721 0
	movl	$n.3430, %esi
	call	vector_add
.LVL689:
	.loc 1 722 0
	movq	0(%rbp), %rax
	movl	(%rax), %ebx
	subl	$1, %ebx
	jmp	.L340
.LBE1205:
.LBE1204:
.LBE1206:
.LBE1211:
	.cfi_endproc
.LFE47:
	.size	compile_while_exp, .-compile_while_exp
	.p2align 4,,15
	.globl	compile_if_exp
	.type	compile_if_exp, @function
compile_if_exp:
.LFB48:
	.loc 1 236 0
	.cfi_startproc
.LVL690:
	pushq	%r15
	.cfi_def_cfa_offset 16
	.cfi_offset 15, -16
	movq	%rdi, %r15
.LBB1240:
.LBB1241:
.LBB1242:
.LBB1243:
	.loc 1 546 0
	movl	$12, %edi
.LVL691:
.LBE1243:
.LBE1242:
.LBE1241:
.LBE1240:
	.loc 1 236 0
	pushq	%r14
	.cfi_def_cfa_offset 24
	.cfi_offset 14, -24
	pushq	%r13
	.cfi_def_cfa_offset 32
	.cfi_offset 13, -32
	movq	%rcx, %r13
	pushq	%r12
	.cfi_def_cfa_offset 40
	.cfi_offset 12, -40
	pushq	%rbp
	.cfi_def_cfa_offset 48
	.cfi_offset 6, -48
	movq	%rsi, %rbp
	pushq	%rbx
	.cfi_def_cfa_offset 56
	.cfi_offset 3, -56
	movq	%rdx, %rbx
	subq	$24, %rsp
	.cfi_def_cfa_offset 80
.LBB1253:
.LBB1252:
.LBB1249:
.LBB1250:
	.loc 1 553 0
	movl	cur_entry_id.3341(%rip), %r14d
	leal	1(%r14), %eax
	movl	%eax, cur_entry_id.3341(%rip)
.LVL692:
.LBE1250:
.LBE1249:
.LBB1251:
.LBB1248:
	.loc 1 546 0
	call	malloc
.LVL693:
.LBB1244:
.LBB1245:
	.loc 2 34 0
	movl	%r14d, %r9d
	movl	$.LC4, %r8d
	movl	$.LC2, %ecx
	movl	$12, %edx
.LBE1245:
.LBE1244:
	.loc 1 546 0
	movq	%rax, %r12
.LVL694:
.LBB1247:
.LBB1246:
	.loc 2 34 0
	movq	%rax, %rdi
	movl	$1, %esi
	xorl	%eax, %eax
.LVL695:
	call	__sprintf_chk
.LVL696:
.LBE1246:
.LBE1247:
.LBE1248:
.LBE1251:
.LBE1252:
.LBE1253:
	.loc 1 237 0
	movq	%r12, %rsi
	movq	%rbp, %rdi
	call	register_const_str
.LVL697:
.LBB1254:
.LBB1255:
.LBB1256:
.LBB1257:
	.loc 1 553 0
	movl	cur_entry_id.3341(%rip), %r14d
.LVL698:
.LBE1257:
.LBE1256:
.LBE1255:
.LBE1254:
	.loc 1 237 0
	movl	%eax, 12(%rsp)
.LVL699:
.LBB1269:
.LBB1268:
.LBB1259:
.LBB1260:
	.loc 1 546 0
	movl	$12, %edi
.LBE1260:
.LBE1259:
.LBB1266:
.LBB1258:
	.loc 1 553 0
	leal	1(%r14), %eax
	movl	%eax, cur_entry_id.3341(%rip)
.LVL700:
.LBE1258:
.LBE1266:
.LBB1267:
.LBB1265:
	.loc 1 546 0
	call	malloc
.LVL701:
.LBB1261:
.LBB1262:
	.loc 2 34 0
	movl	%r14d, %r9d
	movl	$.LC5, %r8d
.LBE1262:
.LBE1261:
	.loc 1 546 0
	movq	%rax, %r12
.LVL702:
.LBB1264:
.LBB1263:
	.loc 2 34 0
	movl	$.LC2, %ecx
	movl	$12, %edx
	movq	%rax, %rdi
	movl	$1, %esi
	xorl	%eax, %eax
.LVL703:
	call	__sprintf_chk
.LVL704:
.LBE1263:
.LBE1264:
.LBE1265:
.LBE1267:
.LBE1268:
.LBE1269:
	.loc 1 238 0
	movq	%r12, %rsi
	movq	%rbp, %rdi
	call	register_const_str
.LVL705:
	.loc 1 240 0
	movq	8(%r15), %rdi
	movq	%r13, %rcx
	movq	%rbx, %rdx
	movq	%rbp, %rsi
	.loc 1 238 0
	movl	%eax, %r14d
.LVL706:
	.loc 1 240 0
	call	compile_exp
.LVL707:
.LBB1270:
.LBB1271:
	.loc 1 860 0
	movl	$8, %edi
	call	malloc
.LVL708:
	.loc 1 862 0
	movl	12(%rsp), %edx
.LBE1271:
.LBE1270:
	.loc 1 242 0
	movq	%rax, %rsi
	movq	%rbx, %rdi
.LBB1273:
.LBB1272:
	.loc 1 861 0
	movl	$13, (%rax)
	.loc 1 862 0
	movl	%edx, 4(%rax)
.LBE1272:
.LBE1273:
	.loc 1 242 0
	call	vector_add
.LVL709:
.LBB1274:
.LBB1275:
	.loc 1 658 0
	movl	$24, %edi
	call	malloc
.LVL710:
	movq	%rax, %r12
.LVL711:
	.loc 1 659 0
	movl	$0, (%rax)
	.loc 1 660 0
	xorl	%eax, %eax
.LVL712:
	call	make_vector
.LVL713:
.LBE1275:
.LBE1274:
	.loc 1 244 0
	movq	24(%r15), %rdi
	movq	%r12, %rcx
	movq	%rbx, %rdx
	movq	%rbp, %rsi
.LBB1277:
.LBB1276:
	.loc 1 660 0
	movq	%rax, 8(%r12)
	.loc 1 661 0
	movq	%r13, 16(%r12)
.LBE1276:
.LBE1277:
	.loc 1 244 0
	call	compile_scopestmt
.LVL714:
.LBB1278:
.LBB1279:
	.loc 1 867 0
	movl	$8, %edi
	call	malloc
.LVL715:
.LBE1279:
.LBE1278:
	.loc 1 246 0
	movq	%rbx, %rdi
.LBB1282:
.LBB1280:
	.loc 1 869 0
	movl	%r14d, 4(%rax)
.LBE1280:
.LBE1282:
	.loc 1 246 0
	movq	%rax, %rsi
.LBB1283:
.LBB1281:
	.loc 1 868 0
	movl	$14, (%rax)
.LBE1281:
.LBE1283:
	.loc 1 246 0
	call	vector_add
.LVL716:
.LBB1284:
.LBB1285:
	.loc 1 853 0
	movl	$8, %edi
	call	malloc
.LVL717:
	.loc 1 855 0
	movl	12(%rsp), %edx
.LBE1285:
.LBE1284:
	.loc 1 248 0
	movq	%rax, %rsi
	movq	%rbx, %rdi
.LBB1287:
.LBB1286:
	.loc 1 854 0
	movl	$0, (%rax)
	.loc 1 855 0
	movl	%edx, 4(%rax)
.LBE1286:
.LBE1287:
	.loc 1 248 0
	call	vector_add
.LVL718:
.LBB1288:
.LBB1289:
	.loc 1 658 0
	movl	$24, %edi
	call	malloc
.LVL719:
	movq	%rax, %r12
.LVL720:
	.loc 1 659 0
	movl	$0, (%rax)
	.loc 1 660 0
	xorl	%eax, %eax
.LVL721:
	call	make_vector
.LVL722:
.LBE1289:
.LBE1288:
	.loc 1 250 0
	movq	16(%r15), %rdi
	movq	%r12, %rcx
	movq	%rbx, %rdx
	movq	%rbp, %rsi
.LBB1291:
.LBB1290:
	.loc 1 660 0
	movq	%rax, 8(%r12)
	.loc 1 661 0
	movq	%r13, 16(%r12)
.LBE1290:
.LBE1291:
	.loc 1 250 0
	call	compile_scopestmt
.LVL723:
.LBB1292:
.LBB1293:
	.loc 1 853 0
	movl	$8, %edi
	call	malloc
.LVL724:
.LBE1293:
.LBE1292:
	.loc 1 252 0
	movq	%rbx, %rdi
.LBB1295:
.LBB1294:
	.loc 1 855 0
	movl	%r14d, 4(%rax)
	.loc 1 854 0
	movl	$0, (%rax)
.LBE1294:
.LBE1295:
	.loc 1 252 0
	movq	%rax, %rsi
	call	vector_add
.LVL725:
	.loc 1 254 0
	addq	$24, %rsp
	.cfi_def_cfa_offset 56
	movl	$-1, %eax
	popq	%rbx
	.cfi_def_cfa_offset 48
.LVL726:
	popq	%rbp
	.cfi_def_cfa_offset 40
.LVL727:
	popq	%r12
	.cfi_def_cfa_offset 32
.LVL728:
	popq	%r13
	.cfi_def_cfa_offset 24
.LVL729:
	popq	%r14
	.cfi_def_cfa_offset 16
.LVL730:
	popq	%r15
	.cfi_def_cfa_offset 8
.LVL731:
	ret
	.cfi_endproc
.LFE48:
	.size	compile_if_exp, .-compile_if_exp
	.section	.rodata.str1.1
.LC16:
	.string	"Error: unknown property: %s.\n"
	.text
	.p2align 4,,15
	.globl	compile_set_exp
	.type	compile_set_exp, @function
compile_set_exp:
.LFB50:
	.loc 1 265 0
	.cfi_startproc
.LVL732:
	pushq	%r15
	.cfi_def_cfa_offset 16
	.cfi_offset 15, -16
	pushq	%r14
	.cfi_def_cfa_offset 24
	.cfi_offset 14, -24
	movq	%rdx, %r14
	pushq	%r13
	.cfi_def_cfa_offset 32
	.cfi_offset 13, -32
	movq	%rdi, %r13
	pushq	%r12
	.cfi_def_cfa_offset 40
	.cfi_offset 12, -40
	movq	%rcx, %r12
	pushq	%rbp
	.cfi_def_cfa_offset 48
	.cfi_offset 6, -48
	pushq	%rbx
	.cfi_def_cfa_offset 56
	.cfi_offset 3, -56
	subq	$24, %rsp
	.cfi_def_cfa_offset 80
	.loc 1 267 0
	movq	16(%rdi), %rdi
.LVL733:
	.loc 1 265 0
	movq	%rsi, 8(%rsp)
	.loc 1 267 0
	call	compile_exp
.LVL734:
.LBB1315:
.LBB1316:
.LBB1317:
.LBB1318:
	.loc 1 620 0
	testq	%r12, %r12
.LBE1318:
.LBE1317:
.LBE1316:
.LBE1315:
	.loc 1 268 0
	movq	8(%r13), %rbp
.LVL735:
.LBB1340:
.LBB1338:
.LBB1326:
.LBB1324:
	.loc 1 620 0
	je	.L349
	movq	%r12, %rbx
.L355:
.LVL736:
.LBB1319:
	.loc 1 624 0
	movq	8(%rbx), %rdi
	xorl	%r15d, %r15d
	movl	(%rdi), %eax
	testl	%eax, %eax
	jg	.L365
	jmp	.L353
.LVL737:
	.p2align 4,,10
	.p2align 3
.L371:
	movq	8(%rbx), %rdi
	addl	$1, %r15d
.LVL738:
	cmpl	(%rdi), %r15d
	jge	.L353
.LVL739:
.L365:
.LBB1320:
	.loc 1 625 0
	movl	%r15d, %esi
	call	vector_get
.LVL740:
.LBB1321:
	.loc 1 626 0
	movq	(%rax), %rdi
	movq	%rbp, %rsi
	call	strcmp
.LVL741:
.LBE1321:
	testl	%eax, %eax
	jne	.L371
.LBE1320:
.LBE1319:
.LBE1324:
.LBE1326:
.LBB1327:
.LBB1328:
	.loc 1 651 0
	movq	root_scope.3422(%rip), %rax
	testq	%rax, %rax
	je	.L372
.LBE1328:
.LBE1327:
	.loc 1 642 0
	cmpq	%rbx, %rax
	je	.L373
.LVL742:
.L367:
.LBE1338:
.LBE1340:
	.loc 1 272 0
	movq	8(%r13), %rsi
	movq	%r12, %rdi
	call	get_var_idx_in_frame_scope
.LVL743:
	.loc 1 273 0
	cmpl	$-1, %eax
	.loc 1 272 0
	movl	%eax, %ebx
.LVL744:
	.loc 1 273 0
	je	.L374
.LVL745:
.LBB1341:
.LBB1342:
	.loc 1 797 0
	movl	$8, %edi
	call	malloc
.LVL746:
.LBE1342:
.LBE1341:
	.loc 1 277 0
	movq	%r14, %rdi
.LBB1344:
.LBB1343:
	.loc 1 797 0
	movq	%rax, %rsi
.LVL747:
	.loc 1 798 0
	movl	$9, (%rax)
	.loc 1 799 0
	movl	%ebx, 4(%rax)
.LBE1343:
.LBE1344:
	.loc 1 277 0
	call	vector_add
.LVL748:
.L368:
	.loc 1 280 0
	addq	$24, %rsp
	.cfi_remember_state
	.cfi_def_cfa_offset 56
	movl	$-1, %eax
	popq	%rbx
	.cfi_def_cfa_offset 48
.LVL749:
	popq	%rbp
	.cfi_def_cfa_offset 40
	popq	%r12
	.cfi_def_cfa_offset 32
.LVL750:
	popq	%r13
	.cfi_def_cfa_offset 24
.LVL751:
	popq	%r14
	.cfi_def_cfa_offset 16
.LVL752:
	popq	%r15
	.cfi_def_cfa_offset 8
.LVL753:
	ret
.LVL754:
	.p2align 4,,10
	.p2align 3
.L353:
	.cfi_restore_state
.LBB1345:
.LBB1339:
.LBB1335:
.LBB1325:
	.loc 1 630 0
	movq	16(%rbx), %rbx
	.loc 1 620 0
	testq	%rbx, %rbx
	jne	.L355
.L349:
.LVL755:
.LBB1322:
.LBB1323:
	.loc 2 105 0
	movl	$1, %edi
	movq	%rbp, %rdx
	movl	$.LC12, %esi
	xorl	%eax, %eax
	call	__printf_chk
.LVL756:
.LBE1323:
.LBE1322:
	.loc 1 622 0
	movl	$-1, %edi
	call	exit
.LVL757:
	.p2align 4,,10
	.p2align 3
.L372:
.LBE1325:
.LBE1335:
.LBB1336:
.LBB1333:
.LBB1329:
.LBB1330:
	.loc 1 658 0
	movl	$24, %edi
	call	malloc
.LVL758:
	movq	%rax, %rbp
.LVL759:
	.loc 1 659 0
	movl	$1, (%rax)
	.loc 1 660 0
	xorl	%eax, %eax
.LVL760:
	call	make_vector
.LVL761:
	movq	%rax, 8(%rbp)
.LBE1330:
.LBE1329:
	.loc 1 652 0
	movq	%rbp, %rax
.LBB1332:
.LBB1331:
	.loc 1 661 0
	movq	$0, 16(%rbp)
.LBE1331:
.LBE1332:
.LBE1333:
.LBE1336:
	.loc 1 642 0
	cmpq	%rbx, %rax
.LBB1337:
.LBB1334:
	.loc 1 652 0
	movq	%rbp, root_scope.3422(%rip)
.LBE1334:
.LBE1337:
	.loc 1 642 0
	jne	.L367
.LVL762:
.L373:
.LBE1339:
.LBE1345:
	.loc 1 269 0
	movq	8(%r13), %rsi
	movq	8(%rsp), %rdi
	call	register_const_str
.LVL763:
.LBB1346:
.LBB1347:
	.loc 1 783 0
	movl	$8, %edi
.LBE1347:
.LBE1346:
	.loc 1 269 0
	movl	%eax, %ebx
.LVL764:
.LBB1350:
.LBB1348:
	.loc 1 783 0
	call	malloc
.LVL765:
.LBE1348:
.LBE1350:
	.loc 1 270 0
	movq	%r14, %rdi
.LBB1351:
.LBB1349:
	.loc 1 783 0
	movq	%rax, %rsi
.LVL766:
	.loc 1 784 0
	movl	$11, (%rax)
	.loc 1 785 0
	movl	%ebx, 4(%rax)
.LBE1349:
.LBE1351:
	.loc 1 270 0
	call	vector_add
.LVL767:
	jmp	.L368
.LVL768:
.L374:
.LBB1352:
.LBB1353:
	.loc 2 105 0
	movq	8(%r13), %rdx
	movl	$1, %edi
	movl	$.LC16, %esi
	xorl	%eax, %eax
.LVL769:
	call	__printf_chk
.LVL770:
.LBE1353:
.LBE1352:
	.loc 1 275 0
	movl	%ebx, %edi
	call	exit
.LVL771:
	.cfi_endproc
.LFE50:
	.size	compile_set_exp, .-compile_set_exp
	.p2align 4,,15
	.globl	compile_var_slot_stmt
	.type	compile_var_slot_stmt, @function
compile_var_slot_stmt:
.LFB56:
	.loc 1 335 0
	.cfi_startproc
.LVL772:
	pushq	%r12
	.cfi_def_cfa_offset 16
	.cfi_offset 12, -16
	movq	%rcx, %r12
	pushq	%rbp
	.cfi_def_cfa_offset 24
	.cfi_offset 6, -24
	movq	%rdi, %rbp
	pushq	%rbx
	.cfi_def_cfa_offset 32
	.cfi_offset 3, -32
	.loc 1 336 0
	movq	16(%rcx), %rcx
.LVL773:
	.loc 1 335 0
	movq	%rsi, %rbx
	.loc 1 336 0
	movq	16(%rdi), %rdi
.LVL774:
	call	compile_exp
.LVL775:
	.loc 1 338 0
	movq	8(%rbp), %rsi
	movq	%r12, %rdi
	call	register_var_in_scope
.LVL776:
	.loc 1 341 0
	movq	8(%rbp), %rsi
	movq	%rbx, %rdi
	call	register_const_str
.LVL777:
	.loc 1 342 0
	movq	8(%rbp), %r12
.LVL778:
.LBB1358:
.LBB1359:
.LBB1360:
.LBB1361:
	.loc 1 685 0
	movl	$8, %edi
	call	malloc
.LVL779:
	.loc 1 687 0
	movq	%rbx, %rdi
	.loc 1 686 0
	movl	$4, (%rax)
	.loc 1 685 0
	movq	%rax, %rbp
.LVL780:
	.loc 1 687 0
	movq	%r12, %rsi
	call	register_const_str
.LVL781:
.LBE1361:
.LBE1360:
	.loc 1 757 0
	movq	(%rbx), %rdi
.LBB1363:
.LBB1362:
	.loc 1 687 0
	movl	%eax, 4(%rbp)
.LBE1362:
.LBE1363:
	.loc 1 757 0
	movq	%rbp, %rsi
	call	vector_add
.LVL782:
	.loc 1 758 0
	movq	(%rbx), %rax
.LBE1359:
.LBE1358:
	.loc 1 344 0
	popq	%rbx
	.cfi_def_cfa_offset 24
.LVL783:
	popq	%rbp
	.cfi_def_cfa_offset 16
.LVL784:
.LBB1366:
.LBB1364:
	.loc 1 758 0
	movl	(%rax), %eax
.LBE1364:
.LBE1366:
	.loc 1 344 0
	popq	%r12
	.cfi_def_cfa_offset 8
.LVL785:
.LBB1367:
.LBB1365:
	.loc 1 758 0
	subl	$1, %eax
.LBE1365:
.LBE1367:
	.loc 1 344 0
	ret
	.cfi_endproc
.LFE56:
	.size	compile_var_slot_stmt, .-compile_var_slot_stmt
	.section	.rodata.str1.8
	.align 8
.LC17:
	.string	"Unrecognized slot statement with tag %d\n"
	.text
	.p2align 4,,15
	.globl	compile_slotstmt
	.type	compile_slotstmt, @function
compile_slotstmt:
.LFB58:
	.loc 1 383 0
	.cfi_startproc
.LVL786:
	pushq	%r12
	.cfi_def_cfa_offset 16
	.cfi_offset 12, -16
	movq	%rcx, %r12
	pushq	%rbp
	.cfi_def_cfa_offset 24
	.cfi_offset 6, -24
	movq	%rsi, %rbp
	pushq	%rbx
	.cfi_def_cfa_offset 32
	.cfi_offset 3, -32
	.loc 1 384 0
	movl	(%rdi), %eax
	.loc 1 383 0
	movq	%rdi, %rbx
	.loc 1 384 0
	cmpl	$13, %eax
	je	.L379
	cmpl	$14, %eax
	jne	.L382
.LVL787:
	.loc 1 398 0
	popq	%rbx
	.cfi_remember_state
	.cfi_def_cfa_offset 24
	popq	%rbp
	.cfi_def_cfa_offset 16
	popq	%r12
	.cfi_def_cfa_offset 8
.LBB1382:
	.loc 1 391 0
	jmp	compile_fn_slot_stmt
.LVL788:
	.p2align 4,,10
	.p2align 3
.L382:
	.cfi_restore_state
.LBE1382:
.LBB1383:
.LBB1384:
	.loc 2 105 0
	movl	%eax, %edx
.LVL789:
	movl	$1, %edi
	movl	$.LC17, %esi
.LVL790:
	xorl	%eax, %eax
	call	__printf_chk
.LVL791:
.LBE1384:
.LBE1383:
	.loc 1 395 0
	movl	$-1, %edi
	call	exit
.LVL792:
	.p2align 4,,10
	.p2align 3
.L379:
.LBB1385:
.LBB1386:
.LBB1387:
	.loc 1 336 0
	movq	16(%rcx), %rcx
.LVL793:
	movq	16(%rdi), %rdi
	call	compile_exp
.LVL794:
	.loc 1 338 0
	movq	8(%rbx), %rsi
	movq	%r12, %rdi
	call	register_var_in_scope
.LVL795:
	.loc 1 341 0
	movq	8(%rbx), %rsi
	movq	%rbp, %rdi
	call	register_const_str
.LVL796:
	.loc 1 342 0
	movq	8(%rbx), %r12
.LVL797:
.LBB1388:
.LBB1389:
.LBB1390:
.LBB1391:
	.loc 1 685 0
	movl	$8, %edi
	call	malloc
.LVL798:
	.loc 1 687 0
	movq	%rbp, %rdi
	.loc 1 686 0
	movl	$4, (%rax)
	.loc 1 685 0
	movq	%rax, %rbx
.LVL799:
	.loc 1 687 0
	movq	%r12, %rsi
	call	register_const_str
.LVL800:
.LBE1391:
.LBE1390:
	.loc 1 757 0
	movq	0(%rbp), %rdi
.LBB1393:
.LBB1392:
	.loc 1 687 0
	movl	%eax, 4(%rbx)
.LBE1392:
.LBE1393:
	.loc 1 757 0
	movq	%rbx, %rsi
	call	vector_add
.LVL801:
	.loc 1 758 0
	movq	0(%rbp), %rax
.LBE1389:
.LBE1388:
.LBE1387:
.LBE1386:
.LBE1385:
	.loc 1 398 0
	popq	%rbx
	.cfi_def_cfa_offset 24
.LVL802:
	popq	%rbp
	.cfi_def_cfa_offset 16
.LVL803:
.LBB1402:
.LBB1400:
.LBB1398:
.LBB1396:
.LBB1394:
	.loc 1 758 0
	movl	(%rax), %eax
.LBE1394:
.LBE1396:
.LBE1398:
.LBE1400:
.LBE1402:
	.loc 1 398 0
	popq	%r12
	.cfi_def_cfa_offset 8
.LVL804:
.LBB1403:
.LBB1401:
.LBB1399:
.LBB1397:
.LBB1395:
	.loc 1 758 0
	subl	$1, %eax
.LBE1395:
.LBE1397:
.LBE1399:
.LBE1401:
.LBE1403:
	.loc 1 398 0
	ret
	.cfi_endproc
.LFE58:
	.size	compile_slotstmt, .-compile_slotstmt
	.p2align 4,,15
	.globl	compile_object_exp
	.type	compile_object_exp, @function
compile_object_exp:
.LFB45:
	.loc 1 191 0
	.cfi_startproc
.LVL805:
	pushq	%r15
	.cfi_def_cfa_offset 16
	.cfi_offset 15, -16
	movq	%rdi, %r15
	pushq	%r14
	.cfi_def_cfa_offset 24
	.cfi_offset 14, -24
	movq	%rdx, %r14
	pushq	%r13
	.cfi_def_cfa_offset 32
	.cfi_offset 13, -32
	pushq	%r12
	.cfi_def_cfa_offset 40
	.cfi_offset 12, -40
	movq	%rsi, %r12
	pushq	%rbp
	.cfi_def_cfa_offset 48
	.cfi_offset 6, -48
.LBB1426:
	.loc 1 197 0
	xorl	%ebp, %ebp
.LBE1426:
	.loc 1 191 0
	pushq	%rbx
	.cfi_def_cfa_offset 56
	.cfi_offset 3, -56
	movq	%rcx, %rbx
	subq	$24, %rsp
	.cfi_def_cfa_offset 80
	.loc 1 193 0
	movq	8(%rdi), %rdi
.LVL806:
	call	compile_exp
.LVL807:
.LBB1449:
.LBB1450:
	.loc 1 658 0
	movl	$24, %edi
	call	malloc
.LVL808:
	movq	%rax, %r13
.LVL809:
	.loc 1 659 0
	movl	$2, (%rax)
	.loc 1 660 0
	xorl	%eax, %eax
.LVL810:
	call	make_vector
.LVL811:
	movq	%rax, 8(%r13)
.LBE1450:
.LBE1449:
	.loc 1 195 0
	xorl	%eax, %eax
.LBB1452:
.LBB1451:
	.loc 1 661 0
	movq	%rbx, 16(%r13)
.LBE1451:
.LBE1452:
	.loc 1 195 0
	call	make_vector
.LVL812:
	movq	%rax, (%rsp)
.LVL813:
.LBB1453:
	.loc 1 197 0
	movl	16(%r15), %eax
.LVL814:
	testl	%eax, %eax
	jle	.L391
.LVL815:
.L393:
.LBB1427:
	.loc 1 198 0 discriminator 2
	movq	24(%r15), %rax
	movq	(%rax,%rbp,8), %rbx
.LVL816:
.LBB1428:
.LBB1429:
	.loc 1 384 0 discriminator 2
	movl	(%rbx), %edx
	cmpl	$13, %edx
	je	.L388
	cmpl	$14, %edx
	jne	.L397
.LVL817:
.LBB1430:
	.loc 1 391 0
	movq	%r13, %rcx
	movq	%r14, %rdx
	movq	%r12, %rsi
	movq	%rbx, %rdi
	call	compile_fn_slot_stmt
.LVL818:
.L390:
.LBE1430:
.LBE1429:
.LBE1428:
	.loc 1 199 0
	movq	(%rsp), %rdi
	movslq	%eax, %rsi
	call	vector_add
.LVL819:
	leal	1(%rbp), %eax
.LVL820:
	addq	$1, %rbp
.LBE1427:
	.loc 1 197 0
	cmpl	%eax, 16(%r15)
	jg	.L393
.LVL821:
.L391:
.LBE1453:
.LBB1454:
.LBB1455:
	.loc 1 704 0
	movl	$16, %edi
	call	malloc
.LVL822:
	.loc 1 707 0
	movq	(%rsp), %rcx
.LBE1455:
.LBE1454:
.LBB1457:
.LBB1458:
	.loc 1 767 0
	movq	(%r12), %rdi
	movq	%rax, %rsi
.LBE1458:
.LBE1457:
.LBB1462:
.LBB1456:
	.loc 1 706 0
	movl	$5, (%rax)
	.loc 1 707 0
	movq	%rcx, 8(%rax)
.LVL823:
.LBE1456:
.LBE1462:
.LBB1463:
.LBB1459:
	.loc 1 767 0
	call	vector_add
.LVL824:
	.loc 1 768 0
	movq	(%r12), %rax
.LBE1459:
.LBE1463:
.LBB1464:
.LBB1465:
	.loc 1 888 0
	movl	$8, %edi
.LBE1465:
.LBE1464:
.LBB1469:
.LBB1460:
	.loc 1 768 0
	movl	(%rax), %ebx
.LBE1460:
.LBE1469:
.LBB1470:
.LBB1466:
	.loc 1 888 0
	call	malloc
.LVL825:
.LBE1466:
.LBE1470:
	.loc 1 202 0
	movq	%r14, %rdi
.LBB1471:
.LBB1467:
	.loc 1 889 0
	movl	$4, (%rax)
.LBE1467:
.LBE1471:
	.loc 1 202 0
	movq	%rax, %rsi
.LBB1472:
.LBB1461:
	.loc 1 768 0
	subl	$1, %ebx
.LVL826:
.LBE1461:
.LBE1472:
.LBB1473:
.LBB1468:
	.loc 1 890 0
	movl	%ebx, 4(%rax)
.LBE1468:
.LBE1473:
	.loc 1 202 0
	call	vector_add
.LVL827:
	.loc 1 204 0
	addq	$24, %rsp
	.cfi_remember_state
	.cfi_def_cfa_offset 56
.LVL828:
	movl	$-1, %eax
	popq	%rbx
	.cfi_def_cfa_offset 48
.LVL829:
	popq	%rbp
	.cfi_def_cfa_offset 40
	popq	%r12
	.cfi_def_cfa_offset 32
.LVL830:
	popq	%r13
	.cfi_def_cfa_offset 24
.LVL831:
	popq	%r14
	.cfi_def_cfa_offset 16
.LVL832:
	popq	%r15
	.cfi_def_cfa_offset 8
.LVL833:
	ret
.LVL834:
	.p2align 4,,10
	.p2align 3
.L388:
	.cfi_restore_state
.LBB1474:
.LBB1448:
.LBB1447:
.LBB1446:
.LBB1431:
.LBB1432:
.LBB1433:
	.loc 1 336 0
	movq	16(%r13), %rcx
	movq	16(%rbx), %rdi
	movq	%r14, %rdx
	movq	%r12, %rsi
	call	compile_exp
.LVL835:
	.loc 1 338 0
	movq	8(%rbx), %rsi
	movq	%r13, %rdi
	call	register_var_in_scope
.LVL836:
	.loc 1 341 0
	movq	8(%rbx), %rsi
	movq	%r12, %rdi
	call	register_const_str
.LVL837:
	.loc 1 342 0
	movq	8(%rbx), %rsi
.LBB1434:
.LBB1435:
.LBB1436:
.LBB1437:
	.loc 1 685 0
	movl	$8, %edi
.LBE1437:
.LBE1436:
.LBE1435:
.LBE1434:
	.loc 1 342 0
	movq	%rsi, 8(%rsp)
.LVL838:
.LBB1443:
.LBB1442:
.LBB1440:
.LBB1438:
	.loc 1 685 0
	call	malloc
.LVL839:
	.loc 1 687 0
	movq	8(%rsp), %rsi
	movq	%r12, %rdi
	.loc 1 686 0
	movl	$4, (%rax)
	.loc 1 685 0
	movq	%rax, %rbx
.LVL840:
	.loc 1 687 0
	call	register_const_str
.LVL841:
.LBE1438:
.LBE1440:
	.loc 1 757 0
	movq	(%r12), %rdi
.LBB1441:
.LBB1439:
	.loc 1 687 0
	movl	%eax, 4(%rbx)
.LBE1439:
.LBE1441:
	.loc 1 757 0
	movq	%rbx, %rsi
	call	vector_add
.LVL842:
	.loc 1 758 0
	movq	(%r12), %rax
	movl	(%rax), %eax
	subl	$1, %eax
	jmp	.L390
.LVL843:
	.p2align 4,,10
	.p2align 3
.L397:
.LBE1442:
.LBE1443:
.LBE1433:
.LBE1432:
.LBE1431:
.LBB1444:
.LBB1445:
	.loc 2 105 0
	movl	$1, %edi
	movl	$.LC17, %esi
	xorl	%eax, %eax
	call	__printf_chk
.LVL844:
.LBE1445:
.LBE1444:
	.loc 1 395 0
	movl	$-1, %edi
	call	exit
.LVL845:
.LBE1446:
.LBE1447:
.LBE1448:
.LBE1474:
	.cfi_endproc
.LFE45:
	.size	compile_object_exp, .-compile_object_exp
	.p2align 4,,15
	.globl	compile
	.type	compile, @function
compile:
.LFB63:
	.loc 1 506 0
	.cfi_startproc
.LVL846:
	pushq	%r14
	.cfi_def_cfa_offset 16
	.cfi_offset 14, -16
	pushq	%r13
	.cfi_def_cfa_offset 24
	.cfi_offset 13, -24
	pushq	%r12
	.cfi_def_cfa_offset 32
	.cfi_offset 12, -32
	movq	%rdi, %r12
	.loc 1 507 0
	movl	$24, %edi
.LVL847:
	.loc 1 506 0
	pushq	%rbp
	.cfi_def_cfa_offset 40
	.cfi_offset 6, -40
	pushq	%rbx
	.cfi_def_cfa_offset 48
	.cfi_offset 3, -48
	.loc 1 507 0
	call	malloc
.LVL848:
	movq	%rax, %rbp
.LVL849:
	.loc 1 508 0
	xorl	%eax, %eax
.LVL850:
	call	make_vector
.LVL851:
	movq	%rax, 0(%rbp)
	.loc 1 509 0
	xorl	%eax, %eax
	call	make_vector
.LVL852:
.LBB1491:
.LBB1492:
	.loc 1 692 0
	movl	$24, %edi
.LBE1492:
.LBE1491:
	.loc 1 509 0
	movq	%rax, 8(%rbp)
.LBB1495:
.LBB1493:
	.loc 1 692 0
	call	malloc
.LVL853:
	movq	%rax, %rbx
.LVL854:
	.loc 1 694 0
	movl	$3, (%rax)
	.loc 1 695 0
	movl	$-1, 4(%rax)
	.loc 1 697 0
	movl	$0, 8(%rax)
	.loc 1 698 0
	movl	$0, 12(%rax)
	.loc 1 699 0
	xorl	%eax, %eax
.LVL855:
	call	make_vector
.LVL856:
.LBE1493:
.LBE1495:
.LBB1496:
.LBB1497:
	.loc 1 651 0
	movq	root_scope.3422(%rip), %r14
.LBE1497:
.LBE1496:
.LBB1502:
.LBB1494:
	.loc 1 699 0
	movq	%rax, %r13
	movq	%rax, 16(%rbx)
.LBE1494:
.LBE1502:
.LBB1503:
.LBB1500:
	.loc 1 651 0
	testq	%r14, %r14
	je	.L411
.L408:
.LBE1500:
.LBE1503:
.LBB1504:
.LBB1505:
	.loc 1 460 0
	movl	(%r12), %edx
	cmpl	$14, %edx
	je	.L401
.LVL857:
.L414:
	jbe	.L412
	cmpl	$15, %edx
	je	.L404
	cmpl	$16, %edx
	.p2align 4,,5
	jne	.L400
.LVL858:
.LBB1506:
	.loc 1 484 0
	movq	8(%r12), %rdi
	movq	%r14, %rcx
	movq	%r13, %rdx
	movq	%rbp, %rsi
	call	compile_exp
.LVL859:
.L406:
.LBE1506:
.LBE1505:
.LBE1504:
	.loc 1 514 0
	movq	%rbx, %rsi
	movq	%rbp, %rdi
	call	compile_entry_fun
.LVL860:
	.loc 1 519 0
	popq	%rbx
	.cfi_remember_state
	.cfi_def_cfa_offset 40
.LVL861:
	movq	%rbp, %rax
	popq	%rbp
	.cfi_def_cfa_offset 32
.LVL862:
	popq	%r12
	.cfi_def_cfa_offset 24
	popq	%r13
	.cfi_def_cfa_offset 16
	popq	%r14
	.cfi_def_cfa_offset 8
	ret
.LVL863:
	.p2align 4,,10
	.p2align 3
.L404:
	.cfi_restore_state
.LBB1519:
.LBB1517:
.LBB1507:
	.loc 1 475 0
	movq	8(%r12), %rdi
	movq	%r14, %rcx
	movq	%r13, %rdx
	movq	%rbp, %rsi
	call	compile_scopestmt
.LVL864:
	.loc 1 476 0
	movq	8(%r12), %rax
	cmpl	$16, (%rax)
	je	.L413
.L407:
	.loc 1 479 0
	movq	16(%r12), %r12
.LVL865:
.LBE1507:
	.loc 1 460 0
	movl	(%r12), %edx
	cmpl	$14, %edx
	jne	.L414
.L401:
.LVL866:
.LBB1512:
	.loc 1 470 0
	movq	%r14, %rcx
	movq	%r13, %rdx
	movq	%rbp, %rsi
	movq	%r12, %rdi
	call	compile_fn_stmt
.LVL867:
	jmp	.L406
.LVL868:
	.p2align 4,,10
	.p2align 3
.L412:
.LBE1512:
	.loc 1 460 0
	cmpl	$13, %edx
	jne	.L400
.LVL869:
.LBB1513:
	.loc 1 463 0
	movq	%r14, %rcx
	movq	%r13, %rdx
	movq	%rbp, %rsi
	movq	%r12, %rdi
	call	compile_var_stmt
.LVL870:
	jmp	.L406
.LVL871:
	.p2align 4,,10
	.p2align 3
.L400:
.LBE1513:
.LBB1514:
.LBB1515:
	.loc 2 105 0
	movl	$1, %edi
	movl	$.LC15, %esi
	xorl	%eax, %eax
	call	__printf_chk
.LVL872:
.LBE1515:
.LBE1514:
	.loc 1 489 0
	movl	$-1, %edi
	call	exit
.LVL873:
	.p2align 4,,10
	.p2align 3
.L411:
.LBE1517:
.LBE1519:
.LBB1520:
.LBB1501:
.LBB1498:
.LBB1499:
	.loc 1 658 0
	movl	$24, %edi
	call	malloc
.LVL874:
	movq	%rax, %r14
.LVL875:
	.loc 1 659 0
	movl	$1, (%rax)
	.loc 1 660 0
	xorl	%eax, %eax
.LVL876:
	call	make_vector
.LVL877:
	.loc 1 661 0
	movq	$0, 16(%r14)
	.loc 1 660 0
	movq	%rax, 8(%r14)
.LBE1499:
.LBE1498:
	.loc 1 652 0
	movq	%r14, root_scope.3422(%rip)
	movq	16(%rbx), %r13
.LVL878:
	jmp	.L408
.LVL879:
	.p2align 4,,10
	.p2align 3
.L413:
.LBE1501:
.LBE1520:
.LBB1521:
.LBB1518:
.LBB1516:
.LBB1508:
.LBB1509:
	.loc 1 810 0
	movl	$4, %edi
	call	malloc
.LVL880:
.LBE1509:
.LBE1508:
	.loc 1 477 0
	movq	%r13, %rdi
.LBB1511:
.LBB1510:
	.loc 1 811 0
	movl	$16, (%rax)
.LBE1510:
.LBE1511:
	.loc 1 477 0
	movq	%rax, %rsi
	call	vector_add
.LVL881:
	jmp	.L407
.LBE1516:
.LBE1518:
.LBE1521:
	.cfi_endproc
.LFE63:
	.size	compile, .-compile
	.p2align 4,,15
	.globl	compile_printf_exp
	.type	compile_printf_exp, @function
compile_printf_exp:
.LFB49:
	.loc 1 256 0
	.cfi_startproc
.LVL882:
	pushq	%r15
	.cfi_def_cfa_offset 16
	.cfi_offset 15, -16
	movq	%rdi, %r15
	pushq	%r14
	.cfi_def_cfa_offset 24
	.cfi_offset 14, -24
	pushq	%r13
	.cfi_def_cfa_offset 32
	.cfi_offset 13, -32
.LBB1594:
	.loc 1 257 0
	xorl	%r13d, %r13d
.LBE1594:
	.loc 1 256 0
	pushq	%r12
	.cfi_def_cfa_offset 40
	.cfi_offset 12, -40
.LBB1695:
	.loc 1 257 0
	xorl	%r12d, %r12d
.LBE1695:
	.loc 1 256 0
	pushq	%rbp
	.cfi_def_cfa_offset 48
	.cfi_offset 6, -48
	movq	%rdx, %rbp
	pushq	%rbx
	.cfi_def_cfa_offset 56
	.cfi_offset 3, -56
	movq	%rsi, %rbx
	subq	$40, %rsp
	.cfi_def_cfa_offset 96
.LBB1696:
	.loc 1 257 0
	movl	16(%rdi), %esi
.LVL883:
.LBE1696:
	.loc 1 256 0
	movq	%rcx, 8(%rsp)
.LBB1697:
	.loc 1 257 0
	testl	%esi, %esi
	jle	.L450
.LVL884:
	.p2align 4,,10
	.p2align 3
.L454:
	.loc 1 258 0 discriminator 2
	movq	24(%r15), %rax
	movq	(%rax,%r12), %r14
.LVL885:
.LBB1595:
.LBB1596:
	.loc 1 115 0 discriminator 2
	movl	(%r14), %edx
	cmpl	$12, %edx
	ja	.L417
	jmp	*.L419(,%rdx,8)
	.section	.rodata
	.align 8
	.align 4
.L419:
	.quad	.L418
	.quad	.L420
	.quad	.L421
	.quad	.L422
	.quad	.L423
	.quad	.L424
	.quad	.L425
	.quad	.L426
	.quad	.L427
	.quad	.L428
	.quad	.L429
	.quad	.L430
	.quad	.L431
	.text
	.p2align 4,,10
	.p2align 3
.L430:
.LVL886:
.LBB1597:
	.loc 1 161 0
	movq	8(%rsp), %rcx
	movq	%rbp, %rdx
	movq	%rbx, %rsi
	movq	%r14, %rdi
	call	compile_while_exp
.LVL887:
	.p2align 4,,10
	.p2align 3
.L433:
.LBE1597:
.LBE1596:
.LBE1595:
	.loc 1 257 0
	addl	$1, %r13d
.LVL888:
	addq	$8, %r12
	cmpl	%r13d, 16(%r15)
	jg	.L454
.LVL889:
.L450:
.LBE1697:
	.loc 1 260 0
	movq	8(%r15), %rsi
	movq	%rbx, %rdi
	call	register_const_str
.LVL890:
	.loc 1 261 0
	movl	16(%r15), %ebx
.LVL891:
	.loc 1 260 0
	movl	%eax, %r12d
.LVL892:
.LBB1698:
.LBB1699:
	.loc 1 845 0
	movl	$12, %edi
	call	malloc
.LVL893:
.LBE1699:
.LBE1698:
	.loc 1 261 0
	movq	%rbp, %rdi
.LBB1701:
.LBB1700:
	.loc 1 847 0
	movl	%r12d, 4(%rax)
	.loc 1 845 0
	movq	%rax, %rsi
.LVL894:
	.loc 1 848 0
	movl	%ebx, 8(%rax)
	.loc 1 846 0
	movl	$2, (%rax)
.LBE1700:
.LBE1701:
	.loc 1 261 0
	call	vector_add
.LVL895:
	.loc 1 263 0
	addq	$40, %rsp
	.cfi_remember_state
	.cfi_def_cfa_offset 56
	movl	$-1, %eax
	popq	%rbx
	.cfi_def_cfa_offset 48
.LVL896:
	popq	%rbp
	.cfi_def_cfa_offset 40
.LVL897:
	popq	%r12
	.cfi_def_cfa_offset 32
.LVL898:
	popq	%r13
	.cfi_def_cfa_offset 24
	popq	%r14
	.cfi_def_cfa_offset 16
	popq	%r15
	.cfi_def_cfa_offset 8
.LVL899:
	ret
.LVL900:
	.p2align 4,,10
	.p2align 3
.L429:
	.cfi_restore_state
.LBB1702:
.LBB1694:
.LBB1693:
.LBB1598:
	.loc 1 157 0
	movq	8(%rsp), %rcx
	movq	%rbp, %rdx
	movq	%rbx, %rsi
	movq	%r14, %rdi
	call	compile_if_exp
.LVL901:
	jmp	.L433
.LVL902:
	.p2align 4,,10
	.p2align 3
.L428:
.LBE1598:
.LBB1599:
	.loc 1 153 0
	movq	8(%rsp), %rcx
	movq	%rbp, %rdx
	movq	%rbx, %rsi
	movq	%r14, %rdi
	call	compile_set_exp
.LVL903:
	jmp	.L433
.LVL904:
	.p2align 4,,10
	.p2align 3
.L427:
.LBE1599:
.LBB1600:
.LBB1601:
.LBB1602:
	.loc 1 326 0
	movq	8(%r14), %rsi
	movq	%rbx, %rdi
	call	register_const_str
.LVL905:
.LBB1603:
	.loc 1 328 0
	movl	16(%r14), %edx
.LBE1603:
	.loc 1 326 0
	movl	%eax, 28(%rsp)
.LVL906:
.LBB1604:
	.loc 1 328 0
	testl	%edx, %edx
	jle	.L448
	xorl	%r10d, %r10d
	xorl	%r9d, %r9d
.LVL907:
	.p2align 4,,10
	.p2align 3
.L449:
	.loc 1 329 0
	movq	24(%r14), %rax
	movq	8(%rsp), %rcx
	movq	%rbp, %rdx
	movq	%rbx, %rsi
	movl	%r9d, 24(%rsp)
.LVL908:
	movq	%r10, 16(%rsp)
	movq	(%rax,%r10), %rdi
	call	compile_exp
.LVL909:
	.loc 1 328 0
	movl	24(%rsp), %r9d
	movl	16(%r14), %edx
	movq	16(%rsp), %r10
	addl	$1, %r9d
.LVL910:
	addq	$8, %r10
	cmpl	%edx, %r9d
	jl	.L449
.LVL911:
.L448:
.LBE1604:
.LBB1605:
.LBB1606:
	.loc 1 829 0
	movl	$12, %edi
	movl	%edx, 16(%rsp)
.LVL912:
	call	malloc
.LVL913:
	.loc 1 831 0
	movl	28(%rsp), %ecx
	.loc 1 832 0
	movl	16(%rsp), %edx
.LBE1606:
.LBE1605:
	.loc 1 331 0
	movq	%rax, %rsi
.LBB1609:
.LBB1607:
	.loc 1 830 0
	movl	$8, (%rax)
.LBE1607:
.LBE1609:
	.loc 1 331 0
	movq	%rbp, %rdi
.LBB1610:
.LBB1608:
	.loc 1 831 0
	movl	%ecx, 4(%rax)
	.loc 1 832 0
	movl	%edx, 8(%rax)
.LBE1608:
.LBE1610:
	.loc 1 331 0
	call	vector_add
.LVL914:
	jmp	.L433
.LVL915:
	.p2align 4,,10
	.p2align 3
.L426:
.LBE1602:
.LBE1601:
.LBE1600:
.LBB1611:
.LBB1612:
.LBB1613:
	.loc 1 315 0
	movq	16(%r14), %rdi
	movq	8(%rsp), %rcx
	movq	%rbp, %rdx
	movq	%rbx, %rsi
	call	compile_exp
.LVL916:
.LBB1614:
	.loc 1 317 0
	movl	24(%r14), %eax
	xorl	%r10d, %r10d
	xorl	%r9d, %r9d
	testl	%eax, %eax
	jle	.L446
.LVL917:
	.p2align 4,,10
	.p2align 3
.L456:
	.loc 1 318 0
	movq	32(%r14), %rax
	movq	8(%rsp), %rcx
	movq	%rbp, %rdx
	movq	%rbx, %rsi
	movl	%r9d, 24(%rsp)
.LVL918:
	movq	%r10, 16(%rsp)
	movq	(%rax,%r10), %rdi
	call	compile_exp
.LVL919:
	.loc 1 317 0
	movl	24(%rsp), %r9d
	movq	16(%rsp), %r10
	addl	$1, %r9d
.LVL920:
	addq	$8, %r10
	cmpl	24(%r14), %r9d
	jl	.L456
.LVL921:
.L446:
.LBE1614:
	.loc 1 320 0
	movq	8(%r14), %rsi
	movq	%rbx, %rdi
	call	register_const_str
.LVL922:
	movl	%eax, 16(%rsp)
.LVL923:
	.loc 1 321 0
	movl	24(%r14), %eax
.LVL924:
.LBB1615:
.LBB1616:
	.loc 1 837 0
	movl	$12, %edi
.LBE1616:
.LBE1615:
	.loc 1 321 0
	leal	1(%rax), %r14d
.LVL925:
.LBB1619:
.LBB1617:
	.loc 1 837 0
	call	malloc
.LVL926:
	.loc 1 839 0
	movl	16(%rsp), %edx
	.loc 1 837 0
	movq	%rax, %rsi
.LVL927:
	.loc 1 838 0
	movl	$7, (%rax)
	.loc 1 840 0
	movl	%r14d, 8(%rax)
.LBE1617:
.LBE1619:
	.loc 1 321 0
	movq	%rbp, %rdi
.LBB1620:
.LBB1618:
	.loc 1 839 0
	movl	%edx, 4(%rax)
.LBE1618:
.LBE1620:
	.loc 1 321 0
	call	vector_add
.LVL928:
	jmp	.L433
.LVL929:
	.p2align 4,,10
	.p2align 3
.L425:
.LBE1613:
.LBE1612:
.LBE1611:
.LBB1621:
.LBB1622:
.LBB1623:
	.loc 1 184 0
	movq	16(%r14), %rdi
	movq	8(%rsp), %rcx
	movq	%rbp, %rdx
	movq	%rbx, %rsi
	call	compile_exp
.LVL930:
	.loc 1 185 0
	movq	8(%rsp), %rcx
	movq	24(%r14), %rdi
	movq	%rbp, %rdx
	movq	%rbx, %rsi
	call	compile_exp
.LVL931:
	.loc 1 186 0
	movq	8(%r14), %rsi
	movq	%rbx, %rdi
	call	register_const_str
.LVL932:
.LBB1624:
.LBB1625:
	.loc 1 881 0
	movl	$8, %edi
.LBE1625:
.LBE1624:
	.loc 1 186 0
	movl	%eax, %r14d
.LVL933:
.LBB1628:
.LBB1626:
	.loc 1 881 0
	call	malloc
.LVL934:
.LBE1626:
.LBE1628:
	.loc 1 187 0
	movq	%rbp, %rdi
.LBB1629:
.LBB1627:
	.loc 1 881 0
	movq	%rax, %rsi
.LVL935:
	.loc 1 882 0
	movl	$6, (%rax)
	.loc 1 883 0
	movl	%r14d, 4(%rax)
.LBE1627:
.LBE1629:
	.loc 1 187 0
	call	vector_add
.LVL936:
	jmp	.L433
.LVL937:
	.p2align 4,,10
	.p2align 3
.L424:
.LBE1623:
.LBE1622:
.LBE1621:
.LBB1630:
.LBB1631:
.LBB1632:
	.loc 1 177 0
	movq	8(%rsp), %rcx
	movq	16(%r14), %rdi
	movq	%rbp, %rdx
	movq	%rbx, %rsi
	call	compile_exp
.LVL938:
	.loc 1 178 0
	movq	8(%r14), %rsi
	movq	%rbx, %rdi
	call	register_const_str
.LVL939:
.LBB1633:
.LBB1634:
	.loc 1 874 0
	movl	$8, %edi
.LBE1634:
.LBE1633:
	.loc 1 178 0
	movl	%eax, %r14d
.LVL940:
.LBB1637:
.LBB1635:
	.loc 1 874 0
	call	malloc
.LVL941:
.LBE1635:
.LBE1637:
	.loc 1 179 0
	movq	%rbp, %rdi
.LBB1638:
.LBB1636:
	.loc 1 874 0
	movq	%rax, %rsi
.LVL942:
	.loc 1 875 0
	movl	$5, (%rax)
	.loc 1 876 0
	movl	%r14d, 4(%rax)
.LBE1636:
.LBE1638:
	.loc 1 179 0
	call	vector_add
.LVL943:
	jmp	.L433
.LVL944:
	.p2align 4,,10
	.p2align 3
.L423:
.LBE1632:
.LBE1631:
.LBE1630:
.LBB1639:
	.loc 1 133 0
	movq	8(%rsp), %rcx
	movq	%rbp, %rdx
	movq	%rbx, %rsi
	movq	%r14, %rdi
	call	compile_object_exp
.LVL945:
	jmp	.L433
.LVL946:
	.p2align 4,,10
	.p2align 3
.L422:
.LBE1639:
.LBB1640:
.LBB1641:
.LBB1642:
	.loc 1 207 0
	movq	8(%r14), %rdi
	movq	8(%rsp), %rcx
	movq	%rbp, %rdx
	movq	%rbx, %rsi
	call	compile_exp
.LVL947:
	.loc 1 208 0
	movq	16(%r14), %rdi
	movq	8(%rsp), %rcx
	movq	%rbx, %rsi
	movq	%rbp, %rdx
	call	compile_exp
.LVL948:
.LBB1643:
.LBB1644:
	.loc 1 816 0
	movl	$4, %edi
	call	malloc
.LVL949:
.LBE1644:
.LBE1643:
	.loc 1 209 0
	movq	%rbp, %rdi
.LBB1646:
.LBB1645:
	.loc 1 817 0
	movl	$3, (%rax)
.LBE1645:
.LBE1646:
	.loc 1 209 0
	movq	%rax, %rsi
	call	vector_add
.LVL950:
	jmp	.L433
.LVL951:
	.p2align 4,,10
	.p2align 3
.L418:
.LBE1642:
.LBE1641:
.LBE1640:
.LBB1647:
.LBB1648:
.LBB1649:
	.loc 1 309 0
	movl	4(%r14), %eax
.LBB1650:
.LBB1651:
	.loc 1 727 0
	movq	(%rbx), %rcx
.LBE1651:
.LBE1650:
	.loc 1 309 0
	movl	%eax, 24(%rsp)
.LVL952:
.LBB1660:
.LBB1659:
	.loc 1 727 0
	movl	(%rcx), %eax
.LVL953:
.LBB1652:
	.loc 1 728 0
	testl	%eax, %eax
.LBE1652:
	.loc 1 727 0
	movl	%eax, 16(%rsp)
.LVL954:
.LBB1654:
	.loc 1 728 0
	jle	.L434
	xorl	%r14d, %r14d
.LVL955:
	.p2align 4,,10
	.p2align 3
.L438:
.LBB1653:
	.loc 1 729 0
	movl	%r14d, %esi
	movq	%rcx, %rdi
	call	vector_get
.LVL956:
	.loc 1 730 0
	movl	(%rax), %edx
	testl	%edx, %edx
	jne	.L435
	movl	24(%rsp), %ecx
	cmpl	4(%rax), %ecx
	je	.L440
.L435:
.LBE1653:
	.loc 1 728 0
	addl	$1, %r14d
.LVL957:
	cmpl	16(%rsp), %r14d
	movq	(%rbx), %rcx
	jne	.L438
.LVL958:
.L434:
.LBE1654:
.LBB1655:
.LBB1656:
	.loc 1 671 0
	movl	$8, %edi
	movq	%rcx, 16(%rsp)
.LVL959:
	call	malloc
.LVL960:
	.loc 1 673 0
	movl	24(%rsp), %ecx
	.loc 1 672 0
	movl	$0, (%rax)
.LBE1656:
.LBE1655:
	.loc 1 736 0
	movq	%rax, %rsi
.LBB1658:
.LBB1657:
	.loc 1 673 0
	movl	%ecx, 4(%rax)
.LBE1657:
.LBE1658:
	.loc 1 736 0
	movq	16(%rsp), %rcx
	movq	%rcx, %rdi
	call	vector_add
.LVL961:
	.loc 1 737 0
	movq	(%rbx), %rax
	movl	(%rax), %eax
	leal	-1(%rax), %r14d
.LVL962:
.L440:
.LBE1659:
.LBE1660:
.LBE1649:
.LBE1648:
.LBE1647:
.LBB1661:
.LBB1662:
.LBB1663:
.LBB1664:
	.loc 1 822 0
	movl	$8, %edi
	call	malloc
.LVL963:
.LBE1664:
.LBE1663:
	.loc 1 304 0
	movq	%rbp, %rdi
.LBB1666:
.LBB1665:
	.loc 1 823 0
	movl	$1, (%rax)
	.loc 1 824 0
	movl	%r14d, 4(%rax)
.LBE1665:
.LBE1666:
	.loc 1 304 0
	movq	%rax, %rsi
	call	vector_add
.LVL964:
	jmp	.L433
.LVL965:
	.p2align 4,,10
	.p2align 3
.L431:
.LBE1662:
.LBE1661:
.LBB1678:
	.loc 1 165 0
	movq	8(%rsp), %rcx
	movq	%rbp, %rdx
	movq	%r14, %rsi
	movq	%rbx, %rdi
	call	compile_ref_exp
.LVL966:
	jmp	.L433
.LVL967:
	.p2align 4,,10
	.p2align 3
.L420:
.LBE1678:
.LBB1679:
.LBB1676:
.LBB1667:
.LBB1668:
	.loc 1 713 0
	movq	(%rbx), %rdi
	movl	(%rdi), %eax
.LBB1669:
	.loc 1 714 0
	testl	%eax, %eax
.LBE1669:
	.loc 1 713 0
	movl	%eax, 16(%rsp)
.LVL968:
.LBB1671:
	.loc 1 714 0
	jle	.L439
	xorl	%r14d, %r14d
.LVL969:
	jmp	.L442
.LVL970:
	.p2align 4,,10
	.p2align 3
.L459:
	addl	$1, %r14d
.LVL971:
	cmpl	16(%rsp), %r14d
	movq	(%rbx), %rdi
	je	.L439
.LVL972:
.L442:
.LBB1670:
	.loc 1 715 0
	movl	%r14d, %esi
	call	vector_get
.LVL973:
	.loc 1 716 0
	cmpl	$1, (%rax)
	jne	.L459
	.p2align 4,,2
	jmp	.L440
.LVL974:
	.p2align 4,,10
	.p2align 3
.L421:
.LBE1670:
.LBE1671:
.LBE1668:
.LBE1667:
.LBE1676:
.LBE1679:
.LBB1680:
.LBB1681:
.LBB1682:
.LBB1683:
	.loc 1 257 0
	movl	16(%r14), %ecx
	xorl	%r10d, %r10d
	xorl	%r9d, %r9d
	testl	%ecx, %ecx
	jle	.L443
.LVL975:
	.p2align 4,,10
	.p2align 3
.L455:
	.loc 1 258 0
	movq	24(%r14), %rax
	movq	8(%rsp), %rcx
	movq	%rbp, %rdx
	movq	%rbx, %rsi
	movl	%r9d, 24(%rsp)
.LVL976:
	movq	%r10, 16(%rsp)
	movq	(%rax,%r10), %rdi
	call	compile_exp
.LVL977:
	.loc 1 257 0
	movl	24(%rsp), %r9d
	movq	16(%rsp), %r10
	addl	$1, %r9d
.LVL978:
	addq	$8, %r10
	cmpl	16(%r14), %r9d
	jl	.L455
.LVL979:
.L443:
.LBE1683:
	.loc 1 260 0
	movq	8(%r14), %rsi
	movq	%rbx, %rdi
	call	register_const_str
.LVL980:
.LBB1684:
.LBB1685:
	.loc 1 845 0
	movl	$12, %edi
.LBE1685:
.LBE1684:
	.loc 1 261 0
	movl	16(%r14), %r14d
.LVL981:
	.loc 1 260 0
	movl	%eax, 16(%rsp)
.LVL982:
.LBB1688:
.LBB1686:
	.loc 1 845 0
	call	malloc
.LVL983:
	.loc 1 847 0
	movl	16(%rsp), %ecx
	.loc 1 845 0
	movq	%rax, %rsi
.LVL984:
	.loc 1 846 0
	movl	$2, (%rax)
	.loc 1 848 0
	movl	%r14d, 8(%rax)
.LBE1686:
.LBE1688:
	.loc 1 261 0
	movq	%rbp, %rdi
.LBB1689:
.LBB1687:
	.loc 1 847 0
	movl	%ecx, 4(%rax)
.LBE1687:
.LBE1689:
	.loc 1 261 0
	call	vector_add
.LVL985:
	jmp	.L433
.LVL986:
	.p2align 4,,10
	.p2align 3
.L417:
.LBE1682:
.LBE1681:
.LBE1680:
.LBB1690:
.LBB1691:
	.loc 2 105 0
	movl	$.LC14, %esi
	movl	$1, %edi
	xorl	%eax, %eax
	call	__printf_chk
.LVL987:
	jmp	.L433
.LVL988:
	.p2align 4,,10
	.p2align 3
.L439:
.LBE1691:
.LBE1690:
.LBB1692:
.LBB1677:
.LBB1675:
.LBB1674:
.LBB1672:
.LBB1673:
	.loc 1 721 0
	movl	$n.3430, %esi
	call	vector_add
.LVL989:
	.loc 1 722 0
	movq	(%rbx), %rax
	movl	(%rax), %eax
	leal	-1(%rax), %r14d
	jmp	.L440
.LBE1673:
.LBE1672:
.LBE1674:
.LBE1675:
.LBE1677:
.LBE1692:
.LBE1693:
.LBE1694:
.LBE1702:
	.cfi_endproc
.LFE49:
	.size	compile_printf_exp, .-compile_printf_exp
	.p2align 4,,15
	.globl	compile_call_exp
	.type	compile_call_exp, @function
compile_call_exp:
.LFB55:
	.loc 1 325 0
	.cfi_startproc
.LVL990:
	pushq	%r15
	.cfi_def_cfa_offset 16
	.cfi_offset 15, -16
	movq	%rdi, %r15
	pushq	%r14
	.cfi_def_cfa_offset 24
	.cfi_offset 14, -24
	pushq	%r13
	.cfi_def_cfa_offset 32
	.cfi_offset 13, -32
	pushq	%r12
	.cfi_def_cfa_offset 40
	.cfi_offset 12, -40
	pushq	%rbp
	.cfi_def_cfa_offset 48
	.cfi_offset 6, -48
	movq	%rdx, %rbp
	pushq	%rbx
	.cfi_def_cfa_offset 56
	.cfi_offset 3, -56
	movq	%rsi, %rbx
	subq	$40, %rsp
	.cfi_def_cfa_offset 96
	.loc 1 326 0
	movq	8(%rdi), %rsi
.LVL991:
	movq	%rbx, %rdi
.LVL992:
	.loc 1 325 0
	movq	%rcx, (%rsp)
	.loc 1 326 0
	call	register_const_str
.LVL993:
.LBB1775:
	.loc 1 328 0
	movl	16(%r15), %edx
.LBE1775:
	.loc 1 326 0
	movl	%eax, 24(%rsp)
.LVL994:
.LBB1876:
	.loc 1 328 0
	testl	%edx, %edx
	jle	.L461
	xorl	%r12d, %r12d
	xorl	%r13d, %r13d
.LVL995:
	.p2align 4,,10
	.p2align 3
.L495:
	.loc 1 329 0 discriminator 2
	movq	24(%r15), %rax
	movq	(%rax,%r12), %r14
.LVL996:
.LBB1776:
.LBB1777:
	.loc 1 115 0 discriminator 2
	movl	(%r14), %edx
	cmpl	$12, %edx
	ja	.L462
	jmp	*.L464(,%rdx,8)
	.section	.rodata
	.align 8
	.align 4
.L464:
	.quad	.L463
	.quad	.L465
	.quad	.L466
	.quad	.L467
	.quad	.L468
	.quad	.L469
	.quad	.L470
	.quad	.L471
	.quad	.L472
	.quad	.L473
	.quad	.L474
	.quad	.L475
	.quad	.L476
	.text
	.p2align 4,,10
	.p2align 3
.L475:
.LVL997:
.LBB1778:
	.loc 1 161 0
	movq	(%rsp), %rcx
	movq	%rbp, %rdx
	movq	%rbx, %rsi
	movq	%r14, %rdi
	call	compile_while_exp
.LVL998:
	.p2align 4,,10
	.p2align 3
.L478:
.LBE1778:
.LBE1777:
.LBE1776:
	.loc 1 328 0
	movl	16(%r15), %edx
	addl	$1, %r13d
.LVL999:
	addq	$8, %r12
	cmpl	%r13d, %edx
	jg	.L495
.LVL1000:
.L461:
.LBE1876:
.LBB1877:
.LBB1878:
	.loc 1 829 0
	movl	$12, %edi
	movl	%edx, (%rsp)
.LVL1001:
	call	malloc
.LVL1002:
	.loc 1 831 0
	movl	24(%rsp), %ebx
.LVL1003:
	.loc 1 832 0
	movl	(%rsp), %edx
.LBE1878:
.LBE1877:
	.loc 1 331 0
	movq	%rax, %rsi
.LBB1881:
.LBB1879:
	.loc 1 830 0
	movl	$8, (%rax)
.LBE1879:
.LBE1881:
	.loc 1 331 0
	movq	%rbp, %rdi
.LBB1882:
.LBB1880:
	.loc 1 831 0
	movl	%ebx, 4(%rax)
	.loc 1 832 0
	movl	%edx, 8(%rax)
.LBE1880:
.LBE1882:
	.loc 1 331 0
	call	vector_add
.LVL1004:
	.loc 1 333 0
	addq	$40, %rsp
	.cfi_remember_state
	.cfi_def_cfa_offset 56
.LVL1005:
	movl	$-1, %eax
	popq	%rbx
	.cfi_def_cfa_offset 48
	popq	%rbp
	.cfi_def_cfa_offset 40
.LVL1006:
	popq	%r12
	.cfi_def_cfa_offset 32
	popq	%r13
	.cfi_def_cfa_offset 24
	popq	%r14
	.cfi_def_cfa_offset 16
	popq	%r15
	.cfi_def_cfa_offset 8
.LVL1007:
	ret
.LVL1008:
	.p2align 4,,10
	.p2align 3
.L474:
	.cfi_restore_state
.LBB1883:
.LBB1875:
.LBB1874:
.LBB1779:
	.loc 1 157 0
	movq	(%rsp), %rcx
	movq	%rbp, %rdx
	movq	%rbx, %rsi
	movq	%r14, %rdi
	call	compile_if_exp
.LVL1009:
	jmp	.L478
.LVL1010:
	.p2align 4,,10
	.p2align 3
.L473:
.LBE1779:
.LBB1780:
	.loc 1 153 0
	movq	(%rsp), %rcx
	movq	%rbp, %rdx
	movq	%rbx, %rsi
	movq	%r14, %rdi
	call	compile_set_exp
.LVL1011:
	jmp	.L478
.LVL1012:
	.p2align 4,,10
	.p2align 3
.L472:
.LBE1780:
.LBB1781:
.LBB1782:
.LBB1783:
	.loc 1 326 0
	movq	8(%r14), %rsi
	movq	%rbx, %rdi
	call	register_const_str
.LVL1013:
.LBB1784:
	.loc 1 328 0
	movl	16(%r14), %edx
.LBE1784:
	.loc 1 326 0
	movl	%eax, 28(%rsp)
.LVL1014:
.LBB1785:
	.loc 1 328 0
	testl	%edx, %edx
	jle	.L493
	xorl	%r10d, %r10d
	xorl	%r9d, %r9d
.LVL1015:
	.p2align 4,,10
	.p2align 3
.L494:
	.loc 1 329 0
	movq	24(%r14), %rax
	movq	(%rsp), %rcx
	movq	%rbp, %rdx
	movq	%rbx, %rsi
	movl	%r9d, 20(%rsp)
.LVL1016:
	movq	%r10, 8(%rsp)
	movq	(%rax,%r10), %rdi
	call	compile_exp
.LVL1017:
	.loc 1 328 0
	movl	20(%rsp), %r9d
	movl	16(%r14), %edx
	movq	8(%rsp), %r10
	addl	$1, %r9d
.LVL1018:
	addq	$8, %r10
	cmpl	%edx, %r9d
	jl	.L494
.LVL1019:
.L493:
.LBE1785:
.LBB1786:
.LBB1787:
	.loc 1 829 0
	movl	$12, %edi
	movl	%edx, 8(%rsp)
.LVL1020:
	call	malloc
.LVL1021:
	.loc 1 831 0
	movl	28(%rsp), %ecx
	.loc 1 832 0
	movl	8(%rsp), %edx
.LBE1787:
.LBE1786:
	.loc 1 331 0
	movq	%rax, %rsi
.LBB1790:
.LBB1788:
	.loc 1 830 0
	movl	$8, (%rax)
.LBE1788:
.LBE1790:
	.loc 1 331 0
	movq	%rbp, %rdi
.LBB1791:
.LBB1789:
	.loc 1 831 0
	movl	%ecx, 4(%rax)
	.loc 1 832 0
	movl	%edx, 8(%rax)
.LBE1789:
.LBE1791:
	.loc 1 331 0
	call	vector_add
.LVL1022:
	jmp	.L478
.LVL1023:
	.p2align 4,,10
	.p2align 3
.L471:
.LBE1783:
.LBE1782:
.LBE1781:
.LBB1792:
.LBB1793:
.LBB1794:
	.loc 1 315 0
	movq	16(%r14), %rdi
	movq	(%rsp), %rcx
	movq	%rbp, %rdx
	movq	%rbx, %rsi
	call	compile_exp
.LVL1024:
.LBB1795:
	.loc 1 317 0
	movl	24(%r14), %edi
	xorl	%r10d, %r10d
	xorl	%r9d, %r9d
	testl	%edi, %edi
	jle	.L491
.LVL1025:
	.p2align 4,,10
	.p2align 3
.L499:
	.loc 1 318 0
	movq	32(%r14), %rax
	movq	(%rsp), %rcx
	movq	%rbp, %rdx
	movq	%rbx, %rsi
	movl	%r9d, 20(%rsp)
.LVL1026:
	movq	%r10, 8(%rsp)
	movq	(%rax,%r10), %rdi
	call	compile_exp
.LVL1027:
	.loc 1 317 0
	movl	20(%rsp), %r9d
	movq	8(%rsp), %r10
	addl	$1, %r9d
.LVL1028:
	addq	$8, %r10
	cmpl	24(%r14), %r9d
	jl	.L499
.LVL1029:
.L491:
.LBE1795:
	.loc 1 320 0
	movq	8(%r14), %rsi
	movq	%rbx, %rdi
	call	register_const_str
.LVL1030:
	movl	%eax, 8(%rsp)
.LVL1031:
	.loc 1 321 0
	movl	24(%r14), %eax
.LVL1032:
.LBB1796:
.LBB1797:
	.loc 1 837 0
	movl	$12, %edi
.LBE1797:
.LBE1796:
	.loc 1 321 0
	leal	1(%rax), %r14d
.LVL1033:
.LBB1800:
.LBB1798:
	.loc 1 837 0
	call	malloc
.LVL1034:
	.loc 1 839 0
	movl	8(%rsp), %edx
	.loc 1 837 0
	movq	%rax, %rsi
.LVL1035:
	.loc 1 838 0
	movl	$7, (%rax)
	.loc 1 840 0
	movl	%r14d, 8(%rax)
.LBE1798:
.LBE1800:
	.loc 1 321 0
	movq	%rbp, %rdi
.LBB1801:
.LBB1799:
	.loc 1 839 0
	movl	%edx, 4(%rax)
.LBE1799:
.LBE1801:
	.loc 1 321 0
	call	vector_add
.LVL1036:
	jmp	.L478
.LVL1037:
	.p2align 4,,10
	.p2align 3
.L470:
.LBE1794:
.LBE1793:
.LBE1792:
.LBB1802:
.LBB1803:
.LBB1804:
	.loc 1 184 0
	movq	16(%r14), %rdi
	movq	(%rsp), %rcx
	movq	%rbp, %rdx
	movq	%rbx, %rsi
	call	compile_exp
.LVL1038:
	.loc 1 185 0
	movq	(%rsp), %rcx
	movq	24(%r14), %rdi
	movq	%rbp, %rdx
	movq	%rbx, %rsi
	call	compile_exp
.LVL1039:
	.loc 1 186 0
	movq	8(%r14), %rsi
	movq	%rbx, %rdi
	call	register_const_str
.LVL1040:
.LBB1805:
.LBB1806:
	.loc 1 881 0
	movl	$8, %edi
.LBE1806:
.LBE1805:
	.loc 1 186 0
	movl	%eax, %r14d
.LVL1041:
.LBB1809:
.LBB1807:
	.loc 1 881 0
	call	malloc
.LVL1042:
.LBE1807:
.LBE1809:
	.loc 1 187 0
	movq	%rbp, %rdi
.LBB1810:
.LBB1808:
	.loc 1 881 0
	movq	%rax, %rsi
.LVL1043:
	.loc 1 882 0
	movl	$6, (%rax)
	.loc 1 883 0
	movl	%r14d, 4(%rax)
.LBE1808:
.LBE1810:
	.loc 1 187 0
	call	vector_add
.LVL1044:
	jmp	.L478
.LVL1045:
	.p2align 4,,10
	.p2align 3
.L469:
.LBE1804:
.LBE1803:
.LBE1802:
.LBB1811:
.LBB1812:
.LBB1813:
	.loc 1 177 0
	movq	(%rsp), %rcx
	movq	16(%r14), %rdi
	movq	%rbp, %rdx
	movq	%rbx, %rsi
	call	compile_exp
.LVL1046:
	.loc 1 178 0
	movq	8(%r14), %rsi
	movq	%rbx, %rdi
	call	register_const_str
.LVL1047:
.LBB1814:
.LBB1815:
	.loc 1 874 0
	movl	$8, %edi
.LBE1815:
.LBE1814:
	.loc 1 178 0
	movl	%eax, %r14d
.LVL1048:
.LBB1818:
.LBB1816:
	.loc 1 874 0
	call	malloc
.LVL1049:
.LBE1816:
.LBE1818:
	.loc 1 179 0
	movq	%rbp, %rdi
.LBB1819:
.LBB1817:
	.loc 1 874 0
	movq	%rax, %rsi
.LVL1050:
	.loc 1 875 0
	movl	$5, (%rax)
	.loc 1 876 0
	movl	%r14d, 4(%rax)
.LBE1817:
.LBE1819:
	.loc 1 179 0
	call	vector_add
.LVL1051:
	jmp	.L478
.LVL1052:
	.p2align 4,,10
	.p2align 3
.L468:
.LBE1813:
.LBE1812:
.LBE1811:
.LBB1820:
	.loc 1 133 0
	movq	(%rsp), %rcx
	movq	%rbp, %rdx
	movq	%rbx, %rsi
	movq	%r14, %rdi
	call	compile_object_exp
.LVL1053:
	jmp	.L478
.LVL1054:
	.p2align 4,,10
	.p2align 3
.L467:
.LBE1820:
.LBB1821:
.LBB1822:
.LBB1823:
	.loc 1 207 0
	movq	8(%r14), %rdi
	movq	(%rsp), %rcx
	movq	%rbp, %rdx
	movq	%rbx, %rsi
	call	compile_exp
.LVL1055:
	.loc 1 208 0
	movq	16(%r14), %rdi
	movq	(%rsp), %rcx
	movq	%rbx, %rsi
	movq	%rbp, %rdx
	call	compile_exp
.LVL1056:
.LBB1824:
.LBB1825:
	.loc 1 816 0
	movl	$4, %edi
	call	malloc
.LVL1057:
.LBE1825:
.LBE1824:
	.loc 1 209 0
	movq	%rbp, %rdi
.LBB1827:
.LBB1826:
	.loc 1 817 0
	movl	$3, (%rax)
.LBE1826:
.LBE1827:
	.loc 1 209 0
	movq	%rax, %rsi
	call	vector_add
.LVL1058:
	jmp	.L478
.LVL1059:
	.p2align 4,,10
	.p2align 3
.L463:
.LBE1823:
.LBE1822:
.LBE1821:
.LBB1828:
.LBB1829:
.LBB1830:
	.loc 1 309 0
	movl	4(%r14), %eax
.LBB1831:
.LBB1832:
	.loc 1 727 0
	movq	(%rbx), %rcx
.LBE1832:
.LBE1831:
	.loc 1 309 0
	movl	%eax, 20(%rsp)
.LVL1060:
.LBB1841:
.LBB1840:
	.loc 1 727 0
	movl	(%rcx), %eax
.LVL1061:
.LBB1833:
	.loc 1 728 0
	testl	%eax, %eax
.LBE1833:
	.loc 1 727 0
	movl	%eax, 8(%rsp)
.LVL1062:
.LBB1835:
	.loc 1 728 0
	jle	.L479
	xorl	%r14d, %r14d
.LVL1063:
	.p2align 4,,10
	.p2align 3
.L483:
.LBB1834:
	.loc 1 729 0
	movl	%r14d, %esi
	movq	%rcx, %rdi
	call	vector_get
.LVL1064:
	.loc 1 730 0
	movl	(%rax), %r8d
	testl	%r8d, %r8d
	jne	.L480
	movl	20(%rsp), %ecx
	cmpl	4(%rax), %ecx
	je	.L485
.L480:
.LBE1834:
	.loc 1 728 0
	addl	$1, %r14d
.LVL1065:
	cmpl	8(%rsp), %r14d
	movq	(%rbx), %rcx
	jne	.L483
.LVL1066:
.L479:
.LBE1835:
.LBB1836:
.LBB1837:
	.loc 1 671 0
	movl	$8, %edi
	movq	%rcx, 8(%rsp)
.LVL1067:
	call	malloc
.LVL1068:
	.loc 1 673 0
	movl	20(%rsp), %ecx
	.loc 1 672 0
	movl	$0, (%rax)
.LBE1837:
.LBE1836:
	.loc 1 736 0
	movq	%rax, %rsi
.LBB1839:
.LBB1838:
	.loc 1 673 0
	movl	%ecx, 4(%rax)
.LBE1838:
.LBE1839:
	.loc 1 736 0
	movq	8(%rsp), %rcx
	movq	%rcx, %rdi
	call	vector_add
.LVL1069:
	.loc 1 737 0
	movq	(%rbx), %rax
	movl	(%rax), %eax
	leal	-1(%rax), %r14d
.LVL1070:
.L485:
.LBE1840:
.LBE1841:
.LBE1830:
.LBE1829:
.LBE1828:
.LBB1842:
.LBB1843:
.LBB1844:
.LBB1845:
	.loc 1 822 0
	movl	$8, %edi
	call	malloc
.LVL1071:
.LBE1845:
.LBE1844:
	.loc 1 304 0
	movq	%rbp, %rdi
.LBB1847:
.LBB1846:
	.loc 1 823 0
	movl	$1, (%rax)
	.loc 1 824 0
	movl	%r14d, 4(%rax)
.LBE1846:
.LBE1847:
	.loc 1 304 0
	movq	%rax, %rsi
	call	vector_add
.LVL1072:
	jmp	.L478
.LVL1073:
	.p2align 4,,10
	.p2align 3
.L476:
.LBE1843:
.LBE1842:
.LBB1859:
	.loc 1 165 0
	movq	(%rsp), %rcx
	movq	%rbp, %rdx
	movq	%r14, %rsi
	movq	%rbx, %rdi
	call	compile_ref_exp
.LVL1074:
	jmp	.L478
.LVL1075:
	.p2align 4,,10
	.p2align 3
.L465:
.LBE1859:
.LBB1860:
.LBB1857:
.LBB1848:
.LBB1849:
	.loc 1 713 0
	movq	(%rbx), %rdi
	movl	(%rdi), %eax
.LBB1850:
	.loc 1 714 0
	testl	%eax, %eax
.LBE1850:
	.loc 1 713 0
	movl	%eax, 8(%rsp)
.LVL1076:
.LBB1852:
	.loc 1 714 0
	jle	.L484
	xorl	%r14d, %r14d
.LVL1077:
	jmp	.L487
.LVL1078:
	.p2align 4,,10
	.p2align 3
.L501:
	addl	$1, %r14d
.LVL1079:
	cmpl	8(%rsp), %r14d
	movq	(%rbx), %rdi
	je	.L484
.LVL1080:
.L487:
.LBB1851:
	.loc 1 715 0
	movl	%r14d, %esi
	call	vector_get
.LVL1081:
	.loc 1 716 0
	cmpl	$1, (%rax)
	jne	.L501
	.p2align 4,,2
	jmp	.L485
.LVL1082:
	.p2align 4,,10
	.p2align 3
.L466:
.LBE1851:
.LBE1852:
.LBE1849:
.LBE1848:
.LBE1857:
.LBE1860:
.LBB1861:
.LBB1862:
.LBB1863:
.LBB1864:
	.loc 1 257 0
	movl	16(%r14), %r11d
	xorl	%r10d, %r10d
	xorl	%r9d, %r9d
	testl	%r11d, %r11d
	jle	.L488
.LVL1083:
	.p2align 4,,10
	.p2align 3
.L498:
	.loc 1 258 0
	movq	24(%r14), %rax
	movq	(%rsp), %rcx
	movq	%rbp, %rdx
	movq	%rbx, %rsi
	movl	%r9d, 20(%rsp)
.LVL1084:
	movq	%r10, 8(%rsp)
	movq	(%rax,%r10), %rdi
	call	compile_exp
.LVL1085:
	.loc 1 257 0
	movl	20(%rsp), %r9d
	movq	8(%rsp), %r10
	addl	$1, %r9d
.LVL1086:
	addq	$8, %r10
	cmpl	16(%r14), %r9d
	jl	.L498
.LVL1087:
.L488:
.LBE1864:
	.loc 1 260 0
	movq	8(%r14), %rsi
	movq	%rbx, %rdi
	call	register_const_str
.LVL1088:
.LBB1865:
.LBB1866:
	.loc 1 845 0
	movl	$12, %edi
.LBE1866:
.LBE1865:
	.loc 1 261 0
	movl	16(%r14), %r14d
.LVL1089:
	.loc 1 260 0
	movl	%eax, 8(%rsp)
.LVL1090:
.LBB1869:
.LBB1867:
	.loc 1 845 0
	call	malloc
.LVL1091:
	.loc 1 847 0
	movl	8(%rsp), %ecx
	.loc 1 845 0
	movq	%rax, %rsi
.LVL1092:
	.loc 1 846 0
	movl	$2, (%rax)
	.loc 1 848 0
	movl	%r14d, 8(%rax)
.LBE1867:
.LBE1869:
	.loc 1 261 0
	movq	%rbp, %rdi
.LBB1870:
.LBB1868:
	.loc 1 847 0
	movl	%ecx, 4(%rax)
.LBE1868:
.LBE1870:
	.loc 1 261 0
	call	vector_add
.LVL1093:
	jmp	.L478
.LVL1094:
	.p2align 4,,10
	.p2align 3
.L462:
.LBE1863:
.LBE1862:
.LBE1861:
.LBB1871:
.LBB1872:
	.loc 2 105 0
	movl	$.LC14, %esi
	movl	$1, %edi
	xorl	%eax, %eax
	call	__printf_chk
.LVL1095:
	jmp	.L478
.LVL1096:
	.p2align 4,,10
	.p2align 3
.L484:
.LBE1872:
.LBE1871:
.LBB1873:
.LBB1858:
.LBB1856:
.LBB1855:
.LBB1853:
.LBB1854:
	.loc 1 721 0
	movl	$n.3430, %esi
	call	vector_add
.LVL1097:
	.loc 1 722 0
	movq	(%rbx), %rax
	movl	(%rax), %eax
	leal	-1(%rax), %r14d
	jmp	.L485
.LBE1854:
.LBE1853:
.LBE1855:
.LBE1856:
.LBE1858:
.LBE1873:
.LBE1874:
.LBE1875:
.LBE1883:
	.cfi_endproc
.LFE55:
	.size	compile_call_exp, .-compile_call_exp
	.p2align 4,,15
	.globl	compile_call_slot_exp
	.type	compile_call_slot_exp, @function
compile_call_slot_exp:
.LFB54:
	.loc 1 314 0
	.cfi_startproc
.LVL1098:
	pushq	%r15
	.cfi_def_cfa_offset 16
	.cfi_offset 15, -16
	movq	%rdi, %r15
	pushq	%r14
	.cfi_def_cfa_offset 24
	.cfi_offset 14, -24
.LBB1956:
	.loc 1 317 0
	xorl	%r14d, %r14d
.LBE1956:
	.loc 1 314 0
	pushq	%r13
	.cfi_def_cfa_offset 32
	.cfi_offset 13, -32
.LBB2057:
	.loc 1 317 0
	xorl	%r13d, %r13d
.LBE2057:
	.loc 1 314 0
	pushq	%r12
	.cfi_def_cfa_offset 40
	.cfi_offset 12, -40
	pushq	%rbp
	.cfi_def_cfa_offset 48
	.cfi_offset 6, -48
	movq	%rdx, %rbp
	pushq	%rbx
	.cfi_def_cfa_offset 56
	.cfi_offset 3, -56
	movq	%rsi, %rbx
	subq	$40, %rsp
	.cfi_def_cfa_offset 96
	.loc 1 315 0
	movq	16(%rdi), %rdi
.LVL1099:
	.loc 1 314 0
	movq	%rcx, 8(%rsp)
	.loc 1 315 0
	call	compile_exp
.LVL1100:
.LBB2058:
	.loc 1 317 0
	movl	24(%r15), %esi
	testl	%esi, %esi
	jle	.L537
.LVL1101:
	.p2align 4,,10
	.p2align 3
.L541:
	.loc 1 318 0 discriminator 2
	movq	32(%r15), %rax
	movq	(%rax,%r13), %r12
.LVL1102:
.LBB1957:
.LBB1958:
	.loc 1 115 0 discriminator 2
	movl	(%r12), %edx
	cmpl	$12, %edx
	ja	.L504
	jmp	*.L506(,%rdx,8)
	.section	.rodata
	.align 8
	.align 4
.L506:
	.quad	.L505
	.quad	.L507
	.quad	.L508
	.quad	.L509
	.quad	.L510
	.quad	.L511
	.quad	.L512
	.quad	.L513
	.quad	.L514
	.quad	.L515
	.quad	.L516
	.quad	.L517
	.quad	.L518
	.text
	.p2align 4,,10
	.p2align 3
.L517:
.LVL1103:
.LBB1959:
	.loc 1 161 0
	movq	8(%rsp), %rcx
	movq	%rbp, %rdx
	movq	%rbx, %rsi
	movq	%r12, %rdi
	call	compile_while_exp
.LVL1104:
	.p2align 4,,10
	.p2align 3
.L520:
.LBE1959:
.LBE1958:
.LBE1957:
	.loc 1 317 0
	addl	$1, %r14d
.LVL1105:
	addq	$8, %r13
	cmpl	%r14d, 24(%r15)
	jg	.L541
.LVL1106:
.L537:
.LBE2058:
	.loc 1 320 0
	movq	8(%r15), %rsi
	movq	%rbx, %rdi
	call	register_const_str
.LVL1107:
	.loc 1 321 0
	movl	24(%r15), %ebx
.LVL1108:
	.loc 1 320 0
	movl	%eax, %r12d
.LVL1109:
.LBB2059:
.LBB2060:
	.loc 1 837 0
	movl	$12, %edi
	call	malloc
.LVL1110:
.LBE2060:
.LBE2059:
	.loc 1 321 0
	movq	%rbp, %rdi
.LBB2063:
.LBB2061:
	.loc 1 839 0
	movl	%r12d, 4(%rax)
	.loc 1 837 0
	movq	%rax, %rsi
.LBE2061:
.LBE2063:
	.loc 1 321 0
	addl	$1, %ebx
.LVL1111:
.LBB2064:
.LBB2062:
	.loc 1 838 0
	movl	$7, (%rax)
	.loc 1 840 0
	movl	%ebx, 8(%rax)
.LBE2062:
.LBE2064:
	.loc 1 321 0
	call	vector_add
.LVL1112:
	.loc 1 323 0
	addq	$40, %rsp
	.cfi_remember_state
	.cfi_def_cfa_offset 56
	movl	$-1, %eax
	popq	%rbx
	.cfi_def_cfa_offset 48
.LVL1113:
	popq	%rbp
	.cfi_def_cfa_offset 40
.LVL1114:
	popq	%r12
	.cfi_def_cfa_offset 32
.LVL1115:
	popq	%r13
	.cfi_def_cfa_offset 24
	popq	%r14
	.cfi_def_cfa_offset 16
	popq	%r15
	.cfi_def_cfa_offset 8
.LVL1116:
	ret
.LVL1117:
	.p2align 4,,10
	.p2align 3
.L516:
	.cfi_restore_state
.LBB2065:
.LBB2056:
.LBB2055:
.LBB1960:
	.loc 1 157 0
	movq	8(%rsp), %rcx
	movq	%rbp, %rdx
	movq	%rbx, %rsi
	movq	%r12, %rdi
	call	compile_if_exp
.LVL1118:
	jmp	.L520
.LVL1119:
	.p2align 4,,10
	.p2align 3
.L515:
.LBE1960:
.LBB1961:
	.loc 1 153 0
	movq	8(%rsp), %rcx
	movq	%rbp, %rdx
	movq	%rbx, %rsi
	movq	%r12, %rdi
	call	compile_set_exp
.LVL1120:
	jmp	.L520
.LVL1121:
	.p2align 4,,10
	.p2align 3
.L514:
.LBE1961:
.LBB1962:
.LBB1963:
.LBB1964:
	.loc 1 326 0
	movq	8(%r12), %rsi
	movq	%rbx, %rdi
	call	register_const_str
.LVL1122:
.LBB1965:
	.loc 1 328 0
	movl	16(%r12), %edx
.LBE1965:
	.loc 1 326 0
	movl	%eax, 28(%rsp)
.LVL1123:
.LBB1966:
	.loc 1 328 0
	testl	%edx, %edx
	jle	.L535
	xorl	%r10d, %r10d
	xorl	%r9d, %r9d
.LVL1124:
	.p2align 4,,10
	.p2align 3
.L536:
	.loc 1 329 0
	movq	24(%r12), %rax
	movq	8(%rsp), %rcx
	movq	%rbp, %rdx
	movq	%rbx, %rsi
	movl	%r9d, 24(%rsp)
.LVL1125:
	movq	%r10, 16(%rsp)
	movq	(%rax,%r10), %rdi
	call	compile_exp
.LVL1126:
	.loc 1 328 0
	movl	24(%rsp), %r9d
	movl	16(%r12), %edx
	movq	16(%rsp), %r10
	addl	$1, %r9d
.LVL1127:
	addq	$8, %r10
	cmpl	%edx, %r9d
	jl	.L536
.LVL1128:
.L535:
.LBE1966:
.LBB1967:
.LBB1968:
	.loc 1 829 0
	movl	$12, %edi
	movl	%edx, 16(%rsp)
.LVL1129:
	call	malloc
.LVL1130:
	.loc 1 831 0
	movl	28(%rsp), %ecx
	.loc 1 832 0
	movl	16(%rsp), %edx
.LBE1968:
.LBE1967:
	.loc 1 331 0
	movq	%rax, %rsi
.LBB1971:
.LBB1969:
	.loc 1 830 0
	movl	$8, (%rax)
.LBE1969:
.LBE1971:
	.loc 1 331 0
	movq	%rbp, %rdi
.LBB1972:
.LBB1970:
	.loc 1 831 0
	movl	%ecx, 4(%rax)
	.loc 1 832 0
	movl	%edx, 8(%rax)
.LBE1970:
.LBE1972:
	.loc 1 331 0
	call	vector_add
.LVL1131:
	jmp	.L520
.LVL1132:
	.p2align 4,,10
	.p2align 3
.L513:
.LBE1964:
.LBE1963:
.LBE1962:
.LBB1973:
.LBB1974:
.LBB1975:
	.loc 1 315 0
	movq	16(%r12), %rdi
	movq	8(%rsp), %rcx
	movq	%rbp, %rdx
	movq	%rbx, %rsi
	call	compile_exp
.LVL1133:
.LBB1976:
	.loc 1 317 0
	movl	24(%r12), %eax
	xorl	%r10d, %r10d
	xorl	%r9d, %r9d
	testl	%eax, %eax
	jle	.L533
.LVL1134:
	.p2align 4,,10
	.p2align 3
.L543:
	.loc 1 318 0
	movq	32(%r12), %rax
	movq	8(%rsp), %rcx
	movq	%rbp, %rdx
	movq	%rbx, %rsi
	movl	%r9d, 24(%rsp)
.LVL1135:
	movq	%r10, 16(%rsp)
	movq	(%rax,%r10), %rdi
	call	compile_exp
.LVL1136:
	.loc 1 317 0
	movl	24(%rsp), %r9d
	movq	16(%rsp), %r10
	addl	$1, %r9d
.LVL1137:
	addq	$8, %r10
	cmpl	24(%r12), %r9d
	jl	.L543
.LVL1138:
.L533:
.LBE1976:
	.loc 1 320 0
	movq	8(%r12), %rsi
	movq	%rbx, %rdi
	call	register_const_str
.LVL1139:
	movl	%eax, 16(%rsp)
.LVL1140:
	.loc 1 321 0
	movl	24(%r12), %eax
.LVL1141:
.LBB1977:
.LBB1978:
	.loc 1 837 0
	movl	$12, %edi
.LBE1978:
.LBE1977:
	.loc 1 321 0
	leal	1(%rax), %r12d
.LVL1142:
.LBB1981:
.LBB1979:
	.loc 1 837 0
	call	malloc
.LVL1143:
	.loc 1 839 0
	movl	16(%rsp), %edx
	.loc 1 837 0
	movq	%rax, %rsi
.LVL1144:
	.loc 1 838 0
	movl	$7, (%rax)
	.loc 1 840 0
	movl	%r12d, 8(%rax)
.LBE1979:
.LBE1981:
	.loc 1 321 0
	movq	%rbp, %rdi
.LBB1982:
.LBB1980:
	.loc 1 839 0
	movl	%edx, 4(%rax)
.LBE1980:
.LBE1982:
	.loc 1 321 0
	call	vector_add
.LVL1145:
	jmp	.L520
.LVL1146:
	.p2align 4,,10
	.p2align 3
.L512:
.LBE1975:
.LBE1974:
.LBE1973:
.LBB1983:
.LBB1984:
.LBB1985:
	.loc 1 184 0
	movq	16(%r12), %rdi
	movq	8(%rsp), %rcx
	movq	%rbp, %rdx
	movq	%rbx, %rsi
	call	compile_exp
.LVL1147:
	.loc 1 185 0
	movq	8(%rsp), %rcx
	movq	24(%r12), %rdi
	movq	%rbp, %rdx
	movq	%rbx, %rsi
	call	compile_exp
.LVL1148:
	.loc 1 186 0
	movq	8(%r12), %rsi
	movq	%rbx, %rdi
	call	register_const_str
.LVL1149:
.LBB1986:
.LBB1987:
	.loc 1 881 0
	movl	$8, %edi
.LBE1987:
.LBE1986:
	.loc 1 186 0
	movl	%eax, %r12d
.LVL1150:
.LBB1990:
.LBB1988:
	.loc 1 881 0
	call	malloc
.LVL1151:
.LBE1988:
.LBE1990:
	.loc 1 187 0
	movq	%rbp, %rdi
.LBB1991:
.LBB1989:
	.loc 1 881 0
	movq	%rax, %rsi
.LVL1152:
	.loc 1 882 0
	movl	$6, (%rax)
	.loc 1 883 0
	movl	%r12d, 4(%rax)
.LBE1989:
.LBE1991:
	.loc 1 187 0
	call	vector_add
.LVL1153:
	jmp	.L520
.LVL1154:
	.p2align 4,,10
	.p2align 3
.L511:
.LBE1985:
.LBE1984:
.LBE1983:
.LBB1992:
.LBB1993:
.LBB1994:
	.loc 1 177 0
	movq	8(%rsp), %rcx
	movq	16(%r12), %rdi
	movq	%rbp, %rdx
	movq	%rbx, %rsi
	call	compile_exp
.LVL1155:
	.loc 1 178 0
	movq	8(%r12), %rsi
	movq	%rbx, %rdi
	call	register_const_str
.LVL1156:
.LBB1995:
.LBB1996:
	.loc 1 874 0
	movl	$8, %edi
.LBE1996:
.LBE1995:
	.loc 1 178 0
	movl	%eax, %r12d
.LVL1157:
.LBB1999:
.LBB1997:
	.loc 1 874 0
	call	malloc
.LVL1158:
.LBE1997:
.LBE1999:
	.loc 1 179 0
	movq	%rbp, %rdi
.LBB2000:
.LBB1998:
	.loc 1 874 0
	movq	%rax, %rsi
.LVL1159:
	.loc 1 875 0
	movl	$5, (%rax)
	.loc 1 876 0
	movl	%r12d, 4(%rax)
.LBE1998:
.LBE2000:
	.loc 1 179 0
	call	vector_add
.LVL1160:
	jmp	.L520
.LVL1161:
	.p2align 4,,10
	.p2align 3
.L510:
.LBE1994:
.LBE1993:
.LBE1992:
.LBB2001:
	.loc 1 133 0
	movq	8(%rsp), %rcx
	movq	%rbp, %rdx
	movq	%rbx, %rsi
	movq	%r12, %rdi
	call	compile_object_exp
.LVL1162:
	jmp	.L520
.LVL1163:
	.p2align 4,,10
	.p2align 3
.L509:
.LBE2001:
.LBB2002:
.LBB2003:
.LBB2004:
	.loc 1 207 0
	movq	8(%r12), %rdi
	movq	8(%rsp), %rcx
	movq	%rbp, %rdx
	movq	%rbx, %rsi
	call	compile_exp
.LVL1164:
	.loc 1 208 0
	movq	16(%r12), %rdi
	movq	8(%rsp), %rcx
	movq	%rbx, %rsi
	movq	%rbp, %rdx
	call	compile_exp
.LVL1165:
.LBB2005:
.LBB2006:
	.loc 1 816 0
	movl	$4, %edi
	call	malloc
.LVL1166:
.LBE2006:
.LBE2005:
	.loc 1 209 0
	movq	%rbp, %rdi
.LBB2008:
.LBB2007:
	.loc 1 817 0
	movl	$3, (%rax)
.LBE2007:
.LBE2008:
	.loc 1 209 0
	movq	%rax, %rsi
	call	vector_add
.LVL1167:
	jmp	.L520
.LVL1168:
	.p2align 4,,10
	.p2align 3
.L505:
.LBE2004:
.LBE2003:
.LBE2002:
.LBB2009:
.LBB2010:
.LBB2011:
	.loc 1 309 0
	movl	4(%r12), %eax
.LBB2012:
.LBB2013:
	.loc 1 727 0
	movq	(%rbx), %rcx
.LBE2013:
.LBE2012:
	.loc 1 309 0
	movl	%eax, 24(%rsp)
.LVL1169:
.LBB2022:
.LBB2021:
	.loc 1 727 0
	movl	(%rcx), %eax
.LVL1170:
.LBB2014:
	.loc 1 728 0
	testl	%eax, %eax
.LBE2014:
	.loc 1 727 0
	movl	%eax, 16(%rsp)
.LVL1171:
.LBB2016:
	.loc 1 728 0
	jle	.L521
	xorl	%r12d, %r12d
.LVL1172:
	.p2align 4,,10
	.p2align 3
.L525:
.LBB2015:
	.loc 1 729 0
	movl	%r12d, %esi
	movq	%rcx, %rdi
	call	vector_get
.LVL1173:
	.loc 1 730 0
	movl	(%rax), %edx
	testl	%edx, %edx
	jne	.L522
	movl	24(%rsp), %ecx
	cmpl	4(%rax), %ecx
	je	.L527
.L522:
.LBE2015:
	.loc 1 728 0
	addl	$1, %r12d
.LVL1174:
	cmpl	16(%rsp), %r12d
	movq	(%rbx), %rcx
	jne	.L525
.LVL1175:
.L521:
.LBE2016:
.LBB2017:
.LBB2018:
	.loc 1 671 0
	movl	$8, %edi
	movq	%rcx, 16(%rsp)
.LVL1176:
	call	malloc
.LVL1177:
	.loc 1 673 0
	movl	24(%rsp), %ecx
	.loc 1 672 0
	movl	$0, (%rax)
.LBE2018:
.LBE2017:
	.loc 1 736 0
	movq	%rax, %rsi
.LBB2020:
.LBB2019:
	.loc 1 673 0
	movl	%ecx, 4(%rax)
.LBE2019:
.LBE2020:
	.loc 1 736 0
	movq	16(%rsp), %rcx
	movq	%rcx, %rdi
	call	vector_add
.LVL1178:
	.loc 1 737 0
	movq	(%rbx), %rax
	movl	(%rax), %eax
	leal	-1(%rax), %r12d
.LVL1179:
.L527:
.LBE2021:
.LBE2022:
.LBE2011:
.LBE2010:
.LBE2009:
.LBB2023:
.LBB2024:
.LBB2025:
.LBB2026:
	.loc 1 822 0
	movl	$8, %edi
	call	malloc
.LVL1180:
.LBE2026:
.LBE2025:
	.loc 1 304 0
	movq	%rbp, %rdi
.LBB2028:
.LBB2027:
	.loc 1 823 0
	movl	$1, (%rax)
	.loc 1 824 0
	movl	%r12d, 4(%rax)
.LBE2027:
.LBE2028:
	.loc 1 304 0
	movq	%rax, %rsi
	call	vector_add
.LVL1181:
	jmp	.L520
.LVL1182:
	.p2align 4,,10
	.p2align 3
.L518:
.LBE2024:
.LBE2023:
.LBB2040:
	.loc 1 165 0
	movq	8(%rsp), %rcx
	movq	%rbp, %rdx
	movq	%r12, %rsi
	movq	%rbx, %rdi
	call	compile_ref_exp
.LVL1183:
	jmp	.L520
.LVL1184:
	.p2align 4,,10
	.p2align 3
.L507:
.LBE2040:
.LBB2041:
.LBB2038:
.LBB2029:
.LBB2030:
	.loc 1 713 0
	movq	(%rbx), %rdi
	movl	(%rdi), %eax
.LBB2031:
	.loc 1 714 0
	testl	%eax, %eax
.LBE2031:
	.loc 1 713 0
	movl	%eax, 16(%rsp)
.LVL1185:
.LBB2033:
	.loc 1 714 0
	jle	.L526
	xorl	%r12d, %r12d
.LVL1186:
	jmp	.L529
.LVL1187:
	.p2align 4,,10
	.p2align 3
.L546:
	addl	$1, %r12d
.LVL1188:
	cmpl	16(%rsp), %r12d
	movq	(%rbx), %rdi
	je	.L526
.LVL1189:
.L529:
.LBB2032:
	.loc 1 715 0
	movl	%r12d, %esi
	call	vector_get
.LVL1190:
	.loc 1 716 0
	cmpl	$1, (%rax)
	jne	.L546
	.p2align 4,,2
	jmp	.L527
.LVL1191:
	.p2align 4,,10
	.p2align 3
.L508:
.LBE2032:
.LBE2033:
.LBE2030:
.LBE2029:
.LBE2038:
.LBE2041:
.LBB2042:
.LBB2043:
.LBB2044:
.LBB2045:
	.loc 1 257 0
	movl	16(%r12), %ecx
	xorl	%r10d, %r10d
	xorl	%r9d, %r9d
	testl	%ecx, %ecx
	jle	.L530
.LVL1192:
	.p2align 4,,10
	.p2align 3
.L542:
	.loc 1 258 0
	movq	24(%r12), %rax
	movq	8(%rsp), %rcx
	movq	%rbp, %rdx
	movq	%rbx, %rsi
	movl	%r9d, 24(%rsp)
.LVL1193:
	movq	%r10, 16(%rsp)
	movq	(%rax,%r10), %rdi
	call	compile_exp
.LVL1194:
	.loc 1 257 0
	movl	24(%rsp), %r9d
	movq	16(%rsp), %r10
	addl	$1, %r9d
.LVL1195:
	addq	$8, %r10
	cmpl	16(%r12), %r9d
	jl	.L542
.LVL1196:
.L530:
.LBE2045:
	.loc 1 260 0
	movq	8(%r12), %rsi
	movq	%rbx, %rdi
	call	register_const_str
.LVL1197:
.LBB2046:
.LBB2047:
	.loc 1 845 0
	movl	$12, %edi
.LBE2047:
.LBE2046:
	.loc 1 261 0
	movl	16(%r12), %r12d
.LVL1198:
	.loc 1 260 0
	movl	%eax, 16(%rsp)
.LVL1199:
.LBB2050:
.LBB2048:
	.loc 1 845 0
	call	malloc
.LVL1200:
	.loc 1 847 0
	movl	16(%rsp), %ecx
	.loc 1 845 0
	movq	%rax, %rsi
.LVL1201:
	.loc 1 846 0
	movl	$2, (%rax)
	.loc 1 848 0
	movl	%r12d, 8(%rax)
.LBE2048:
.LBE2050:
	.loc 1 261 0
	movq	%rbp, %rdi
.LBB2051:
.LBB2049:
	.loc 1 847 0
	movl	%ecx, 4(%rax)
.LBE2049:
.LBE2051:
	.loc 1 261 0
	call	vector_add
.LVL1202:
	jmp	.L520
.LVL1203:
	.p2align 4,,10
	.p2align 3
.L504:
.LBE2044:
.LBE2043:
.LBE2042:
.LBB2052:
.LBB2053:
	.loc 2 105 0
	movl	$.LC14, %esi
	movl	$1, %edi
	xorl	%eax, %eax
	call	__printf_chk
.LVL1204:
	jmp	.L520
.LVL1205:
	.p2align 4,,10
	.p2align 3
.L526:
.LBE2053:
.LBE2052:
.LBB2054:
.LBB2039:
.LBB2037:
.LBB2036:
.LBB2034:
.LBB2035:
	.loc 1 721 0
	movl	$n.3430, %esi
	call	vector_add
.LVL1206:
	.loc 1 722 0
	movq	(%rbx), %rax
	movl	(%rax), %eax
	leal	-1(%rax), %r12d
	jmp	.L527
.LBE2035:
.LBE2034:
.LBE2036:
.LBE2037:
.LBE2039:
.LBE2054:
.LBE2055:
.LBE2056:
.LBE2065:
	.cfi_endproc
.LFE54:
	.size	compile_call_slot_exp, .-compile_call_slot_exp
	.p2align 4,,15
	.globl	register_const_slot
	.type	register_const_slot, @function
register_const_slot:
.LFB87:
	.loc 1 755 0
	.cfi_startproc
.LVL1207:
	pushq	%r12
	.cfi_def_cfa_offset 16
	.cfi_offset 12, -16
	movq	%rsi, %r12
	pushq	%rbp
	.cfi_def_cfa_offset 24
	.cfi_offset 6, -24
	pushq	%rbx
	.cfi_def_cfa_offset 32
	.cfi_offset 3, -32
	.loc 1 755 0
	movq	%rdi, %rbx
.LVL1208:
.LBB2068:
.LBB2069:
	.loc 1 685 0
	movl	$8, %edi
.LVL1209:
	call	malloc
.LVL1210:
	.loc 1 687 0
	movq	%r12, %rsi
	movq	%rbx, %rdi
	.loc 1 686 0
	movl	$4, (%rax)
	.loc 1 685 0
	movq	%rax, %rbp
.LVL1211:
	.loc 1 687 0
	call	register_const_str
.LVL1212:
.LBE2069:
.LBE2068:
	.loc 1 757 0
	movq	(%rbx), %rdi
	movq	%rbp, %rsi
.LBB2071:
.LBB2070:
	.loc 1 687 0
	movl	%eax, 4(%rbp)
.LBE2070:
.LBE2071:
	.loc 1 757 0
	call	vector_add
.LVL1213:
	.loc 1 758 0
	movq	(%rbx), %rax
	.loc 1 759 0
	popq	%rbx
	.cfi_def_cfa_offset 24
.LVL1214:
	popq	%rbp
	.cfi_def_cfa_offset 16
.LVL1215:
	.loc 1 758 0
	movl	(%rax), %eax
	.loc 1 759 0
	popq	%r12
	.cfi_def_cfa_offset 8
.LVL1216:
	.loc 1 758 0
	subl	$1, %eax
	.loc 1 759 0
	ret
	.cfi_endproc
.LFE87:
	.size	register_const_slot, .-register_const_slot
	.p2align 4,,15
	.globl	register_const_method
	.type	register_const_method, @function
register_const_method:
.LFB88:
	.loc 1 761 0
	.cfi_startproc
.LVL1217:
	pushq	%rbx
	.cfi_def_cfa_offset 16
	.cfi_offset 3, -16
	.loc 1 761 0
	movq	%rdi, %rbx
	.loc 1 762 0
	movq	(%rdi), %rdi
.LVL1218:
	call	vector_add
.LVL1219:
	.loc 1 763 0
	movq	(%rbx), %rax
	.loc 1 764 0
	popq	%rbx
	.cfi_def_cfa_offset 8
.LVL1220:
	.loc 1 763 0
	movl	(%rax), %eax
	subl	$1, %eax
	.loc 1 764 0
	ret
	.cfi_endproc
.LFE88:
	.size	register_const_method, .-register_const_method
	.p2align 4,,15
	.globl	register_const_class
	.type	register_const_class, @function
register_const_class:
.LFB89:
	.loc 1 766 0
	.cfi_startproc
.LVL1221:
	pushq	%rbx
	.cfi_def_cfa_offset 16
	.cfi_offset 3, -16
	.loc 1 766 0
	movq	%rdi, %rbx
	.loc 1 767 0
	movq	(%rdi), %rdi
.LVL1222:
	call	vector_add
.LVL1223:
	.loc 1 768 0
	movq	(%rbx), %rax
	.loc 1 769 0
	popq	%rbx
	.cfi_def_cfa_offset 8
.LVL1224:
	.loc 1 768 0
	movl	(%rax), %eax
	subl	$1, %eax
	.loc 1 769 0
	ret
	.cfi_endproc
.LFE89:
	.size	register_const_class, .-register_const_class
	.p2align 4,,15
	.globl	make_GetGlobalIns
	.type	make_GetGlobalIns, @function
make_GetGlobalIns:
.LFB90:
	.loc 1 775 0
	.cfi_startproc
.LVL1225:
	pushq	%rbx
	.cfi_def_cfa_offset 16
	.cfi_offset 3, -16
	.loc 1 775 0
	movl	%edi, %ebx
	.loc 1 776 0
	movl	$8, %edi
.LVL1226:
	call	malloc
.LVL1227:
	.loc 1 777 0
	movl	$12, (%rax)
	.loc 1 778 0
	movl	%ebx, 4(%rax)
	.loc 1 780 0
	popq	%rbx
	.cfi_def_cfa_offset 8
.LVL1228:
	ret
	.cfi_endproc
.LFE90:
	.size	make_GetGlobalIns, .-make_GetGlobalIns
	.p2align 4,,15
	.globl	make_SetGlobalIns
	.type	make_SetGlobalIns, @function
make_SetGlobalIns:
.LFB91:
	.loc 1 782 0
	.cfi_startproc
.LVL1229:
	pushq	%rbx
	.cfi_def_cfa_offset 16
	.cfi_offset 3, -16
	.loc 1 782 0
	movl	%edi, %ebx
	.loc 1 783 0
	movl	$8, %edi
.LVL1230:
	call	malloc
.LVL1231:
	.loc 1 784 0
	movl	$11, (%rax)
	.loc 1 785 0
	movl	%ebx, 4(%rax)
	.loc 1 787 0
	popq	%rbx
	.cfi_def_cfa_offset 8
.LVL1232:
	ret
	.cfi_endproc
.LFE91:
	.size	make_SetGlobalIns, .-make_SetGlobalIns
	.p2align 4,,15
	.globl	make_GetLocalIns
	.type	make_GetLocalIns, @function
make_GetLocalIns:
.LFB92:
	.loc 1 789 0
	.cfi_startproc
.LVL1233:
	pushq	%rbx
	.cfi_def_cfa_offset 16
	.cfi_offset 3, -16
	.loc 1 789 0
	movl	%edi, %ebx
	.loc 1 790 0
	movl	$8, %edi
.LVL1234:
	call	malloc
.LVL1235:
	.loc 1 791 0
	movl	$10, (%rax)
	.loc 1 792 0
	movl	%ebx, 4(%rax)
	.loc 1 794 0
	popq	%rbx
	.cfi_def_cfa_offset 8
.LVL1236:
	ret
	.cfi_endproc
.LFE92:
	.size	make_GetLocalIns, .-make_GetLocalIns
	.p2align 4,,15
	.globl	make_SetLocalIns
	.type	make_SetLocalIns, @function
make_SetLocalIns:
.LFB93:
	.loc 1 796 0
	.cfi_startproc
.LVL1237:
	pushq	%rbx
	.cfi_def_cfa_offset 16
	.cfi_offset 3, -16
	.loc 1 796 0
	movl	%edi, %ebx
	.loc 1 797 0
	movl	$8, %edi
.LVL1238:
	call	malloc
.LVL1239:
	.loc 1 798 0
	movl	$9, (%rax)
	.loc 1 799 0
	movl	%ebx, 4(%rax)
	.loc 1 801 0
	popq	%rbx
	.cfi_def_cfa_offset 8
.LVL1240:
	ret
	.cfi_endproc
.LFE93:
	.size	make_SetLocalIns, .-make_SetLocalIns
	.p2align 4,,15
	.globl	make_ReturnIns
	.type	make_ReturnIns, @function
make_ReturnIns:
.LFB94:
	.loc 1 803 0
	.cfi_startproc
	subq	$8, %rsp
	.cfi_def_cfa_offset 16
	.loc 1 804 0
	movl	$4, %edi
	call	malloc
.LVL1241:
	.loc 1 805 0
	movl	$15, (%rax)
	.loc 1 807 0
	addq	$8, %rsp
	.cfi_def_cfa_offset 8
	ret
	.cfi_endproc
.LFE94:
	.size	make_ReturnIns, .-make_ReturnIns
	.p2align 4,,15
	.globl	make_DropIns
	.type	make_DropIns, @function
make_DropIns:
.LFB95:
	.loc 1 809 0
	.cfi_startproc
	subq	$8, %rsp
	.cfi_def_cfa_offset 16
	.loc 1 810 0
	movl	$4, %edi
	call	malloc
.LVL1242:
	.loc 1 811 0
	movl	$16, (%rax)
	.loc 1 813 0
	addq	$8, %rsp
	.cfi_def_cfa_offset 8
	ret
	.cfi_endproc
.LFE95:
	.size	make_DropIns, .-make_DropIns
	.p2align 4,,15
	.globl	make_ArrayIns
	.type	make_ArrayIns, @function
make_ArrayIns:
.LFB96:
	.loc 1 815 0
	.cfi_startproc
	subq	$8, %rsp
	.cfi_def_cfa_offset 16
	.loc 1 816 0
	movl	$4, %edi
	call	malloc
.LVL1243:
	.loc 1 817 0
	movl	$3, (%rax)
	.loc 1 819 0
	addq	$8, %rsp
	.cfi_def_cfa_offset 8
	ret
	.cfi_endproc
.LFE96:
	.size	make_ArrayIns, .-make_ArrayIns
	.p2align 4,,15
	.globl	make_LitIns
	.type	make_LitIns, @function
make_LitIns:
.LFB97:
	.loc 1 821 0
	.cfi_startproc
.LVL1244:
	pushq	%rbx
	.cfi_def_cfa_offset 16
	.cfi_offset 3, -16
	.loc 1 821 0
	movl	%edi, %ebx
	.loc 1 822 0
	movl	$8, %edi
.LVL1245:
	call	malloc
.LVL1246:
	.loc 1 823 0
	movl	$1, (%rax)
	.loc 1 824 0
	movl	%ebx, 4(%rax)
	.loc 1 826 0
	popq	%rbx
	.cfi_def_cfa_offset 8
.LVL1247:
	ret
	.cfi_endproc
.LFE97:
	.size	make_LitIns, .-make_LitIns
	.p2align 4,,15
	.globl	make_CallIns
	.type	make_CallIns, @function
make_CallIns:
.LFB98:
	.loc 1 828 0
	.cfi_startproc
.LVL1248:
	pushq	%rbp
	.cfi_def_cfa_offset 16
	.cfi_offset 6, -16
	movl	%esi, %ebp
	pushq	%rbx
	.cfi_def_cfa_offset 24
	.cfi_offset 3, -24
	movl	%edi, %ebx
	.loc 1 829 0
	movl	$12, %edi
.LVL1249:
	.loc 1 828 0
	subq	$8, %rsp
	.cfi_def_cfa_offset 32
	.loc 1 829 0
	call	malloc
.LVL1250:
	.loc 1 830 0
	movl	$8, (%rax)
	.loc 1 831 0
	movl	%ebx, 4(%rax)
	.loc 1 832 0
	movl	%ebp, 8(%rax)
	.loc 1 834 0
	addq	$8, %rsp
	.cfi_def_cfa_offset 24
	popq	%rbx
	.cfi_def_cfa_offset 16
.LVL1251:
	popq	%rbp
	.cfi_def_cfa_offset 8
.LVL1252:
	ret
	.cfi_endproc
.LFE98:
	.size	make_CallIns, .-make_CallIns
	.p2align 4,,15
	.globl	make_CallSlotIns
	.type	make_CallSlotIns, @function
make_CallSlotIns:
.LFB99:
	.loc 1 836 0
	.cfi_startproc
.LVL1253:
	pushq	%rbp
	.cfi_def_cfa_offset 16
	.cfi_offset 6, -16
	movl	%esi, %ebp
	pushq	%rbx
	.cfi_def_cfa_offset 24
	.cfi_offset 3, -24
	movl	%edi, %ebx
	.loc 1 837 0
	movl	$12, %edi
.LVL1254:
	.loc 1 836 0
	subq	$8, %rsp
	.cfi_def_cfa_offset 32
	.loc 1 837 0
	call	malloc
.LVL1255:
	.loc 1 838 0
	movl	$7, (%rax)
	.loc 1 839 0
	movl	%ebx, 4(%rax)
	.loc 1 840 0
	movl	%ebp, 8(%rax)
	.loc 1 842 0
	addq	$8, %rsp
	.cfi_def_cfa_offset 24
	popq	%rbx
	.cfi_def_cfa_offset 16
.LVL1256:
	popq	%rbp
	.cfi_def_cfa_offset 8
.LVL1257:
	ret
	.cfi_endproc
.LFE99:
	.size	make_CallSlotIns, .-make_CallSlotIns
	.p2align 4,,15
	.globl	make_PrintfIns
	.type	make_PrintfIns, @function
make_PrintfIns:
.LFB100:
	.loc 1 844 0
	.cfi_startproc
.LVL1258:
	pushq	%rbp
	.cfi_def_cfa_offset 16
	.cfi_offset 6, -16
	movl	%esi, %ebp
	pushq	%rbx
	.cfi_def_cfa_offset 24
	.cfi_offset 3, -24
	movl	%edi, %ebx
	.loc 1 845 0
	movl	$12, %edi
.LVL1259:
	.loc 1 844 0
	subq	$8, %rsp
	.cfi_def_cfa_offset 32
	.loc 1 845 0
	call	malloc
.LVL1260:
	.loc 1 846 0
	movl	$2, (%rax)
	.loc 1 847 0
	movl	%ebx, 4(%rax)
	.loc 1 848 0
	movl	%ebp, 8(%rax)
	.loc 1 850 0
	addq	$8, %rsp
	.cfi_def_cfa_offset 24
	popq	%rbx
	.cfi_def_cfa_offset 16
.LVL1261:
	popq	%rbp
	.cfi_def_cfa_offset 8
.LVL1262:
	ret
	.cfi_endproc
.LFE100:
	.size	make_PrintfIns, .-make_PrintfIns
	.p2align 4,,15
	.globl	make_LabelIns
	.type	make_LabelIns, @function
make_LabelIns:
.LFB101:
	.loc 1 852 0
	.cfi_startproc
.LVL1263:
	pushq	%rbx
	.cfi_def_cfa_offset 16
	.cfi_offset 3, -16
	.loc 1 852 0
	movl	%edi, %ebx
	.loc 1 853 0
	movl	$8, %edi
.LVL1264:
	call	malloc
.LVL1265:
	.loc 1 854 0
	movl	$0, (%rax)
	.loc 1 855 0
	movl	%ebx, 4(%rax)
	.loc 1 857 0
	popq	%rbx
	.cfi_def_cfa_offset 8
.LVL1266:
	ret
	.cfi_endproc
.LFE101:
	.size	make_LabelIns, .-make_LabelIns
	.p2align 4,,15
	.globl	make_BranchIns
	.type	make_BranchIns, @function
make_BranchIns:
.LFB102:
	.loc 1 859 0
	.cfi_startproc
.LVL1267:
	pushq	%rbx
	.cfi_def_cfa_offset 16
	.cfi_offset 3, -16
	.loc 1 859 0
	movl	%edi, %ebx
	.loc 1 860 0
	movl	$8, %edi
.LVL1268:
	call	malloc
.LVL1269:
	.loc 1 861 0
	movl	$13, (%rax)
	.loc 1 862 0
	movl	%ebx, 4(%rax)
	.loc 1 864 0
	popq	%rbx
	.cfi_def_cfa_offset 8
.LVL1270:
	ret
	.cfi_endproc
.LFE102:
	.size	make_BranchIns, .-make_BranchIns
	.p2align 4,,15
	.globl	make_GotoIns
	.type	make_GotoIns, @function
make_GotoIns:
.LFB103:
	.loc 1 866 0
	.cfi_startproc
.LVL1271:
	pushq	%rbx
	.cfi_def_cfa_offset 16
	.cfi_offset 3, -16
	.loc 1 866 0
	movl	%edi, %ebx
	.loc 1 867 0
	movl	$8, %edi
.LVL1272:
	call	malloc
.LVL1273:
	.loc 1 868 0
	movl	$14, (%rax)
	.loc 1 869 0
	movl	%ebx, 4(%rax)
	.loc 1 871 0
	popq	%rbx
	.cfi_def_cfa_offset 8
.LVL1274:
	ret
	.cfi_endproc
.LFE103:
	.size	make_GotoIns, .-make_GotoIns
	.p2align 4,,15
	.globl	make_SlotIns
	.type	make_SlotIns, @function
make_SlotIns:
.LFB104:
	.loc 1 873 0
	.cfi_startproc
.LVL1275:
	pushq	%rbx
	.cfi_def_cfa_offset 16
	.cfi_offset 3, -16
	.loc 1 873 0
	movl	%edi, %ebx
	.loc 1 874 0
	movl	$8, %edi
.LVL1276:
	call	malloc
.LVL1277:
	.loc 1 875 0
	movl	$5, (%rax)
	.loc 1 876 0
	movl	%ebx, 4(%rax)
	.loc 1 878 0
	popq	%rbx
	.cfi_def_cfa_offset 8
.LVL1278:
	ret
	.cfi_endproc
.LFE104:
	.size	make_SlotIns, .-make_SlotIns
	.p2align 4,,15
	.globl	make_SetSlotIns
	.type	make_SetSlotIns, @function
make_SetSlotIns:
.LFB105:
	.loc 1 880 0
	.cfi_startproc
.LVL1279:
	pushq	%rbx
	.cfi_def_cfa_offset 16
	.cfi_offset 3, -16
	.loc 1 880 0
	movl	%edi, %ebx
	.loc 1 881 0
	movl	$8, %edi
.LVL1280:
	call	malloc
.LVL1281:
	.loc 1 882 0
	movl	$6, (%rax)
	.loc 1 883 0
	movl	%ebx, 4(%rax)
	.loc 1 885 0
	popq	%rbx
	.cfi_def_cfa_offset 8
.LVL1282:
	ret
	.cfi_endproc
.LFE105:
	.size	make_SetSlotIns, .-make_SetSlotIns
	.p2align 4,,15
	.globl	make_ObjectIns
	.type	make_ObjectIns, @function
make_ObjectIns:
.LFB106:
	.loc 1 887 0
	.cfi_startproc
.LVL1283:
	pushq	%rbx
	.cfi_def_cfa_offset 16
	.cfi_offset 3, -16
	.loc 1 887 0
	movl	%edi, %ebx
	.loc 1 888 0
	movl	$8, %edi
.LVL1284:
	call	malloc
.LVL1285:
	.loc 1 889 0
	movl	$4, (%rax)
	.loc 1 890 0
	movl	%ebx, 4(%rax)
	.loc 1 892 0
	popq	%rbx
	.cfi_def_cfa_offset 8
.LVL1286:
	ret
	.cfi_endproc
.LFE106:
	.size	make_ObjectIns, .-make_ObjectIns
	.p2align 4,,15
	.globl	copy_str
	.type	copy_str, @function
copy_str:
.LFB107:
	.loc 1 898 0
	.cfi_startproc
.LVL1287:
	pushq	%r12
	.cfi_def_cfa_offset 16
	.cfi_offset 12, -16
	pushq	%rbp
	.cfi_def_cfa_offset 24
	.cfi_offset 6, -24
	movq	%rdi, %rbp
	pushq	%rbx
	.cfi_def_cfa_offset 32
	.cfi_offset 3, -32
	.loc 1 899 0
	call	strlen
.LVL1288:
	leaq	1(%rax), %r12
	movq	%r12, %rdi
	call	malloc
.LVL1289:
	.loc 1 900 0
	testq	%rax, %rax
	.loc 1 899 0
	movq	%rax, %rbx
.LVL1290:
	.loc 1 900 0
	je	.L588
.LVL1291:
.LBB2080:
.LBB2081:
	.loc 3 105 0
	movq	%r12, %rdx
	movq	%rbp, %rsi
	movq	%rax, %rdi
	call	memcpy
.LVL1292:
.LBE2081:
.LBE2080:
	.loc 1 906 0
	movq	%rbx, %rax
	popq	%rbx
	.cfi_remember_state
	.cfi_def_cfa_offset 24
.LVL1293:
	popq	%rbp
	.cfi_def_cfa_offset 16
.LVL1294:
	popq	%r12
	.cfi_def_cfa_offset 8
	ret
.LVL1295:
	.p2align 4,,10
	.p2align 3
.L588:
	.cfi_restore_state
.LBB2082:
.LBB2083:
.LBB2084:
.LBB2085:
	.loc 2 98 0
	movq	stderr(%rip), %rdi
	movl	$.LC8, %edx
	movl	$1, %esi
	xorl	%eax, %eax
.LVL1296:
	call	__fprintf_chk
.LVL1297:
.LBE2085:
.LBE2084:
.LBE2083:
.LBE2082:
	.loc 1 906 0
	movq	%rbx, %rax
	popq	%rbx
	.cfi_def_cfa_offset 24
.LVL1298:
	popq	%rbp
	.cfi_def_cfa_offset 16
.LVL1299:
	popq	%r12
	.cfi_def_cfa_offset 8
	ret
	.cfi_endproc
.LFE107:
	.size	copy_str, .-copy_str
	.data
	.align 4
	.type	n.3430, @object
	.size	n.3430, 4
n.3430:
	.long	1
	.local	root_scope.3422
	.comm	root_scope.3422,8,16
	.align 16
	.type	cur_entry_id.3341, @object
	.size	cur_entry_id.3341, 4
cur_entry_id.3341:
	.long	36
	.text
.Letext0:
	.file 4 "/usr/lib/gcc/x86_64-linux-gnu/4.8/include/stddef.h"
	.file 5 "/usr/include/x86_64-linux-gnu/bits/types.h"
	.file 6 "/usr/include/stdio.h"
	.file 7 "/usr/include/libio.h"
	.file 8 "utils.h"
	.file 9 "ast.h"
	.file 10 "bytecode.h"
	.file 11 "/usr/include/stdlib.h"
	.file 12 "<built-in>"
	.file 13 "/usr/include/string.h"
	.section	.note.GNU-stack,"",@progbits
