	.file	"vm.c"
	.text
.Ltext0:
	.section	.rodata.str1.1,"aMS",@progbits,1
.LC0:
	.string	"vm.c"
	.section	.rodata.str1.8,"aMS",@progbits,1
	.align 8
.LC1:
	.string	"!(end_code_section >= 1024*10)"
	.section	.text.unlikely,"ax",@progbits
	.type	code_alloc.part.0, @function
code_alloc.part.0:
.LFB195:
	.file 1 "vm.c"
	.loc 1 1377 0
	.cfi_startproc
	pushq	%rax
	.cfi_def_cfa_offset 16
	.loc 1 1380 0
	movl	$__PRETTY_FUNCTION__.4710, %ecx
	movl	$1380, %edx
	movl	$.LC0, %esi
	movl	$.LC1, %edi
	call	__assert_fail
.LVL0:
	.cfi_endproc
.LFE195:
	.size	code_alloc.part.0, .-code_alloc.part.0
	.section	.rodata.str1.1
.LC2:
	.string	"!(obj_type(val) != OBJ_OBJ)"
	.section	.text.unlikely
	.type	to_obj_val.part.3, @function
to_obj_val.part.3:
.LFB198:
	.loc 1 2098 0
	.cfi_startproc
.LVL1:
	pushq	%rdx
	.cfi_def_cfa_offset 16
	.loc 1 2099 0
	movl	$__PRETTY_FUNCTION__.5041, %ecx
	movl	$2099, %edx
	movl	$.LC0, %esi
	movl	$.LC2, %edi
	call	__assert_fail
.LVL2:
	.cfi_endproc
.LFE198:
	.size	to_obj_val.part.3, .-to_obj_val.part.3
	.section	.rodata.str1.1
.LC3:
	.string	"!(obj_type(val) != ARRAY_OBJ)"
	.section	.text.unlikely
	.type	to_array_val.part.4, @function
to_array_val.part.4:
.LFB199:
	.loc 1 2103 0
	.cfi_startproc
.LVL3:
	pushq	%rcx
	.cfi_def_cfa_offset 16
	.loc 1 2104 0
	movl	$2104, %edx
	movl	$__PRETTY_FUNCTION__.5045, %ecx
	movl	$.LC0, %esi
	movl	$.LC3, %edi
	call	__assert_fail
.LVL4:
	.cfi_endproc
.LFE199:
	.size	to_array_val.part.4, .-to_array_val.part.4
	.section	.rodata.str1.1
.LC4:
	.string	"obj_type(v) == BROKEN_HEART"
	.section	.text.unlikely
	.type	get_forward_ptr.part.6, @function
get_forward_ptr.part.6:
.LFB201:
	.loc 1 2130 0
	.cfi_startproc
.LVL5:
	pushq	%rsi
	.cfi_def_cfa_offset 16
	.loc 1 2131 0
	movl	$__PRETTY_FUNCTION__.5067, %ecx
	movl	$2131, %edx
	movl	$.LC0, %esi
	movl	$.LC4, %edi
	call	__assert_fail
.LVL6:
	.cfi_endproc
.LFE201:
	.size	get_forward_ptr.part.6, .-get_forward_ptr.part.6
	.section	.rodata.str1.1
.LC5:
	.string	"########################"
.LC6:
	.string	"%s\nERROR:"
.LC7:
	.string	"%s\n"
	.text
	.p2align 4,,15
	.type	v_errorif.part.8, @function
v_errorif.part.8:
.LFB203:
	.loc 1 2398 0
	.cfi_startproc
.LVL7:
	pushq	%rbp
	.cfi_def_cfa_offset 16
	.cfi_offset 6, -16
.LBB769:
.LBB770:
	.file 2 "/usr/include/x86_64-linux-gnu/bits/stdio2.h"
	.loc 2 105 0
	movl	$.LC5, %edx
.LBE770:
.LBE769:
	.loc 1 2398 0
	movq	%rsi, %rbp
.LBB774:
.LBB771:
	.loc 2 105 0
	xorl	%eax, %eax
	movl	$.LC6, %esi
.LVL8:
.LBE771:
.LBE774:
	.loc 1 2398 0
	pushq	%rbx
	.cfi_def_cfa_offset 24
	.cfi_offset 3, -24
	movq	%rdi, %rbx
.LBB775:
.LBB772:
	.loc 2 105 0
	movl	$1, %edi
.LVL9:
.LBE772:
.LBE775:
	.loc 1 2398 0
	subq	$8, %rsp
	.cfi_def_cfa_offset 32
.LBB776:
.LBB773:
	.loc 2 105 0
	call	__printf_chk
.LVL10:
.LBE773:
.LBE776:
.LBB777:
.LBB778:
	.loc 2 118 0
	movq	stdout(%rip), %rdi
	movq	%rbp, %rcx
	movq	%rbx, %rdx
	movl	$1, %esi
	call	__vfprintf_chk
.LVL11:
.LBE778:
.LBE777:
.LBB779:
.LBB780:
	.loc 2 105 0
	movl	$.LC5, %edx
	movl	$.LC7, %esi
	movl	$1, %edi
	xorl	%eax, %eax
	call	__printf_chk
.LVL12:
.LBE780:
.LBE779:
	.loc 1 2414 0
	call	abort
.LVL13:
	.cfi_endproc
.LFE203:
	.size	v_errorif.part.8, .-v_errorif.part.8
	.p2align 4,,15
	.type	code_point.part.1, @function
code_point.part.1:
.LFB196:
	.loc 1 1393 0
	.cfi_startproc
	.loc 1 1395 0
	movq	finished_trap(%rip), %rax
	testq	%rax, %rax
	je	.L20
	.loc 1 1402 0
	ret
	.p2align 4,,10
	.p2align 3
.L20:
	.loc 1 1393 0
	pushq	%r12
	.cfi_def_cfa_offset 16
	.cfi_offset 12, -16
	pushq	%rbp
	.cfi_def_cfa_offset 24
	.cfi_offset 6, -24
	pushq	%rbx
	.cfi_def_cfa_offset 32
	.cfi_offset 3, -32
	subq	$16, %rsp
	.cfi_def_cfa_offset 48
.LBB791:
.LBB792:
	.loc 1 1560 0
	movq	code(%rip), %rbx
	testq	%rbx, %rbx
	je	.L21
.L13:
	.loc 1 1564 0
	movl	$after_c_trap, %ebp
.LBB793:
.LBB794:
	.file 3 "/usr/include/x86_64-linux-gnu/bits/string3.h"
	.loc 3 66 0
	movq	%rbx, %rdi
	movl	$c_trap, %esi
.LBE794:
.LBE793:
	.loc 1 1564 0
	subq	$c_trap, %rbp
.LBB796:
.LBB795:
	.loc 3 66 0
	movq	%rbp, %rdx
	call	mempcpy
.LBE795:
.LBE796:
	.loc 1 1564 0
	movq	%rax, code(%rip)
	.loc 1 1565 0
	movb	$0, (%rax)
	.loc 1 1568 0
	movq	%rbp, %rsi
	movslq	hole_len(%rip), %r12
	movq	hole_str(%rip), %rdx
	movq	%rbx, %rdi
	movq	%r12, %rcx
	call	memmem
.LBB797:
.LBB798:
	.loc 3 66 0
	leaq	8(%rsp), %rsi
	movq	%r12, %rdx
	movq	%rax, %rdi
.LBE798:
.LBE797:
	.loc 1 1569 0
	movq	$-1, 8(%rsp)
.LBB800:
.LBB799:
	.loc 3 66 0
	call	memcpy
.LBE799:
.LBE800:
.LBE792:
.LBE791:
	.loc 1 1396 0
	movq	%rbx, finished_trap(%rip)
	.loc 1 1402 0
	addq	$16, %rsp
	.cfi_remember_state
	.cfi_def_cfa_offset 32
	.loc 1 1396 0
	movq	%rbx, %rax
	.loc 1 1402 0
	popq	%rbx
	.cfi_restore 3
	.cfi_def_cfa_offset 24
	popq	%rbp
	.cfi_restore 6
	.cfi_def_cfa_offset 16
	popq	%r12
	.cfi_restore 12
	.cfi_def_cfa_offset 8
	ret
	.p2align 4,,10
	.p2align 3
.L21:
	.cfi_restore_state
.LBB802:
.LBB801:
	.loc 1 1561 0
	xorl	%r9d, %r9d
	movl	$-1, %r8d
	movl	$34, %ecx
	movl	$7, %edx
	movl	$1048576, %esi
	xorl	%edi, %edi
	call	mmap
	movq	%rax, code(%rip)
	movq	%rax, %rbx
	jmp	.L13
.LBE801:
.LBE802:
	.cfi_endproc
.LFE196:
	.size	code_point.part.1, .-code_point.part.1
	.p2align 4,,15
	.globl	get_slot_by_idx
	.type	get_slot_by_idx, @function
get_slot_by_idx:
.LFB67:
	.loc 1 317 0
	.cfi_startproc
.LVL14:
	subq	$8, %rsp
	.cfi_def_cfa_offset 16
.LBB814:
.LBB815:
.LBB816:
.LBB817:
.LBB818:
.LBB819:
.LBB820:
.LBB821:
.LBB822:
	.loc 1 2144 0
	movq	CLEAR_ARRAY_OBJ_MASK(%rip), %r9
.LBE822:
.LBE821:
	.loc 1 2161 0
	movl	$4, %r8d
.LVL15:
.L28:
.LBE820:
.LBE819:
.LBE818:
.LBE817:
.LBE816:
.LBE815:
.LBE814:
	.loc 1 318 0
	movq	(%rdi), %rax
.LVL16:
.LBB836:
	.loc 1 320 0
	movl	4(%rax), %edx
	addl	(%rax), %edx
	testl	%edx, %edx
	jle	.L23
	subl	$1, %edx
.LBE836:
	.loc 1 319 0
	xorl	%ecx, %ecx
	leaq	8(%rax,%rdx,8), %rdx
	jmp	.L26
.LVL17:
	.p2align 4,,10
	.p2align 3
.L24:
	addq	$8, %rax
.LBB837:
	.loc 1 320 0
	cmpq	%rdx, %rax
	je	.L23
.LVL18:
.L26:
	.loc 1 321 0
	cmpl	$-3, 12(%rax)
	jne	.L24
	.loc 1 325 0
	cmpl	%esi, 8(%rax)
	je	.L33
	addq	$8, %rax
	.loc 1 328 0
	addl	$1, %ecx
.LVL19:
	.loc 1 320 0
	cmpq	%rdx, %rax
	jne	.L26
.LVL20:
.L23:
.LBE837:
	.loc 1 331 0
	movq	8(%rdi), %rdx
.LVL21:
.LBB838:
.LBB834:
.LBB832:
.LBB830:
	.loc 1 2157 0
	cmpq	$2, %rdx
	je	.L27
	.loc 1 2159 0
	movq	%rdx, %rcx
	shrq	$63, %rcx
	leaq	(%rdx,%rcx), %rax
	andl	$1, %eax
	subq	%rcx, %rax
	cmpq	$1, %rax
	je	.L35
.LVL22:
.L27:
.LBE830:
.LBE832:
	call	to_obj_val.part.3
.LVL23:
	.p2align 4,,10
	.p2align 3
.L33:
.LBE834:
.LBE838:
.LBB839:
	.loc 1 326 0
	movslq	%ecx, %rcx
	movq	16(%rdi,%rcx,8), %rax
.LBE839:
	.loc 1 332 0
	addq	$8, %rsp
	.cfi_remember_state
	.cfi_def_cfa_offset 8
	ret
.LVL24:
.L35:
	.cfi_restore_state
.LBB840:
.LBB835:
.LBB833:
.LBB831:
.LBB829:
.LBB828:
.LBB827:
.LBB825:
.LBB823:
	.loc 1 2144 0
	movq	%rdx, %rdi
.LVL25:
.LBE823:
.LBE825:
	.loc 1 2161 0
	movq	%r8, %rax
.LBB826:
.LBB824:
	.loc 1 2144 0
	andq	%r9, %rdi
.LVL26:
.LBE824:
.LBE826:
	.loc 1 2161 0
	cmpq	$4, (%rdi)
	cmovbe	(%rdi), %rax
.LBE827:
.LBE828:
.LBE829:
.LBE831:
.LBE833:
	.loc 1 2099 0
	cmpl	$4, %eax
	je	.L28
	jmp	.L27
.LBE835:
.LBE840:
	.cfi_endproc
.LFE67:
	.size	get_slot_by_idx, .-get_slot_by_idx
	.p2align 4,,15
	.globl	set_slot_by_idx
	.type	set_slot_by_idx, @function
set_slot_by_idx:
.LFB68:
	.loc 1 334 0
	.cfi_startproc
.LVL27:
	subq	$8, %rsp
	.cfi_def_cfa_offset 16
.LBB852:
.LBB853:
.LBB854:
.LBB855:
.LBB856:
.LBB857:
.LBB858:
.LBB859:
.LBB860:
	.loc 1 2144 0
	movq	CLEAR_ARRAY_OBJ_MASK(%rip), %r11
.LBE860:
.LBE859:
	.loc 1 2161 0
	movl	$4, %r10d
.LVL28:
.L44:
.LBE858:
.LBE857:
.LBE856:
.LBE855:
.LBE854:
.LBE853:
.LBE852:
	.loc 1 335 0
	movq	(%rdi), %rax
.LVL29:
.LBB872:
	.loc 1 337 0
	movl	4(%rax), %ecx
	addl	(%rax), %ecx
	testl	%ecx, %ecx
	jle	.L37
	.loc 1 338 0
	cmpl	%esi, 8(%rax)
	je	.L52
	subl	$1, %ecx
	leaq	(%rax,%rcx,8), %r9
.LBE872:
	.loc 1 336 0
	xorl	%ecx, %ecx
	jmp	.L40
.LVL30:
	.p2align 4,,10
	.p2align 3
.L42:
	addq	$8, %rax
.LBB873:
	.loc 1 338 0
	cmpl	%esi, 8(%rax)
	je	.L38
.LVL31:
.L40:
	.loc 1 343 0
	xorl	%r8d, %r8d
	cmpl	$-3, 12(%rax)
	sete	%r8b
	addl	%r8d, %ecx
.LVL32:
	.loc 1 337 0
	cmpq	%r9, %rax
	jne	.L42
.LVL33:
.L37:
.LBE873:
	.loc 1 346 0
	movq	8(%rdi), %rdi
.LVL34:
.LBB874:
.LBB870:
.LBB868:
.LBB866:
	.loc 1 2157 0
	cmpq	$2, %rdi
	je	.L43
	.loc 1 2159 0
	movq	%rdi, %rcx
	shrq	$63, %rcx
	leaq	(%rdi,%rcx), %rax
	andl	$1, %eax
	subq	%rcx, %rax
	cmpq	$1, %rax
	je	.L53
.LVL35:
.L43:
.LBE866:
.LBE868:
	call	to_obj_val.part.3
.LVL36:
	.p2align 4,,10
	.p2align 3
.L52:
.LBE870:
.LBE874:
	.loc 1 336 0
	xorl	%ecx, %ecx
.LVL37:
	.p2align 4,,10
	.p2align 3
.L38:
.LBB875:
	.loc 1 339 0
	movslq	%ecx, %rcx
	movq	%rdx, 16(%rdi,%rcx,8)
.LBE875:
	.loc 1 347 0
	addq	$8, %rsp
	.cfi_remember_state
	.cfi_def_cfa_offset 8
	ret
.LVL38:
.L53:
	.cfi_restore_state
.LBB876:
.LBB871:
.LBB869:
.LBB867:
.LBB865:
.LBB864:
.LBB863:
.LBB862:
.LBB861:
	.loc 1 2144 0
	andq	%r11, %rdi
.LVL39:
.LBE861:
.LBE862:
	.loc 1 2161 0
	movq	%r10, %rax
	cmpq	$4, (%rdi)
	cmovbe	(%rdi), %rax
.LBE863:
.LBE864:
.LBE865:
.LBE867:
.LBE869:
	.loc 1 2099 0
	cmpl	$4, %eax
	je	.L44
	jmp	.L43
.LBE871:
.LBE876:
	.cfi_endproc
.LFE68:
	.size	set_slot_by_idx, .-set_slot_by_idx
	.p2align 4,,15
	.globl	find_method_by_name
	.type	find_method_by_name, @function
find_method_by_name:
.LFB69:
	.loc 1 349 0
	.cfi_startproc
.LVL40:
	subq	$8, %rsp
	.cfi_def_cfa_offset 16
.LBB888:
.LBB889:
.LBB890:
.LBB891:
.LBB892:
.LBB893:
.LBB894:
.LBB895:
.LBB896:
	.loc 1 2144 0
	movq	CLEAR_ARRAY_OBJ_MASK(%rip), %r10
.LBE896:
.LBE895:
	.loc 1 2161 0
	movl	$4, %r9d
.LVL41:
.L61:
.LBE894:
.LBE893:
.LBE892:
.LBE891:
.LBE890:
.LBE889:
.LBE888:
	.loc 1 350 0
	movq	(%rdi), %r8
.LVL42:
.LBB908:
	.loc 1 356 0
	movl	(%r8), %ecx
	addl	4(%r8), %ecx
	testl	%ecx, %ecx
	jle	.L55
	.loc 1 357 0
	cmpl	%esi, 8(%r8)
	je	.L69
	movq	%r8, %rdx
	.loc 1 356 0
	xorl	%eax, %eax
	jmp	.L58
.LVL43:
	.p2align 4,,10
	.p2align 3
.L59:
	addq	$8, %rdx
	.loc 1 357 0
	cmpl	%esi, 8(%rdx)
	je	.L56
.LVL44:
.L58:
	.loc 1 356 0
	addl	$1, %eax
.LVL45:
	cmpl	%ecx, %eax
	jne	.L59
.LVL46:
.L55:
.LBE908:
	.loc 1 362 0
	movq	8(%rdi), %rdi
.LVL47:
.LBB909:
.LBB906:
.LBB904:
.LBB902:
	.loc 1 2157 0
	cmpq	$2, %rdi
	je	.L60
	.loc 1 2159 0
	movq	%rdi, %rdx
	shrq	$63, %rdx
	leaq	(%rdi,%rdx), %rax
	andl	$1, %eax
	subq	%rdx, %rax
	cmpq	$1, %rax
	je	.L70
.LVL48:
.L60:
.LBE902:
.LBE904:
	call	to_obj_val.part.3
.LVL49:
	.p2align 4,,10
	.p2align 3
.L69:
.LBE906:
.LBE909:
.LBB910:
	.loc 1 356 0
	xorl	%eax, %eax
.LVL50:
	.p2align 4,,10
	.p2align 3
.L56:
	.loc 1 358 0
	cltq
	movl	12(%r8,%rax,8), %eax
.LBE910:
	.loc 1 363 0
	addq	$8, %rsp
	.cfi_remember_state
	.cfi_def_cfa_offset 8
	ret
.LVL51:
.L70:
	.cfi_restore_state
.LBB911:
.LBB907:
.LBB905:
.LBB903:
.LBB901:
.LBB900:
.LBB899:
.LBB898:
.LBB897:
	.loc 1 2144 0
	andq	%r10, %rdi
.LVL52:
.LBE897:
.LBE898:
	.loc 1 2161 0
	movq	%r9, %rax
	cmpq	$4, (%rdi)
	cmovbe	(%rdi), %rax
.LBE899:
.LBE900:
.LBE901:
.LBE903:
.LBE905:
	.loc 1 2099 0
	cmpl	$4, %eax
	je	.L61
	jmp	.L60
.LBE907:
.LBE911:
	.cfi_endproc
.LFE69:
	.size	find_method_by_name, .-find_method_by_name
	.p2align 4,,15
	.globl	get_global_slot_by_idx
	.type	get_global_slot_by_idx, @function
get_global_slot_by_idx:
.LFB70:
	.loc 1 368 0
	.cfi_startproc
.LVL53:
	.loc 1 369 0
	movslq	%edi, %rdi
	movq	globals(,%rdi,8), %rax
	.loc 1 370 0
	ret
	.cfi_endproc
.LFE70:
	.size	get_global_slot_by_idx, .-get_global_slot_by_idx
	.p2align 4,,15
	.globl	set_global_slot_by_idx
	.type	set_global_slot_by_idx, @function
set_global_slot_by_idx:
.LFB71:
	.loc 1 372 0
	.cfi_startproc
.LVL54:
	.loc 1 373 0
	movslq	%edi, %rdi
	movq	%rsi, globals(,%rdi,8)
	ret
	.cfi_endproc
.LFE71:
	.size	set_global_slot_by_idx, .-set_global_slot_by_idx
	.p2align 4,,15
	.globl	init_global_slots
	.type	init_global_slots, @function
init_global_slots:
.LFB72:
	.loc 1 376 0
	.cfi_startproc
.LVL55:
.LBB912:
	.loc 1 378 0
	testl	%edi, %edi
.LBE912:
	.loc 1 377 0
	movl	%edi, max_globals(%rip)
.LVL56:
.LBB913:
	.loc 1 378 0
	jle	.L73
	movl	%edi, %edx
	shrl	%edx
	movl	%edx, %esi
	addl	%esi, %esi
	je	.L82
	cmpl	$3, %edi
	jbe	.L82
	movdqa	.LC8(%rip), %xmm0
	xorl	%eax, %eax
.LVL57:
.L81:
	movq	%rax, %rcx
	addq	$1, %rax
	salq	$4, %rcx
	cmpl	%eax, %edx
	.loc 1 379 0
	movdqa	%xmm0, globals(%rcx)
	ja	.L81
	cmpl	%esi, %edi
	movl	%esi, %eax
	je	.L84
.LVL58:
.L75:
	movslq	%eax, %rdx
	movq	$2, globals(,%rdx,8)
	.loc 1 378 0
	leal	1(%rax), %edx
.LVL59:
	cmpl	%edx, %edi
	jle	.L73
	addl	$2, %eax
	.loc 1 379 0
	movslq	%edx, %rdx
	.loc 1 378 0
	cmpl	%eax, %edi
	.loc 1 379 0
	movq	$2, globals(,%rdx,8)
.LVL60:
	.loc 1 378 0
	jle	.L73
	.loc 1 379 0
	cltq
	movq	$2, globals(,%rax,8)
	ret
.LVL61:
	.p2align 4,,10
	.p2align 3
.L73:
	rep; ret
.LVL62:
	.p2align 4,,10
	.p2align 3
.L82:
	.loc 1 378 0
	xorl	%eax, %eax
	jmp	.L75
.LVL63:
	.p2align 4,,10
	.p2align 3
.L84:
	rep; ret
.LBE913:
	.cfi_endproc
.LFE72:
	.size	init_global_slots, .-init_global_slots
	.p2align 4,,15
	.globl	stack_push
	.type	stack_push, @function
stack_push:
.LFB73:
	.loc 1 390 0
	.cfi_startproc
.LVL64:
	.loc 1 392 0
	movq	stack_pointer(%rip), %rax
	movq	%rdi, (%rax)
	.loc 1 393 0
	addq	$8, stack_pointer(%rip)
	ret
	.cfi_endproc
.LFE73:
	.size	stack_push, .-stack_push
	.p2align 4,,15
	.globl	stack_pop
	.type	stack_pop, @function
stack_pop:
.LFB74:
	.loc 1 398 0
	.cfi_startproc
	.loc 1 400 0
	movq	stack_pointer(%rip), %rax
	leaq	-8(%rax), %rdx
	movq	%rdx, stack_pointer(%rip)
.LVL65:
	.loc 1 403 0
	movq	-8(%rax), %rax
	.loc 1 404 0
	ret
	.cfi_endproc
.LFE74:
	.size	stack_pop, .-stack_pop
	.p2align 4,,15
	.globl	stack_peek
	.type	stack_peek, @function
stack_peek:
.LFB75:
	.loc 1 407 0
	.cfi_startproc
	.loc 1 408 0
	movq	stack_pointer(%rip), %rax
	movq	-8(%rax), %rax
	.loc 1 409 0
	ret
	.cfi_endproc
.LFE75:
	.size	stack_peek, .-stack_peek
	.section	.rodata.str1.8
	.align 8
.LC9:
	.string	"!(frame_pointer <= (Frame*)&frames[0])"
	.text
	.p2align 4,,15
	.globl	frame_alloc
	.type	frame_alloc, @function
frame_alloc:
.LFB76:
	.loc 1 425 0
	.cfi_startproc
.LVL66:
	.loc 1 427 0
	movq	frame_pointer(%rip), %rdx
	.loc 1 426 0
	movslq	%edi, %rdi
	leaq	16(,%rdi,8), %rax
	.loc 1 427 0
	movq	%rdx, %rcx
	subq	%rax, %rcx
.LVL67:
	.loc 1 428 0
	cmpq	$frames, %rdx
	jbe	.L91
	movq	%rcx, %rax
.LVL68:
	.loc 1 430 0
	ret
.LVL69:
.L91:
.LVL70:
	.loc 1 425 0 discriminator 1
	pushq	%rdi
	.cfi_def_cfa_offset 16
	.loc 1 428 0 discriminator 1
	movl	$__PRETTY_FUNCTION__.4204, %ecx
	movl	$428, %edx
	movl	$.LC0, %esi
	movl	$.LC9, %edi
	call	__assert_fail
.LVL71:
	.cfi_endproc
.LFE76:
	.size	frame_alloc, .-frame_alloc
	.p2align 4,,15
	.globl	push_frame
	.type	push_frame, @function
push_frame:
.LFB77:
	.loc 1 432 0
	.cfi_startproc
.LVL72:
	pushq	%r15
	.cfi_def_cfa_offset 16
	.cfi_offset 15, -16
	pushq	%r14
	.cfi_def_cfa_offset 24
	.cfi_offset 14, -24
	pushq	%r13
	.cfi_def_cfa_offset 32
	.cfi_offset 13, -32
	pushq	%r12
	.cfi_def_cfa_offset 40
	.cfi_offset 12, -40
	pushq	%rbp
	.cfi_def_cfa_offset 48
	.cfi_offset 6, -48
	.loc 1 434 0
	leal	(%rsi,%rdx), %ebp
.LVL73:
	.loc 1 432 0
	pushq	%rbx
	.cfi_def_cfa_offset 56
	.cfi_offset 3, -56
.LBB944:
.LBB945:
	.loc 1 426 0
	movslq	%ebp, %r14
	leaq	16(,%r14,8), %r13
.LVL74:
.LBE945:
.LBE944:
	.loc 1 432 0
	subq	$40, %rsp
	.cfi_def_cfa_offset 96
.LBB948:
.LBB946:
	.loc 1 427 0
	movq	frame_pointer(%rip), %r12
	movq	%r12, %rbx
	subq	%r13, %rbx
.LVL75:
	.loc 1 428 0
	cmpq	$frames, %r12
	jbe	.L121
.LVL76:
.LBE946:
.LBE948:
.LBB949:
.LBB950:
	.loc 1 1394 0
	cmpl	$-1, %edi
	je	.L122
.LVL77:
	.loc 1 1401 0
	movslq	%edi, %rdi
	movq	%r12, %rdx
.LVL78:
	leaq	(%rdi,%rdi,2), %rax
	movq	code_data+16(,%rax,8), %rax
.LVL79:
.L97:
.LBE950:
.LBE949:
.LBB969:
	.loc 1 438 0
	testl	%ebp, %ebp
.LBE969:
	.loc 1 436 0
	movq	%rdx, (%rbx)
	.loc 1 435 0
	movq	%rax, 8(%rbx)
	.loc 1 437 0
	movq	%rbx, frame_pointer(%rip)
.LVL80:
.LBB978:
	.loc 1 438 0
	jle	.L92
.LBB970:
.LBB971:
	.loc 1 462 0
	subq	%r13, %r12
	leaq	0(,%r14,8), %rdx
	xorl	%esi, %esi
	leaq	16(%r12), %rdi
	call	memset
.LVL81:
	movq	%rbx, %rax
	salq	$60, %rax
	shrq	$63, %rax
	cmpl	%eax, %ebp
	cmovbe	%ebp, %eax
	cmpl	$6, %ebp
	movl	%eax, %edx
	movl	%ebp, %eax
	ja	.L123
.L99:
.LVL82:
	cmpl	$1, %eax
.LBE971:
.LBE970:
.LBE978:
.LBB979:
.LBB980:
.LBB981:
	movq	$2, 16(%rbx)
.LVL83:
	jbe	.L112
.LVL84:
	cmpl	$2, %eax
	movq	$2, 24(%rbx)
.LVL85:
	jbe	.L113
.LVL86:
	cmpl	$3, %eax
	movq	$2, 32(%rbx)
.LVL87:
	jbe	.L114
.LVL88:
	cmpl	$4, %eax
	movq	$2, 40(%rbx)
.LVL89:
	jbe	.L115
.LVL90:
	cmpl	$5, %eax
	movq	$2, 48(%rbx)
.LVL91:
	jbe	.L116
.LVL92:
	movq	$2, 56(%rbx)
.LVL93:
.LBE981:
.LBE980:
	.loc 1 441 0
	movl	$6, %esi
.LVL94:
.L101:
	cmpl	%eax, %ebp
	je	.L92
	subl	%eax, %ebp
.LVL95:
	movl	%eax, %edx
	movl	%ebp, %ecx
	shrl	%ecx
	movl	%ecx, %edi
	addl	%edi, %edi
	je	.L103
.LVL96:
.L125:
	leaq	16(%rbx,%rdx,8), %rdx
	movdqa	.LC8(%rip), %xmm0
.LBE979:
.LBB984:
.LBB975:
.LBB972:
	.loc 1 462 0
	xorl	%eax, %eax
.L107:
.LVL97:
	addl	$1, %eax
	addq	$16, %rdx
.LBE972:
.LBE975:
.LBE984:
.LBB985:
.LBB983:
.LBB982:
	movdqa	%xmm0, -16(%rdx)
	cmpl	%eax, %ecx
	ja	.L107
	addl	%edi, %esi
	cmpl	%edi, %ebp
	je	.L92
.LVL98:
.L103:
	movslq	%esi, %rsi
	movq	$2, 16(%rbx,%rsi,8)
.LVL99:
.L92:
.LBE982:
.LBE983:
.LBE985:
	.loc 1 444 0
	addq	$40, %rsp
	.cfi_remember_state
	.cfi_def_cfa_offset 56
	popq	%rbx
	.cfi_def_cfa_offset 48
.LVL100:
	popq	%rbp
	.cfi_def_cfa_offset 40
	popq	%r12
	.cfi_def_cfa_offset 32
	popq	%r13
	.cfi_def_cfa_offset 24
.LVL101:
	popq	%r14
	.cfi_def_cfa_offset 16
.LVL102:
	popq	%r15
	.cfi_def_cfa_offset 8
	ret
.LVL103:
	.p2align 4,,10
	.p2align 3
.L123:
	.cfi_restore_state
	testl	%edx, %edx
	jne	.L124
.LBB986:
.LBB976:
.LBB973:
	.loc 1 462 0
	xorl	%eax, %eax
.LVL104:
	xorl	%esi, %esi
	subl	%eax, %ebp
	movl	%eax, %edx
	movl	%ebp, %ecx
	shrl	%ecx
	movl	%ecx, %edi
	addl	%edi, %edi
	jne	.L125
	jmp	.L103
.LVL105:
	.p2align 4,,10
	.p2align 3
.L122:
.LBE973:
.LBE976:
.LBE986:
.LBB987:
.LBB967:
.LBB951:
.LBB952:
	.loc 1 1395 0
	movq	finished_trap(%rip), %rax
	movq	%r12, %rdx
.LVL106:
	testq	%rax, %rax
	jne	.L97
.LVL107:
.LBB953:
.LBB954:
	.loc 1 1560 0
	movq	code(%rip), %r15
	testq	%r15, %r15
	je	.L126
.LVL108:
.L96:
	.loc 1 1564 0
	movl	$after_c_trap, %r8d
.LBB955:
.LBB956:
	.loc 3 66 0
	movl	$c_trap, %esi
	movq	%r15, %rdi
.LBE956:
.LBE955:
	.loc 1 1564 0
	subq	$c_trap, %r8
.LVL109:
.LBB958:
.LBB957:
	.loc 3 66 0
	movq	%r8, %rdx
	movq	%r8, 8(%rsp)
	call	mempcpy
.LVL110:
.LBE957:
.LBE958:
	.loc 1 1564 0
	movq	%rax, code(%rip)
	.loc 1 1565 0
	movb	$0, (%rax)
	.loc 1 1568 0
	movq	%r15, %rdi
	movslq	hole_len(%rip), %r9
	movq	8(%rsp), %r8
	movq	hole_str(%rip), %rdx
	movq	%r8, %rsi
	movq	%r9, %rcx
	movq	%r9, (%rsp)
	call	memmem
.LVL111:
.LBB959:
.LBB960:
	.loc 3 66 0
	movq	(%rsp), %r9
	leaq	24(%rsp), %rsi
	movq	%rax, %rdi
.LBE960:
.LBE959:
	.loc 1 1569 0
	movq	$-1, 24(%rsp)
.LVL112:
.LBB962:
.LBB961:
	.loc 3 66 0
	movq	%r9, %rdx
	call	memcpy
.LVL113:
.LBE961:
.LBE962:
.LBE954:
.LBE953:
	.loc 1 1396 0
	movq	%r15, finished_trap(%rip)
	movq	frame_pointer(%rip), %rdx
	movq	%r15, %rax
	jmp	.L97
.LVL114:
	.p2align 4,,10
	.p2align 3
.L113:
.LBE952:
.LBE951:
.LBE967:
.LBE987:
.LBB988:
	.loc 1 441 0
	movl	$2, %esi
	jmp	.L101
.LVL115:
	.p2align 4,,10
	.p2align 3
.L114:
	movl	$3, %esi
	jmp	.L101
.LVL116:
	.p2align 4,,10
	.p2align 3
.L115:
	movl	$4, %esi
	jmp	.L101
.LVL117:
	.p2align 4,,10
	.p2align 3
.L116:
	movl	$5, %esi
	jmp	.L101
.LVL118:
	.p2align 4,,10
	.p2align 3
.L112:
	movl	$1, %esi
	jmp	.L101
.LVL119:
.L126:
.LBE988:
.LBB989:
.LBB968:
.LBB966:
.LBB965:
.LBB964:
.LBB963:
	.loc 1 1561 0
	movl	%edi, %r8d
	xorl	%r9d, %r9d
	movl	$34, %ecx
	movl	$7, %edx
	movl	$1048576, %esi
.LVL120:
	xorl	%edi, %edi
.LVL121:
	call	mmap
.LVL122:
	movq	%rax, code(%rip)
	movq	%rax, %r15
	jmp	.L96
.LVL123:
.L121:
.LBE963:
.LBE964:
.LBE965:
.LBE966:
.LBE968:
.LBE989:
.LBB990:
.LBB947:
	.loc 1 428 0
	movl	$__PRETTY_FUNCTION__.4204, %ecx
	movl	$428, %edx
.LVL124:
	movl	$.LC0, %esi
.LVL125:
	movl	$.LC9, %edi
.LVL126:
	call	__assert_fail
.LVL127:
.L124:
.LBE947:
.LBE990:
.LBB991:
.LBB977:
.LBB974:
	.loc 1 462 0
	movl	%edx, %eax
.LVL128:
	jmp	.L99
.LBE974:
.LBE977:
.LBE991:
	.cfi_endproc
.LFE77:
	.size	push_frame, .-push_frame
	.p2align 4,,15
	.globl	pop_frame
	.type	pop_frame, @function
pop_frame:
.LFB78:
	.loc 1 446 0
	.cfi_startproc
	.loc 1 448 0
	movq	frame_pointer(%rip), %rsi
	movq	8(%rsi), %rcx
.LVL129:
.LBB997:
.LBB998:
	.loc 1 1407 0
	cmpq	finished_trap(%rip), %rcx
	je	.L130
.LVL130:
	.loc 1 1412 0
	cmpq	code_data+16(%rip), %rcx
	je	.L131
	movl	$code_data, %edx
	xorl	%eax, %eax
.LVL131:
	.p2align 4,,10
	.p2align 3
.L129:
	addq	$24, %rdx
	.loc 1 1415 0
	addl	$1, %eax
.LVL132:
	.loc 1 1412 0
	cmpq	16(%rdx), %rcx
	jne	.L129
.LVL133:
.L128:
.LBE998:
.LBE997:
	.loc 1 451 0
	movq	(%rsi), %rdx
	movq	%rdx, frame_pointer(%rip)
	.loc 1 453 0
	ret
.LVL134:
.L131:
.LBB1000:
.LBB999:
	.loc 1 1412 0
	xorl	%eax, %eax
	jmp	.L128
.LVL135:
.L130:
	.loc 1 1408 0
	movl	$-1, %eax
	jmp	.L128
.LBE999:
.LBE1000:
	.cfi_endproc
.LFE78:
	.size	pop_frame, .-pop_frame
	.p2align 4,,15
	.globl	get_local
	.type	get_local, @function
get_local:
.LFB79:
	.loc 1 455 0
	.cfi_startproc
.LVL136:
	.loc 1 457 0
	movq	frame_pointer(%rip), %rax
	movslq	%edi, %rdi
	movq	16(%rax,%rdi,8), %rax
	.loc 1 458 0
	ret
	.cfi_endproc
.LFE79:
	.size	get_local, .-get_local
	.p2align 4,,15
	.globl	set_local
	.type	set_local, @function
set_local:
.LFB80:
	.loc 1 460 0
	.cfi_startproc
.LVL137:
	.loc 1 462 0
	movq	frame_pointer(%rip), %rax
	movslq	%edi, %rdi
	movq	%rsi, 16(%rax,%rdi,8)
	ret
	.cfi_endproc
.LFE80:
	.size	set_local, .-set_local
	.p2align 4,,15
	.globl	swap_heaps
	.type	swap_heaps, @function
swap_heaps:
.LFB83:
	.loc 1 505 0
	.cfi_startproc
.LVL138:
	.loc 1 508 0
	movq	heap_pointer(%rip), %rax
	.loc 1 511 0
	movq	old_top_of_heap(%rip), %rdx
	.loc 1 508 0
	movq	%rax, old_heap_pointer(%rip)
	.loc 1 510 0
	movq	top_of_heap(%rip), %rax
.LVL139:
	.loc 1 511 0
	movq	%rdx, top_of_heap(%rip)
	.loc 1 514 0
	movq	heap_start(%rip), %rdx
.LVL140:
	.loc 1 512 0
	movq	%rax, old_top_of_heap(%rip)
	.loc 1 515 0
	movq	old_heap_start(%rip), %rax
	.loc 1 516 0
	movq	%rdx, old_heap_start(%rip)
	.loc 1 515 0
	movq	%rax, heap_start(%rip)
	.loc 1 518 0
	movq	%rax, heap_pointer(%rip)
	ret
	.cfi_endproc
.LFE83:
	.size	swap_heaps, .-swap_heaps
	.p2align 4,,15
	.globl	sizeIValue
	.type	sizeIValue, @function
sizeIValue:
.LFB85:
	.loc 1 553 0
	.cfi_startproc
.LVL141:
.LBB1036:
.LBB1037:
.LBB1038:
.LBB1039:
.LBB1040:
.LBB1041:
.LBB1042:
	.loc 1 2144 0
	andq	CLEAR_ARRAY_OBJ_MASK(%rip), %rdi
.LVL142:
.LBE1042:
.LBE1041:
	.loc 1 2161 0
	movl	$4, %eax
	cmpq	$4, (%rdi)
	cmovbe	(%rdi), %rax
.LBE1040:
.LBE1039:
.LBE1038:
.LBE1037:
.LBE1036:
	.loc 1 554 0
	cmpl	$2, %eax
	je	.L138
	jb	.L139
.LVL143:
.LBB1043:
.LBB1044:
	.loc 1 564 0
	movq	(%rdi), %rax
	.loc 1 565 0
	movslq	4(%rax), %rax
	leaq	16(,%rax,8), %rax
	ret
.LVL144:
.L139:
	.p2align 4,,10
	.p2align 3
.L138:
.LBE1044:
.LBE1043:
.LBB1045:
	.loc 1 560 0
	movq	8(%rdi), %rax
	leaq	16(,%rax,8), %rax
.LBE1045:
	.loc 1 571 0
	ret
	.cfi_endproc
.LFE85:
	.size	sizeIValue, .-sizeIValue
	.p2align 4,,15
	.globl	exec_set_local_op
	.type	exec_set_local_op, @function
exec_set_local_op:
.LFB91:
	.loc 1 697 0
	.cfi_startproc
.LVL145:
.LBB1046:
.LBB1047:
	.loc 1 408 0
	movq	stack_pointer(%rip), %rax
.LBE1047:
.LBE1046:
.LBB1049:
.LBB1050:
	.loc 1 462 0
	movslq	4(%rdi), %rdx
.LBE1050:
.LBE1049:
.LBB1052:
.LBB1048:
	.loc 1 408 0
	movq	-8(%rax), %rcx
.LVL146:
.LBE1048:
.LBE1052:
.LBB1053:
.LBB1051:
	.loc 1 462 0
	movq	frame_pointer(%rip), %rax
	movq	%rcx, 16(%rax,%rdx,8)
	ret
.LBE1051:
.LBE1053:
	.cfi_endproc
.LFE91:
	.size	exec_set_local_op, .-exec_set_local_op
	.p2align 4,,15
	.globl	exec_get_local_op
	.type	exec_get_local_op, @function
exec_get_local_op:
.LFB92:
	.loc 1 704 0
	.cfi_startproc
.LVL147:
.LBB1054:
.LBB1055:
	.loc 1 457 0
	movslq	4(%rdi), %rdx
	movq	frame_pointer(%rip), %rax
	movq	16(%rax,%rdx,8), %rdx
.LVL148:
.LBE1055:
.LBE1054:
.LBB1056:
.LBB1057:
	.loc 1 392 0
	movq	stack_pointer(%rip), %rax
	movq	%rdx, (%rax)
.LVL149:
	.loc 1 393 0
	addq	$8, stack_pointer(%rip)
	ret
.LBE1057:
.LBE1056:
	.cfi_endproc
.LFE92:
	.size	exec_get_local_op, .-exec_get_local_op
	.p2align 4,,15
	.globl	exec_set_global_op
	.type	exec_set_global_op, @function
exec_set_global_op:
.LFB93:
	.loc 1 712 0
	.cfi_startproc
.LVL150:
.LBB1058:
.LBB1059:
	.loc 1 408 0
	movq	stack_pointer(%rip), %rax
	movq	-8(%rax), %rdx
.LVL151:
.LBE1059:
.LBE1058:
.LBB1060:
.LBB1061:
	.loc 1 373 0
	movslq	4(%rdi), %rax
	movq	%rdx, globals(,%rax,8)
.LVL152:
	ret
.LBE1061:
.LBE1060:
	.cfi_endproc
.LFE93:
	.size	exec_set_global_op, .-exec_set_global_op
	.p2align 4,,15
	.globl	exec_get_global_op
	.type	exec_get_global_op, @function
exec_get_global_op:
.LFB94:
	.loc 1 721 0
	.cfi_startproc
.LVL153:
.LBB1062:
.LBB1063:
	.loc 1 369 0
	movslq	4(%rdi), %rax
	movq	globals(,%rax,8), %rdx
.LVL154:
.LBE1063:
.LBE1062:
.LBB1064:
.LBB1065:
	.loc 1 392 0
	movq	stack_pointer(%rip), %rax
	movq	%rdx, (%rax)
.LVL155:
	.loc 1 393 0
	addq	$8, stack_pointer(%rip)
	ret
.LBE1065:
.LBE1064:
	.cfi_endproc
.LFE94:
	.size	exec_get_global_op, .-exec_get_global_op
	.p2align 4,,15
	.globl	exec_branch_op
	.type	exec_branch_op, @function
exec_branch_op:
.LFB95:
	.loc 1 731 0
	.cfi_startproc
.LVL156:
.LBB1079:
.LBB1080:
	.loc 1 400 0
	movq	stack_pointer(%rip), %rdx
	leaq	-8(%rdx), %rcx
	movq	%rcx, stack_pointer(%rip)
	.loc 1 401 0
	movq	-8(%rdx), %rcx
.LVL157:
.LBE1080:
.LBE1079:
.LBB1081:
.LBB1082:
	.loc 1 2157 0
	cmpq	$2, %rcx
	je	.L147
	.loc 1 2159 0
	movq	%rcx, %r8
	shrq	$63, %r8
	leaq	(%rcx,%r8), %rdx
	andl	$1, %edx
	subq	%r8, %rdx
	cmpq	$1, %rdx
	je	.L153
.LVL158:
.L148:
.LBE1082:
.LBE1081:
	.loc 1 735 0
	movl	4(%rdi), %eax
	ret
.LVL159:
	.p2align 4,,10
	.p2align 3
.L153:
.LBB1089:
.LBB1088:
.LBB1083:
.LBB1084:
.LBB1085:
.LBB1086:
.LBB1087:
	.loc 1 2144 0
	andq	CLEAR_ARRAY_OBJ_MASK(%rip), %rcx
.LVL160:
.LBE1087:
.LBE1086:
	.loc 1 2161 0
	movl	$4, %eax
	cmpq	$4, (%rcx)
	cmovbe	(%rcx), %rax
.LBE1085:
.LBE1084:
.LBE1083:
.LBE1088:
.LBE1089:
	.loc 1 734 0
	cmpl	$1, %eax
	jne	.L148
.LVL161:
.L147:
	.loc 1 737 0
	leal	1(%rsi), %eax
	.loc 1 739 0
	ret
	.cfi_endproc
.LFE95:
	.size	exec_branch_op, .-exec_branch_op
	.p2align 4,,15
	.globl	exec_goto_op
	.type	exec_goto_op, @function
exec_goto_op:
.LFB96:
	.loc 1 745 0
	.cfi_startproc
.LVL162:
	.loc 1 746 0
	movl	4(%rdi), %eax
	.loc 1 747 0
	ret
	.cfi_endproc
.LFE96:
	.size	exec_goto_op, .-exec_goto_op
	.p2align 4,,15
	.globl	exec_drop_op
	.type	exec_drop_op, @function
exec_drop_op:
.LFB97:
	.loc 1 752 0
	.cfi_startproc
.LBB1090:
.LBB1091:
	.loc 1 400 0
	subq	$8, stack_pointer(%rip)
.LVL163:
	ret
.LBE1091:
.LBE1090:
	.cfi_endproc
.LFE97:
	.size	exec_drop_op, .-exec_drop_op
	.p2align 4,,15
	.globl	exec_lit_op
	.type	exec_lit_op, @function
exec_lit_op:
.LFB98:
	.loc 1 756 0
	.cfi_startproc
.LVL164:
.LBB1092:
.LBB1093:
	.loc 1 2174 0
	movslq	4(%rdi), %rdx
	movq	stack_pointer(%rip), %rax
	salq	$3, %rdx
.LVL165:
	movq	%rdx, (%rax)
.LVL166:
.LBE1093:
.LBE1092:
.LBB1094:
.LBB1095:
	.loc 1 393 0
	addq	$8, stack_pointer(%rip)
	ret
.LBE1095:
.LBE1094:
	.cfi_endproc
.LFE98:
	.size	exec_lit_op, .-exec_lit_op
	.p2align 4,,15
	.globl	exec_lit_null_op
	.type	exec_lit_null_op, @function
exec_lit_null_op:
.LFB99:
	.loc 1 760 0
	.cfi_startproc
.LVL167:
.LBB1096:
.LBB1097:
	.loc 1 392 0
	movq	stack_pointer(%rip), %rax
	movq	$2, (%rax)
	.loc 1 393 0
	addq	$8, stack_pointer(%rip)
	ret
.LBE1097:
.LBE1096:
	.cfi_endproc
.LFE99:
	.size	exec_lit_null_op, .-exec_lit_null_op
	.p2align 4,,15
	.globl	exec_array_op_2
	.type	exec_array_op_2, @function
exec_array_op_2:
.LFB101:
	.loc 1 792 0
	.cfi_startproc
.LVL168:
.LBB1098:
.LBB1099:
	.loc 1 2109 0
	orq	ARRAY_OBJ_MASK(%rip), %rdi
.LVL169:
.LBE1099:
.LBE1098:
.LBB1100:
.LBB1101:
	.loc 1 392 0
	movq	stack_pointer(%rip), %rax
	movq	%rdi, (%rax)
.LBE1101:
.LBE1100:
	.loc 1 814 0
	movl	$1, %eax
.LBB1103:
.LBB1102:
	.loc 1 393 0
	addq	$8, stack_pointer(%rip)
.LBE1102:
.LBE1103:
	.loc 1 814 0
	ret
	.cfi_endproc
.LFE101:
	.size	exec_array_op_2, .-exec_array_op_2
	.p2align 4,,15
	.globl	exec_slot_op
	.type	exec_slot_op, @function
exec_slot_op:
.LFB104:
	.loc 1 885 0
	.cfi_startproc
.LVL170:
	subq	$8, %rsp
	.cfi_def_cfa_offset 16
.LBB1133:
.LBB1134:
	.loc 1 400 0
	movq	stack_pointer(%rip), %r9
.LBE1134:
.LBE1133:
	.loc 1 886 0
	movl	4(%rdi), %esi
.LBB1136:
.LBB1135:
	.loc 1 400 0
	leaq	-8(%r9), %rax
	movq	%rax, stack_pointer(%rip)
	.loc 1 401 0
	movq	-8(%r9), %rdi
.LVL171:
.LBE1135:
.LBE1136:
.LBB1137:
.LBB1138:
.LBB1139:
.LBB1140:
	.loc 1 2157 0
	cmpq	$2, %rdi
	je	.L160
	.loc 1 2159 0
	movq	%rdi, %rdx
	shrq	$63, %rdx
	leaq	(%rdi,%rdx), %rax
	andl	$1, %eax
	subq	%rdx, %rax
	cmpq	$1, %rax
	je	.L176
.LVL172:
	.p2align 4,,10
	.p2align 3
.L160:
.LBE1140:
.LBE1139:
	call	to_obj_val.part.3
.LVL173:
	.p2align 4,,10
	.p2align 3
.L176:
.LBB1149:
.LBB1148:
.LBB1141:
.LBB1142:
.LBB1143:
.LBB1144:
.LBB1145:
	.loc 1 2144 0
	movq	CLEAR_ARRAY_OBJ_MASK(%rip), %r10
.LBE1145:
.LBE1144:
	.loc 1 2161 0
	movb	$4, %al
.LBB1147:
.LBB1146:
	.loc 1 2144 0
	andq	%r10, %rdi
.LVL174:
.LBE1146:
.LBE1147:
	.loc 1 2161 0
	cmpq	$4, (%rdi)
	cmovbe	(%rdi), %rax
.LBE1143:
.LBE1142:
.LBE1141:
.LBE1148:
.LBE1149:
	.loc 1 2099 0
	cmpl	$4, %eax
	jne	.L160
.LBE1138:
.LBE1137:
.LBB1150:
.LBB1151:
.LBB1152:
.LBB1153:
.LBB1154:
.LBB1155:
.LBB1156:
.LBB1157:
.LBB1158:
	.loc 1 2161 0
	movl	$4, %r8d
.LVL175:
.L174:
.LBE1158:
.LBE1157:
.LBE1156:
.LBE1155:
.LBE1154:
.LBE1153:
.LBE1152:
	.loc 1 318 0
	movq	(%rdi), %rax
.LVL176:
.LBB1169:
	.loc 1 320 0
	movl	4(%rax), %edx
	addl	(%rax), %edx
	testl	%edx, %edx
	jle	.L162
	subl	$1, %edx
.LBE1169:
	.loc 1 319 0
	xorl	%ecx, %ecx
	leaq	8(%rax,%rdx,8), %rdx
	jmp	.L165
.LVL177:
	.p2align 4,,10
	.p2align 3
.L163:
	addq	$8, %rax
.LBB1170:
	.loc 1 320 0
	cmpq	%rdx, %rax
	je	.L162
.LVL178:
.L165:
	.loc 1 321 0
	cmpl	$-3, 12(%rax)
	jne	.L163
	.loc 1 325 0
	cmpl	%esi, 8(%rax)
	je	.L177
	addq	$8, %rax
	.loc 1 328 0
	addl	$1, %ecx
.LVL179:
	.loc 1 320 0
	cmpq	%rdx, %rax
	jne	.L165
.LVL180:
.L162:
.LBE1170:
	.loc 1 331 0
	movq	8(%rdi), %rdx
.LVL181:
.LBB1171:
.LBB1168:
.LBB1167:
.LBB1166:
	.loc 1 2157 0
	cmpq	$2, %rdx
	je	.L160
	.loc 1 2159 0
	movq	%rdx, %rcx
	shrq	$63, %rcx
	leaq	(%rdx,%rcx), %rax
	andl	$1, %eax
	subq	%rcx, %rax
	cmpq	$1, %rax
	jne	.L160
.LVL182:
.LBB1165:
.LBB1164:
.LBB1163:
.LBB1159:
.LBB1160:
	.loc 1 2144 0
	movq	%rdx, %rdi
.LVL183:
.LBE1160:
.LBE1159:
	.loc 1 2161 0
	movq	%r8, %rax
.LBB1162:
.LBB1161:
	.loc 1 2144 0
	andq	%r10, %rdi
.LVL184:
.LBE1161:
.LBE1162:
	.loc 1 2161 0
	cmpq	$4, (%rdi)
	cmovbe	(%rdi), %rax
.LBE1163:
.LBE1164:
.LBE1165:
.LBE1166:
.LBE1167:
	.loc 1 2099 0
	cmpl	$4, %eax
	je	.L174
	jmp	.L160
.LVL185:
	.p2align 4,,10
	.p2align 3
.L177:
.LBE1168:
.LBE1171:
.LBB1172:
	.loc 1 326 0
	movslq	%ecx, %rcx
	movq	16(%rdi,%rcx,8), %rax
.LBE1172:
.LBE1151:
.LBE1150:
.LBB1173:
.LBB1174:
	.loc 1 392 0
	movq	%rax, -8(%r9)
.LVL186:
	.loc 1 393 0
	addq	$8, stack_pointer(%rip)
.LBE1174:
.LBE1173:
	.loc 1 887 0
	addq	$8, %rsp
	.cfi_def_cfa_offset 8
	ret
	.cfi_endproc
.LFE104:
	.size	exec_slot_op, .-exec_slot_op
	.p2align 4,,15
	.globl	exec_set_slot_op
	.type	exec_set_slot_op, @function
exec_set_slot_op:
.LFB105:
	.loc 1 893 0
	.cfi_startproc
.LVL187:
.LBB1202:
.LBB1203:
	.loc 1 400 0
	movq	stack_pointer(%rip), %r8
.LBE1203:
.LBE1202:
	.loc 1 893 0
	pushq	%rbx
	.cfi_def_cfa_offset 16
	.cfi_offset 3, -16
	.loc 1 895 0
	movl	4(%rdi), %esi
.LBB1206:
.LBB1204:
	.loc 1 400 0
	leaq	-8(%r8), %rax
	movq	%rax, stack_pointer(%rip)
.LBE1204:
.LBE1206:
.LBB1207:
.LBB1208:
	leaq	-16(%r8), %rax
.LBE1208:
.LBE1207:
.LBB1210:
.LBB1205:
	.loc 1 401 0
	movq	-8(%r8), %r10
.LVL188:
.LBE1205:
.LBE1210:
.LBB1211:
.LBB1209:
	.loc 1 400 0
	movq	%rax, stack_pointer(%rip)
	.loc 1 401 0
	movq	-16(%r8), %r9
.LVL189:
.LBE1209:
.LBE1211:
.LBB1212:
.LBB1213:
.LBB1214:
.LBB1215:
	.loc 1 2157 0
	cmpq	$2, %r9
	je	.L179
	.loc 1 2159 0
	movq	%r9, %rdx
	shrq	$63, %rdx
	leaq	(%r9,%rdx), %rax
	andl	$1, %eax
	subq	%rdx, %rax
	cmpq	$1, %rax
	je	.L199
.LVL190:
.L179:
.LBE1215:
.LBE1214:
	call	to_obj_val.part.3
.LVL191:
	.p2align 4,,10
	.p2align 3
.L199:
.LBB1224:
.LBB1223:
.LBB1216:
.LBB1217:
.LBB1218:
.LBB1219:
.LBB1220:
	.loc 1 2144 0
	movq	CLEAR_ARRAY_OBJ_MASK(%rip), %r11
.LBE1220:
.LBE1219:
	.loc 1 2161 0
	movb	$4, %al
.LBB1222:
.LBB1221:
	.loc 1 2144 0
	andq	%r11, %r9
.LVL192:
.LBE1221:
.LBE1222:
	.loc 1 2161 0
	cmpq	$4, (%r9)
	cmovbe	(%r9), %rax
.LBE1218:
.LBE1217:
.LBE1216:
.LBE1223:
.LBE1224:
	.loc 1 2099 0
	cmpl	$4, %eax
	jne	.L179
.LBE1213:
.LBE1212:
.LBB1225:
.LBB1226:
.LBB1227:
.LBB1228:
.LBB1229:
.LBB1230:
.LBB1231:
.LBB1232:
.LBB1233:
	.loc 1 2161 0
	movl	$4, %ebx
.LVL193:
.L197:
.LBE1233:
.LBE1232:
.LBE1231:
.LBE1230:
.LBE1229:
.LBE1228:
.LBE1227:
	.loc 1 335 0
	movq	(%r9), %rax
.LVL194:
.LBB1242:
	.loc 1 337 0
	movl	4(%rax), %edx
	addl	(%rax), %edx
	testl	%edx, %edx
	jle	.L181
	.loc 1 338 0
	cmpl	%esi, 8(%rax)
	je	.L200
	subl	$1, %edx
	leaq	(%rax,%rdx,8), %rdi
.LBE1242:
	.loc 1 336 0
	xorl	%edx, %edx
	jmp	.L184
.LVL195:
	.p2align 4,,10
	.p2align 3
.L186:
	addq	$8, %rax
.LBB1243:
	.loc 1 338 0
	cmpl	%esi, 8(%rax)
	je	.L182
.LVL196:
.L184:
	.loc 1 343 0
	xorl	%ecx, %ecx
	cmpl	$-3, 12(%rax)
	sete	%cl
	addl	%ecx, %edx
.LVL197:
	.loc 1 337 0
	cmpq	%rdi, %rax
	jne	.L186
.LVL198:
.L181:
.LBE1243:
	.loc 1 346 0
	movq	8(%r9), %r9
.LVL199:
.LBB1244:
.LBB1241:
.LBB1240:
.LBB1239:
	.loc 1 2157 0
	cmpq	$2, %r9
	je	.L179
	.loc 1 2159 0
	movq	%r9, %rdx
	shrq	$63, %rdx
	leaq	(%r9,%rdx), %rax
	andl	$1, %eax
	subq	%rdx, %rax
	cmpq	$1, %rax
	jne	.L179
.LVL200:
.LBB1238:
.LBB1237:
.LBB1236:
.LBB1234:
.LBB1235:
	.loc 1 2144 0
	andq	%r11, %r9
.LVL201:
.LBE1235:
.LBE1234:
	.loc 1 2161 0
	movq	%rbx, %rax
	cmpq	$4, (%r9)
	cmovbe	(%r9), %rax
.LBE1236:
.LBE1237:
.LBE1238:
.LBE1239:
.LBE1240:
	.loc 1 2099 0
	cmpl	$4, %eax
	je	.L197
	jmp	.L179
.LVL202:
	.p2align 4,,10
	.p2align 3
.L200:
.LBE1241:
.LBE1244:
	.loc 1 336 0
	xorl	%edx, %edx
.LVL203:
	.p2align 4,,10
	.p2align 3
.L182:
.LBB1245:
	.loc 1 339 0
	movslq	%edx, %rdx
	movq	%r10, 16(%r9,%rdx,8)
.LVL204:
.LBE1245:
.LBE1226:
.LBE1225:
.LBB1246:
.LBB1247:
	.loc 1 392 0
	movq	%r10, -16(%r8)
.LVL205:
	.loc 1 393 0
	addq	$8, stack_pointer(%rip)
.LVL206:
.LBE1247:
.LBE1246:
	.loc 1 897 0
	popq	%rbx
	.cfi_def_cfa_offset 8
	ret
	.cfi_endproc
.LFE105:
	.size	exec_set_slot_op, .-exec_set_slot_op
	.p2align 4,,15
	.globl	exec_call_op
	.type	exec_call_op, @function
exec_call_op:
.LFB106:
	.loc 1 909 0
	.cfi_startproc
.LVL207:
	pushq	%r15
	.cfi_def_cfa_offset 16
	.cfi_offset 15, -16
	.loc 1 911 0
	addl	$1, %esi
.LVL208:
	.loc 1 909 0
	movq	%rdi, %r15
	pushq	%r14
	.cfi_def_cfa_offset 24
	.cfi_offset 14, -24
	pushq	%r13
	.cfi_def_cfa_offset 32
	.cfi_offset 13, -32
	pushq	%r12
	.cfi_def_cfa_offset 40
	.cfi_offset 12, -40
	pushq	%rbp
	.cfi_def_cfa_offset 48
	.cfi_offset 6, -48
	pushq	%rbx
	.cfi_def_cfa_offset 56
	.cfi_offset 3, -56
	subq	$56, %rsp
	.cfi_def_cfa_offset 112
	.loc 1 910 0
	movl	4(%rdi), %r13d
.LVL209:
	.loc 1 911 0
	movl	8(%rdi), %r14d
.LVL210:
.LBB1285:
.LBB1286:
.LBB1287:
.LBB1288:
	.loc 1 427 0
	movq	frame_pointer(%rip), %r12
.LBE1288:
.LBE1287:
.LBE1286:
.LBE1285:
	.loc 1 910 0
	movslq	%r13d, %rax
	leaq	(%rax,%rax,2), %rax
.LBB1339:
.LBB1337:
.LBB1292:
.LBB1289:
	.loc 1 427 0
	movq	%r12, %rbx
.LBE1289:
.LBE1292:
	.loc 1 434 0
	movl	code_data+12(,%rax,8), %ebp
	addl	%r14d, %ebp
.LVL211:
.LBB1293:
.LBB1290:
	.loc 1 426 0
	movslq	%ebp, %r11
	leaq	16(,%r11,8), %r10
.LVL212:
	.loc 1 427 0
	subq	%r10, %rbx
.LVL213:
	.loc 1 428 0
	cmpq	$frames, %r12
	jbe	.L238
.LVL214:
.LBE1290:
.LBE1293:
.LBB1294:
.LBB1295:
	.loc 1 1394 0
	cmpl	$-1, %esi
	je	.L239
.LVL215:
	.loc 1 1401 0
	movslq	%esi, %rsi
	movq	%r12, %rdx
	leaq	(%rsi,%rsi,2), %rax
	movq	code_data+16(,%rax,8), %rax
.LVL216:
.L206:
.LBE1295:
.LBE1294:
.LBB1314:
	.loc 1 438 0
	testl	%ebp, %ebp
.LBE1314:
	.loc 1 436 0
	movq	%rdx, (%rbx)
	.loc 1 435 0
	movq	%rax, 8(%rbx)
	.loc 1 437 0
	movq	%rbx, frame_pointer(%rip)
.LVL217:
.LBB1323:
	.loc 1 438 0
	jle	.L217
.LBB1315:
.LBB1316:
	.loc 1 462 0
	subq	%r10, %r12
	leaq	0(,%r11,8), %rdx
	xorl	%esi, %esi
	leaq	16(%r12), %rdi
	call	memset
.LVL218:
	movq	%rbx, %rax
	movl	%ebp, %ecx
	salq	$60, %rax
	shrq	$63, %rax
	cmpl	%ebp, %eax
	cmova	%ebp, %eax
	cmpl	$6, %ebp
	ja	.L240
.L210:
.LVL219:
	cmpl	$1, %ecx
.LBE1316:
.LBE1315:
.LBE1323:
.LBB1324:
.LBB1325:
.LBB1326:
	movq	$2, 16(%rbx)
.LVL220:
	jbe	.L224
.LVL221:
	cmpl	$2, %ecx
	movq	$2, 24(%rbx)
.LVL222:
	jbe	.L225
.LVL223:
	cmpl	$3, %ecx
	movq	$2, 32(%rbx)
.LVL224:
	jbe	.L226
.LVL225:
	cmpl	$4, %ecx
	movq	$2, 40(%rbx)
.LVL226:
	jbe	.L227
.LVL227:
	cmpl	$5, %ecx
	movq	$2, 48(%rbx)
.LVL228:
	jbe	.L228
.LVL229:
	movq	$2, 56(%rbx)
.LVL230:
.LBE1326:
.LBE1325:
	.loc 1 441 0
	movl	$6, %edx
.LVL231:
.L212:
	cmpl	%ecx, %ebp
	je	.L217
	subl	%ecx, %ebp
.LVL232:
	movl	%ecx, %esi
	movl	%ebp, %eax
	shrl	%eax
	movl	%eax, %edi
	addl	%edi, %edi
	je	.L214
.LVL233:
.L242:
	leaq	16(%rbx,%rsi,8), %rsi
	movdqa	.LC8(%rip), %xmm0
.LBE1324:
.LBB1329:
.LBB1320:
.LBB1317:
	.loc 1 462 0
	xorl	%ecx, %ecx
.L218:
.LVL234:
	addl	$1, %ecx
	addq	$16, %rsi
.LBE1317:
.LBE1320:
.LBE1329:
.LBB1330:
.LBB1328:
.LBB1327:
	movdqa	%xmm0, -16(%rsi)
	cmpl	%ecx, %eax
	ja	.L218
	addl	%edi, %edx
	cmpl	%edi, %ebp
	je	.L217
.LVL235:
.L214:
	movslq	%edx, %rdx
	movq	$2, 16(%rbx,%rdx,8)
.LVL236:
.L217:
	movq	stack_pointer(%rip), %rax
.LBE1327:
.LBE1328:
.LBE1330:
.LBE1337:
.LBE1339:
.LBB1340:
	.loc 1 912 0
	movl	%r14d, %edx
	subl	$1, %edx
.LVL237:
	leaq	-8(%rax), %rcx
	js	.L231
	.p2align 4,,10
	.p2align 3
.L234:
.LBB1341:
.LBB1342:
.LBB1343:
	.loc 1 400 0
	movq	%rcx, stack_pointer(%rip)
	.loc 1 401 0
	movq	(%rcx), %rdi
.LVL238:
.LBE1343:
.LBE1342:
.LBB1344:
.LBB1345:
	.loc 1 462 0
	movslq	%edx, %rsi
.LBE1345:
.LBE1344:
.LBE1341:
	.loc 1 912 0
	subl	$1, %edx
.LVL239:
	subq	$8, %rcx
	cmpl	$-1, %edx
.LBB1348:
.LBB1347:
.LBB1346:
	.loc 1 462 0
	movq	%rdi, 16(%rbx,%rsi,8)
.LBE1346:
.LBE1347:
.LBE1348:
	.loc 1 912 0
	jne	.L234
.LVL240:
.L231:
.LBE1340:
	.loc 1 917 0
	addq	$56, %rsp
	.cfi_remember_state
	.cfi_def_cfa_offset 56
	movl	%r13d, %eax
	popq	%rbx
	.cfi_def_cfa_offset 48
.LVL241:
	popq	%rbp
	.cfi_def_cfa_offset 40
	popq	%r12
	.cfi_def_cfa_offset 32
	popq	%r13
	.cfi_def_cfa_offset 24
	popq	%r14
	.cfi_def_cfa_offset 16
	popq	%r15
	.cfi_def_cfa_offset 8
.LVL242:
	ret
.LVL243:
	.p2align 4,,10
	.p2align 3
.L240:
	.cfi_restore_state
	testl	%eax, %eax
	jne	.L241
.LBB1349:
.LBB1338:
.LBB1331:
.LBB1321:
.LBB1318:
	.loc 1 462 0
	xorl	%ecx, %ecx
.LVL244:
	xorl	%edx, %edx
	subl	%ecx, %ebp
	movl	%ecx, %esi
	movl	%ebp, %eax
	shrl	%eax
	movl	%eax, %edi
	addl	%edi, %edi
	jne	.L242
	jmp	.L214
.LVL245:
	.p2align 4,,10
	.p2align 3
.L239:
.LBE1318:
.LBE1321:
.LBE1331:
.LBB1332:
.LBB1312:
.LBB1296:
.LBB1297:
	.loc 1 1395 0
	movq	finished_trap(%rip), %rax
	movq	%r12, %rdx
	testq	%rax, %rax
	jne	.L206
.LVL246:
.LBB1298:
.LBB1299:
	.loc 1 1560 0
	movq	code(%rip), %r8
	testq	%r8, %r8
	je	.L243
.LVL247:
.L205:
	.loc 1 1564 0
	movl	$after_c_trap, %r13d
.LVL248:
.LBB1300:
.LBB1301:
	.loc 3 66 0
	movq	%r8, %rdi
	movl	$c_trap, %esi
.LBE1301:
.LBE1300:
	.loc 1 1564 0
	subq	$c_trap, %r13
	movq	%r10, 24(%rsp)
	movq	%r11, 16(%rsp)
.LVL249:
.LBB1303:
.LBB1302:
	.loc 3 66 0
	movq	%r13, %rdx
	movq	%r8, 8(%rsp)
	call	mempcpy
.LVL250:
.LBE1302:
.LBE1303:
	.loc 1 1564 0
	movq	%rax, code(%rip)
	.loc 1 1565 0
	movb	$0, (%rax)
	.loc 1 1568 0
	movq	%r13, %rsi
	movslq	hole_len(%rip), %r14
.LVL251:
	movq	8(%rsp), %r8
	movq	hole_str(%rip), %rdx
	movq	%r8, %rdi
	movq	%r14, %rcx
	call	memmem
.LVL252:
.LBB1304:
.LBB1305:
	.loc 3 66 0
	leaq	40(%rsp), %rsi
	movq	%r14, %rdx
	movq	%rax, %rdi
.LBE1305:
.LBE1304:
	.loc 1 1569 0
	movq	$-1, 40(%rsp)
.LVL253:
.LBB1307:
.LBB1306:
	.loc 3 66 0
	call	memcpy
.LVL254:
.LBE1306:
.LBE1307:
.LBE1299:
.LBE1298:
	.loc 1 1396 0
	movq	8(%rsp), %r8
	movl	8(%r15), %r14d
.LVL255:
	movl	4(%r15), %r13d
.LVL256:
	movq	frame_pointer(%rip), %rdx
	movq	16(%rsp), %r11
	movq	24(%rsp), %r10
	movq	%r8, finished_trap(%rip)
	movq	%r8, %rax
	jmp	.L206
.LVL257:
.L225:
.LBE1297:
.LBE1296:
.LBE1312:
.LBE1332:
.LBB1333:
	.loc 1 441 0
	movl	$2, %edx
	jmp	.L212
.LVL258:
.L226:
	movl	$3, %edx
	jmp	.L212
.LVL259:
.L227:
	movl	$4, %edx
	jmp	.L212
.LVL260:
.L228:
	movl	$5, %edx
	jmp	.L212
.LVL261:
.L224:
	movl	$1, %edx
	jmp	.L212
.LVL262:
.L243:
.LBE1333:
.LBB1334:
.LBB1313:
.LBB1311:
.LBB1310:
.LBB1309:
.LBB1308:
	.loc 1 1561 0
	movl	%esi, %r8d
	xorl	%r9d, %r9d
	movl	$34, %ecx
	movl	$7, %edx
	movl	$1048576, %esi
.LVL263:
	xorl	%edi, %edi
.LVL264:
	movq	%r10, 16(%rsp)
	movq	%r11, 8(%rsp)
	call	mmap
.LVL265:
	movq	16(%rsp), %r10
	movq	%rax, code(%rip)
	movq	%rax, %r8
	movq	8(%rsp), %r11
	jmp	.L205
.LVL266:
.L238:
.LBE1308:
.LBE1309:
.LBE1310:
.LBE1311:
.LBE1313:
.LBE1334:
.LBB1335:
.LBB1291:
	.loc 1 428 0
	movl	$__PRETTY_FUNCTION__.4204, %ecx
	movl	$428, %edx
	movl	$.LC0, %esi
.LVL267:
	movl	$.LC9, %edi
.LVL268:
	call	__assert_fail
.LVL269:
.L241:
.LBE1291:
.LBE1335:
.LBB1336:
.LBB1322:
.LBB1319:
	.loc 1 462 0
	movl	%eax, %ecx
.LVL270:
	jmp	.L210
.LBE1319:
.LBE1322:
.LBE1336:
.LBE1338:
.LBE1349:
	.cfi_endproc
.LFE106:
	.size	exec_call_op, .-exec_call_op
	.p2align 4,,15
	.globl	exec_return_op
	.type	exec_return_op, @function
exec_return_op:
.LFB107:
	.loc 1 927 0
	.cfi_startproc
.LBB1357:
.LBB1358:
	.loc 1 448 0
	movq	frame_pointer(%rip), %rsi
	movq	8(%rsi), %rcx
.LVL271:
.LBB1359:
.LBB1360:
	.loc 1 1407 0
	cmpq	finished_trap(%rip), %rcx
	je	.L247
.LVL272:
	.loc 1 1412 0
	cmpq	code_data+16(%rip), %rcx
	je	.L248
	movl	$code_data, %edx
	xorl	%eax, %eax
.LVL273:
	.p2align 4,,10
	.p2align 3
.L246:
	addq	$24, %rdx
	.loc 1 1415 0
	addl	$1, %eax
.LVL274:
	.loc 1 1412 0
	cmpq	16(%rdx), %rcx
	jne	.L246
.LVL275:
.L245:
.LBE1360:
.LBE1359:
	.loc 1 451 0
	movq	(%rsi), %rdx
	movq	%rdx, frame_pointer(%rip)
.LBE1358:
.LBE1357:
	.loc 1 931 0
	ret
.LVL276:
.L248:
.LBB1364:
.LBB1363:
.LBB1362:
.LBB1361:
	.loc 1 1412 0
	xorl	%eax, %eax
	jmp	.L245
.LVL277:
.L247:
	.loc 1 1408 0
	movl	$-1, %eax
	jmp	.L245
.LBE1361:
.LBE1362:
.LBE1363:
.LBE1364:
	.cfi_endproc
.LFE107:
	.size	exec_return_op, .-exec_return_op
	.section	.rodata.str1.1
.LC10:
	.string	"arity == 1"
.LC11:
	.string	"obj_type(arg) == INT_OBJ"
	.section	.rodata.str1.8
	.align 8
.LC12:
	.string	"obj_type(x) == INT_OBJ && obj_type(y) == INT_OBJ"
	.section	.rodata.str1.1
.LC13:
	.string	"arity == 0"
.LC14:
	.string	"arity == 2"
	.section	.rodata.str1.8
	.align 8
.LC15:
	.string	"array index out of bound. array length: %d. index: %d"
	.text
	.p2align 4,,15
	.globl	exec_built_in_method
	.type	exec_built_in_method, @function
exec_built_in_method:
.LFB109:
	.loc 1 972 0
	.cfi_startproc
.LVL278:
	subq	$8, %rsp
	.cfi_def_cfa_offset 16
	.loc 1 974 0
	movl	8(%rdi), %edx
	movq	stack_pointer(%rip), %rsi
	.loc 1 976 0
	xorl	%r8d, %r8d
	.loc 1 974 0
	movslq	%edx, %rax
	movq	%rsi, %rcx
	salq	$3, %rax
	subq	%rax, %rcx
	.loc 1 976 0
	cmpl	$2, %edx
	.loc 1 974 0
	movq	(%rcx), %rax
.LVL279:
	.loc 1 976 0
	leal	-1(%rdx), %ecx
	.loc 1 977 0
	movl	4(%rdi), %edx
	.loc 1 976 0
	cmovge	%ecx, %r8d
.LVL280:
.LBB1631:
.LBB1632:
	.loc 1 2157 0
	cmpq	$2, %rax
	je	.L323
	.loc 1 2159 0
	movq	%rax, %rdi
.LVL281:
	shrq	$63, %rdi
	leaq	(%rax,%rdi), %rcx
	andl	$1, %ecx
	subq	%rdi, %rcx
	cmpq	$1, %rcx
	je	.L328
.L253:
.LBE1632:
.LBE1631:
.LBB1639:
	.loc 1 980 0
	cmpl	$1, %r8d
	jne	.L329
.LBB1640:
.LBB1641:
	.loc 1 400 0
	leaq	-8(%rsi), %rdi
	movq	%rdi, stack_pointer(%rip)
	.loc 1 401 0
	movq	-8(%rsi), %r8
.LVL282:
.LBE1641:
.LBE1640:
.LBB1642:
.LBB1643:
	.loc 1 2157 0
	cmpq	$2, %r8
	je	.L256
	.loc 1 2159 0
	movq	%r8, %r9
	shrq	$63, %r9
	leaq	(%r8,%r9), %rdi
	andl	$1, %edi
	subq	%r9, %rdi
	cmpq	$1, %rdi
	jne	.L257
.LVL283:
.LBB1644:
.LBB1645:
.LBB1646:
.LBB1647:
.LBB1648:
	.loc 1 2144 0
	movq	%r8, %r10
	andq	CLEAR_ARRAY_OBJ_MASK(%rip), %r10
.LBE1648:
.LBE1647:
	.loc 1 2161 0
	movl	$4, %r9d
	cmpq	$4, (%r10)
	cmovbe	(%r10), %r9
.LBE1646:
.LBE1645:
.LBE1644:
.LBE1643:
.LBE1642:
	.loc 1 982 0
	testl	%r9d, %r9d
	jne	.L256
.LVL284:
.L257:
	.loc 1 984 0
	cmpl	INT_ADD_NAME(%rip), %edx
.LBB1649:
.LBB1650:
	.loc 1 400 0
	leaq	-16(%rsi), %r9
	movq	%r9, stack_pointer(%rip)
.LVL285:
.LBE1650:
.LBE1649:
	.loc 1 984 0
	je	.L330
	.loc 1 987 0
	cmpl	INT_SUB_NAME(%rip), %edx
	je	.L331
	.loc 1 990 0
	cmpl	INT_MUL_NAME(%rip), %edx
	je	.L332
	.loc 1 993 0
	cmpl	INT_DIV_NAME(%rip), %edx
	je	.L333
	.loc 1 996 0
	cmpl	INT_MOD_NAME(%rip), %edx
	je	.L334
	.loc 1 999 0
	cmpl	INT_GT_NAME(%rip), %edx
	je	.L335
	.loc 1 1002 0
	cmpl	INT_GE_NAME(%rip), %edx
	je	.L336
	.loc 1 1005 0
	cmpl	INT_LT_NAME(%rip), %edx
	je	.L337
	.loc 1 1008 0
	cmpl	INT_LE_NAME(%rip), %edx
	je	.L338
.LVL286:
.LBB1651:
.LBB1652:
.LBB1653:
.LBB1654:
	.loc 1 2159 0
	cmpq	$1, %rcx
	je	.L339
.LVL287:
.L297:
.LBE1654:
.LBE1653:
.LBB1661:
.LBB1662:
	cmpq	$1, %rdi
	je	.L340
.L299:
.LBE1662:
.LBE1661:
	.loc 1 2256 0
	cmpq	%r8, %rax
	setne	%al
.LVL288:
.L327:
.LBE1652:
.LBE1651:
.LBB1672:
.LBB1673:
	.loc 1 2284 0
	movzbl	%al, %eax
	addq	%rax, %rax
.LBE1673:
.LBE1672:
.LBB1694:
.LBB1695:
	.loc 1 392 0
	movq	%rax, -16(%rsi)
.LVL289:
.LBE1695:
.LBE1694:
	.loc 1 1004 0
	movl	$1, %eax
.LBB1697:
.LBB1696:
	.loc 1 393 0
	addq	$8, stack_pointer(%rip)
.LBE1696:
.LBE1697:
.LBE1639:
	.loc 1 1044 0
	addq	$8, %rsp
	.cfi_remember_state
	.cfi_def_cfa_offset 8
	ret
.LVL290:
	.p2align 4,,10
	.p2align 3
.L328:
	.cfi_restore_state
.LBB1893:
.LBB1638:
.LBB1633:
.LBB1634:
.LBB1635:
.LBB1636:
.LBB1637:
	.loc 1 2144 0
	movq	%rax, %rdi
	andq	CLEAR_ARRAY_OBJ_MASK(%rip), %rdi
.LVL291:
.LBE1637:
.LBE1636:
	.loc 1 2161 0
	movl	$4, %r9d
	cmpq	$4, (%rdi)
	cmovbe	(%rdi), %r9
.LBE1635:
.LBE1634:
.LBE1633:
.LBE1638:
.LBE1893:
	.loc 1 978 0
	testl	%r9d, %r9d
	je	.L253
	cmpl	$2, %r9d
	je	.L254
.LVL292:
	.p2align 4,,10
	.p2align 3
.L323:
	.loc 1 1041 0
	xorl	%eax, %eax
.LVL293:
.L324:
	.loc 1 1044 0
	addq	$8, %rsp
	.cfi_remember_state
	.cfi_def_cfa_offset 8
	ret
.LVL294:
	.p2align 4,,10
	.p2align 3
.L254:
	.cfi_restore_state
	.loc 1 1018 0
	cmpl	ARRAY_LENGTH_NAME(%rip), %edx
	je	.L341
	.loc 1 1023 0
	cmpl	ARRAY_SET_NAME(%rip), %edx
	je	.L342
.LBB1894:
	.loc 1 1031 0
	cmpl	$1, %r8d
	jne	.L343
.LBB1895:
.LBB1896:
	.loc 1 400 0
	leaq	-8(%rsi), %rax
.LVL295:
.LBE1896:
.LBE1895:
.LBB1898:
.LBB1899:
	.loc 1 2191 0
	movq	8(%rdi), %rdx
.LVL296:
.LBE1899:
.LBE1898:
.LBB1906:
.LBB1897:
	.loc 1 400 0
	movq	%rax, stack_pointer(%rip)
.LVL297:
	.loc 1 401 0
	movq	-8(%rsi), %rcx
.LVL298:
.LBE1897:
.LBE1906:
.LBB1907:
.LBB1908:
	.loc 1 400 0
	leaq	-16(%rsi), %rax
	movq	%rax, stack_pointer(%rip)
.LVL299:
.LBE1908:
.LBE1907:
.LBB1909:
.LBB1904:
.LBB1900:
.LBB1901:
	.loc 1 2151 0
	sarq	$3, %rcx
.LVL300:
.LBE1901:
.LBE1900:
	.loc 1 2191 0
	movslq	%ecx, %rax
.LVL301:
	cmpq	%rdx, %rax
	jge	.L308
.LVL302:
	testl	%ecx, %ecx
	js	.L308
.LVL303:
	.loc 1 2195 0
	movq	16(%rdi,%rax,8), %rax
.LBE1904:
.LBE1909:
.LBB1910:
.LBB1911:
	.loc 1 392 0
	movq	%rax, -16(%rsi)
.LVL304:
.LBE1911:
.LBE1910:
	.loc 1 1035 0
	movl	$1, %eax
.LBB1913:
.LBB1912:
	.loc 1 393 0
	addq	$8, stack_pointer(%rip)
.LBE1912:
.LBE1913:
.LBE1894:
	.loc 1 1044 0
	addq	$8, %rsp
	.cfi_remember_state
	.cfi_def_cfa_offset 8
	ret
.LVL305:
	.p2align 4,,10
	.p2align 3
.L342:
	.cfi_restore_state
.LBB1915:
	.loc 1 1024 0
	cmpl	$2, %r8d
	jne	.L344
.LBB1916:
.LBB1917:
	.loc 1 400 0
	leaq	-8(%rsi), %rax
.LVL306:
.LBE1917:
.LBE1916:
.LBB1920:
.LBB1921:
	.loc 1 2182 0
	movq	8(%rdi), %rdx
.LVL307:
.LBE1921:
.LBE1920:
.LBB1925:
.LBB1918:
	.loc 1 400 0
	movq	%rax, stack_pointer(%rip)
.LVL308:
.LBE1918:
.LBE1925:
.LBB1926:
.LBB1927:
	leaq	-16(%rsi), %rax
.LBE1927:
.LBE1926:
.LBB1929:
.LBB1919:
	.loc 1 401 0
	movq	-8(%rsi), %r8
.LVL309:
.LBE1919:
.LBE1929:
.LBB1930:
.LBB1928:
	.loc 1 400 0
	movq	%rax, stack_pointer(%rip)
	.loc 1 401 0
	movq	-16(%rsi), %rcx
.LVL310:
.LBE1928:
.LBE1930:
.LBB1931:
.LBB1932:
	.loc 1 400 0
	leaq	-24(%rsi), %rax
	movq	%rax, stack_pointer(%rip)
.LVL311:
.LBE1932:
.LBE1931:
.LBB1933:
.LBB1924:
.LBB1922:
.LBB1923:
	.loc 1 2151 0
	sarq	$3, %rcx
.LVL312:
.LBE1923:
.LBE1922:
	.loc 1 2182 0
	movslq	%ecx, %rax
.LVL313:
	cmpq	%rdx, %rax
	jge	.L308
.LVL314:
	testl	%ecx, %ecx
	js	.L308
.LVL315:
	.loc 1 2186 0
	movq	%r8, 16(%rdi,%rax,8)
.LVL316:
.LBE1924:
.LBE1933:
.LBB1934:
.LBB1935:
	.loc 1 392 0
	movq	$2, -24(%rsi)
.LBE1935:
.LBE1934:
	.loc 1 1029 0
	movl	$1, %eax
.LBB1937:
.LBB1936:
	.loc 1 393 0
	addq	$8, stack_pointer(%rip)
.LBE1936:
.LBE1937:
	.loc 1 1029 0
	jmp	.L324
.LVL317:
	.p2align 4,,10
	.p2align 3
.L341:
.LBE1915:
.LBB1938:
.LBB1939:
	.loc 1 400 0
	leaq	-8(%rsi), %rax
.LVL318:
.LBE1939:
.LBE1938:
	.loc 1 1020 0
	testl	%r8d, %r8d
.LBB1941:
.LBB1940:
	.loc 1 400 0
	movq	%rax, stack_pointer(%rip)
.LVL319:
.LBE1940:
.LBE1941:
	.loc 1 1020 0
	jne	.L345
.LVL320:
.LBB1942:
.LBB1943:
.LBB1944:
.LBB1945:
	.loc 1 2174 0
	movslq	8(%rdi), %rax
.LVL321:
	salq	$3, %rax
.LVL322:
	movq	%rax, -8(%rsi)
.LVL323:
.LBE1945:
.LBE1944:
.LBE1943:
.LBE1942:
	.loc 1 1022 0
	movl	$1, %eax
.LVL324:
.LBB1946:
.LBB1947:
	.loc 1 393 0
	addq	$8, stack_pointer(%rip)
.LVL325:
.LBE1947:
.LBE1946:
	.loc 1 1022 0
	jmp	.L324
.LVL326:
.L329:
.LBB1948:
	.loc 1 980 0 discriminator 1
	movl	$__PRETTY_FUNCTION__.4423, %ecx
	movl	$980, %edx
.LVL327:
	movl	$.LC0, %esi
	movl	$.LC10, %edi
	call	__assert_fail
.LVL328:
	.p2align 4,,10
	.p2align 3
.L340:
.LBB1698:
.LBB1671:
.LBB1669:
.LBB1668:
.LBB1663:
.LBB1664:
.LBB1665:
.LBB1666:
.LBB1667:
	.loc 1 2144 0
	movq	%r8, %rcx
	andq	CLEAR_ARRAY_OBJ_MASK(%rip), %rcx
.LBE1667:
.LBE1666:
	.loc 1 2161 0
	movl	$4, %edx
	cmpq	$4, (%rcx)
	cmovbe	(%rcx), %rdx
.LBE1665:
.LBE1664:
.LBE1663:
.LBE1668:
.LBE1669:
	.loc 1 2254 0
	testl	%edx, %edx
	je	.L299
.LVL329:
.L298:
	movl	$__PRETTY_FUNCTION__.5148, %ecx
	movl	$2254, %edx
	movl	$.LC0, %esi
	movl	$.LC12, %edi
	call	__assert_fail
.LVL330:
	.p2align 4,,10
	.p2align 3
.L339:
.LBB1670:
.LBB1660:
.LBB1655:
.LBB1656:
.LBB1657:
.LBB1658:
.LBB1659:
	.loc 1 2144 0
	movq	%rax, %rcx
	andq	CLEAR_ARRAY_OBJ_MASK(%rip), %rcx
.LBE1659:
.LBE1658:
	.loc 1 2161 0
	movl	$4, %edx
.LVL331:
	cmpq	$4, (%rcx)
	cmovbe	(%rcx), %rdx
.LBE1657:
.LBE1656:
.LBE1655:
.LBE1660:
.LBE1670:
	.loc 1 2254 0
	testl	%edx, %edx
	je	.L297
	jmp	.L298
.LVL332:
	.p2align 4,,10
	.p2align 3
.L330:
.LBE1671:
.LBE1698:
.LBB1699:
.LBB1700:
.LBB1701:
.LBB1702:
	.loc 1 2159 0
	cmpq	$1, %rcx
	je	.L346
.LVL333:
.L258:
.LBE1702:
.LBE1701:
.LBB1709:
.LBB1710:
	cmpq	$1, %rdi
	.p2align 4,,3
	je	.L347
.L260:
.LVL334:
.LBE1710:
.LBE1709:
	.loc 1 2203 0
	addq	%r8, %rax
.LVL335:
	movq	%rax, -16(%rsi)
.LVL336:
.LBE1700:
.LBE1699:
	.loc 1 986 0
	movl	$1, %eax
.LBB1720:
.LBB1721:
	.loc 1 393 0
	addq	$8, stack_pointer(%rip)
.LBE1721:
.LBE1720:
	.loc 1 986 0
	jmp	.L324
.LVL337:
	.p2align 4,,10
	.p2align 3
.L331:
.LBB1722:
.LBB1723:
.LBB1724:
.LBB1725:
	.loc 1 2159 0
	cmpq	$1, %rcx
	je	.L348
.LVL338:
.L262:
.LBE1725:
.LBE1724:
.LBB1732:
.LBB1733:
	cmpq	$1, %rdi
	je	.L349
.L264:
.LVL339:
.LBE1733:
.LBE1732:
	.loc 1 2214 0
	subq	%r8, %rax
.LVL340:
	movq	%rax, -16(%rsi)
.LVL341:
.LBE1723:
.LBE1722:
	.loc 1 989 0
	movl	$1, %eax
.LBB1743:
.LBB1744:
	.loc 1 393 0
	addq	$8, stack_pointer(%rip)
.LBE1744:
.LBE1743:
	.loc 1 989 0
	jmp	.L324
.LVL342:
	.p2align 4,,10
	.p2align 3
.L332:
.LBB1745:
.LBB1746:
.LBB1747:
.LBB1748:
	.loc 1 2159 0
	cmpq	$1, %rcx
	je	.L350
.LVL343:
.L266:
.LBE1748:
.LBE1747:
.LBB1755:
.LBB1756:
	cmpq	$1, %rdi
	je	.L351
.L268:
.LVL344:
.LBE1756:
.LBE1755:
.LBB1763:
.LBB1764:
	.loc 1 2151 0
	sarq	$3, %r8
.LVL345:
.LBE1764:
.LBE1763:
	.loc 1 2224 0
	movslq	%r8d, %r8
	imulq	%r8, %rax
.LVL346:
.LBE1746:
.LBE1745:
.LBB1768:
.LBB1769:
	.loc 1 392 0
	movq	%rax, -16(%rsi)
.LVL347:
.LBE1769:
.LBE1768:
	.loc 1 992 0
	movl	$1, %eax
.LBB1771:
.LBB1770:
	.loc 1 393 0
	addq	$8, stack_pointer(%rip)
.LBE1770:
.LBE1771:
	.loc 1 992 0
	jmp	.L324
.LVL348:
	.p2align 4,,10
	.p2align 3
.L333:
.LBB1772:
.LBB1773:
.LBB1774:
.LBB1775:
	.loc 1 2159 0
	cmpq	$1, %rcx
	je	.L352
.LVL349:
.L270:
.LBE1775:
.LBE1774:
.LBB1782:
.LBB1783:
	cmpq	$1, %rdi
	je	.L353
.L272:
.LVL350:
.LBE1783:
.LBE1782:
	.loc 1 2235 0
	cqto
	idivq	%r8
.LVL351:
.LBB1790:
.LBB1791:
	.loc 1 2174 0
	cltq
	salq	$3, %rax
	movq	%rax, -16(%rsi)
.LVL352:
.LBE1791:
.LBE1790:
.LBE1773:
.LBE1772:
	.loc 1 995 0
	movl	$1, %eax
.LBB1795:
.LBB1796:
	.loc 1 393 0
	addq	$8, stack_pointer(%rip)
.LBE1796:
.LBE1795:
	.loc 1 995 0
	jmp	.L324
.LVL353:
	.p2align 4,,10
	.p2align 3
.L334:
.LBB1797:
.LBB1798:
.LBB1799:
.LBB1800:
	.loc 1 2159 0
	cmpq	$1, %rcx
	je	.L354
.LVL354:
.L274:
.LBE1800:
.LBE1799:
.LBB1807:
.LBB1808:
	cmpq	$1, %rdi
	je	.L355
.L276:
.LVL355:
.LBE1808:
.LBE1807:
	.loc 1 2246 0
	cqto
	idivq	%r8
.LVL356:
.LBE1798:
.LBE1797:
	.loc 1 998 0
	movl	$1, %eax
.LBB1818:
.LBB1819:
	.loc 1 392 0
	movq	%rdx, -16(%rsi)
.LVL357:
	.loc 1 393 0
	addq	$8, stack_pointer(%rip)
.LBE1819:
.LBE1818:
	.loc 1 998 0
	jmp	.L324
.LVL358:
	.p2align 4,,10
	.p2align 3
.L335:
.LBB1820:
.LBB1821:
.LBB1822:
.LBB1823:
	.loc 1 2159 0
	cmpq	$1, %rcx
	je	.L356
.LVL359:
.L278:
.LBE1823:
.LBE1822:
.LBB1830:
.LBB1831:
	cmpq	$1, %rdi
	je	.L357
.L280:
.LVL360:
.LBE1831:
.LBE1830:
	.loc 1 2277 0
	cmpq	%r8, %rax
	setle	%al
.LVL361:
	jmp	.L327
.LVL362:
	.p2align 4,,10
	.p2align 3
.L336:
.LBE1821:
.LBE1820:
.LBB1841:
.LBB1692:
.LBB1674:
.LBB1675:
	.loc 1 2159 0
	cmpq	$1, %rcx
	je	.L358
.LVL363:
.L283:
.LBE1675:
.LBE1674:
.LBB1682:
.LBB1683:
	cmpq	$1, %rdi
	je	.L359
.L285:
.LVL364:
.LBE1683:
.LBE1682:
	.loc 1 2284 0
	cmpq	%r8, %rax
	setl	%al
.LVL365:
	jmp	.L327
.LVL366:
.L337:
.LBE1692:
.LBE1841:
.LBB1842:
.LBB1843:
.LBB1844:
.LBB1845:
	.loc 1 2159 0
	cmpq	$1, %rcx
	je	.L360
.LVL367:
.L288:
.LBE1845:
.LBE1844:
.LBB1852:
.LBB1853:
	cmpq	$1, %rdi
	je	.L361
.L290:
.LVL368:
.LBE1853:
.LBE1852:
	.loc 1 2263 0
	cmpq	%r8, %rax
	setge	%al
.LVL369:
	jmp	.L327
.LVL370:
.L338:
.LBE1843:
.LBE1842:
.LBB1863:
.LBB1864:
.LBB1865:
.LBB1866:
	.loc 1 2159 0
	cmpq	$1, %rcx
	je	.L362
.LVL371:
.L293:
.LBE1866:
.LBE1865:
.LBB1873:
.LBB1874:
	cmpq	$1, %rdi
	je	.L363
.L295:
.LVL372:
.LBE1874:
.LBE1873:
	.loc 1 2270 0
	cmpq	%r8, %rax
	setg	%al
.LVL373:
	jmp	.L327
.LVL374:
.L347:
.LBE1864:
.LBE1863:
.LBB1884:
.LBB1719:
.LBB1717:
.LBB1716:
.LBB1711:
.LBB1712:
.LBB1713:
.LBB1714:
.LBB1715:
	.loc 1 2144 0
	movq	%r8, %rcx
	andq	CLEAR_ARRAY_OBJ_MASK(%rip), %rcx
.LBE1715:
.LBE1714:
	.loc 1 2161 0
	movl	$4, %edx
	cmpq	$4, (%rcx)
	cmovbe	(%rcx), %rdx
.LBE1713:
.LBE1712:
.LBE1711:
.LBE1716:
.LBE1717:
	.loc 1 2200 0
	testl	%edx, %edx
	je	.L260
.LVL375:
.L259:
	movl	$__PRETTY_FUNCTION__.5109, %ecx
	movl	$2200, %edx
	movl	$.LC0, %esi
	movl	$.LC12, %edi
	call	__assert_fail
.LVL376:
	.p2align 4,,10
	.p2align 3
.L346:
.LBB1718:
.LBB1708:
.LBB1703:
.LBB1704:
.LBB1705:
.LBB1706:
.LBB1707:
	.loc 1 2144 0
	movq	%rax, %rcx
	andq	CLEAR_ARRAY_OBJ_MASK(%rip), %rcx
.LBE1707:
.LBE1706:
	.loc 1 2161 0
	movl	$4, %edx
.LVL377:
	cmpq	$4, (%rcx)
	cmovbe	(%rcx), %rdx
.LBE1705:
.LBE1704:
.LBE1703:
.LBE1708:
.LBE1718:
	.loc 1 2200 0
	testl	%edx, %edx
	je	.L258
	jmp	.L259
.LVL378:
	.p2align 4,,10
	.p2align 3
.L349:
.LBE1719:
.LBE1884:
.LBB1885:
.LBB1742:
.LBB1740:
.LBB1739:
.LBB1734:
.LBB1735:
.LBB1736:
.LBB1737:
.LBB1738:
	.loc 1 2144 0
	movq	%r8, %rcx
	andq	CLEAR_ARRAY_OBJ_MASK(%rip), %rcx
.LBE1738:
.LBE1737:
	.loc 1 2161 0
	movl	$4, %edx
	cmpq	$4, (%rcx)
	cmovbe	(%rcx), %rdx
.LBE1736:
.LBE1735:
.LBE1734:
.LBE1739:
.LBE1740:
	.loc 1 2211 0
	testl	%edx, %edx
	je	.L264
.LVL379:
.L263:
	movl	$__PRETTY_FUNCTION__.5117, %ecx
	movl	$2211, %edx
	movl	$.LC0, %esi
	movl	$.LC12, %edi
	call	__assert_fail
.LVL380:
	.p2align 4,,10
	.p2align 3
.L348:
.LBB1741:
.LBB1731:
.LBB1726:
.LBB1727:
.LBB1728:
.LBB1729:
.LBB1730:
	.loc 1 2144 0
	movq	%rax, %rcx
	andq	CLEAR_ARRAY_OBJ_MASK(%rip), %rcx
.LBE1730:
.LBE1729:
	.loc 1 2161 0
	movl	$4, %edx
.LVL381:
	cmpq	$4, (%rcx)
	cmovbe	(%rcx), %rdx
.LBE1728:
.LBE1727:
.LBE1726:
.LBE1731:
.LBE1741:
	.loc 1 2211 0
	testl	%edx, %edx
	je	.L262
	jmp	.L263
.LVL382:
	.p2align 4,,10
	.p2align 3
.L351:
.LBE1742:
.LBE1885:
.LBB1886:
.LBB1767:
.LBB1765:
.LBB1762:
.LBB1757:
.LBB1758:
.LBB1759:
.LBB1760:
.LBB1761:
	.loc 1 2144 0
	movq	%r8, %rcx
	andq	CLEAR_ARRAY_OBJ_MASK(%rip), %rcx
.LBE1761:
.LBE1760:
	.loc 1 2161 0
	movl	$4, %edx
	cmpq	$4, (%rcx)
	cmovbe	(%rcx), %rdx
.LBE1759:
.LBE1758:
.LBE1757:
.LBE1762:
.LBE1765:
	.loc 1 2222 0
	testl	%edx, %edx
	je	.L268
.LVL383:
.L267:
	movl	$__PRETTY_FUNCTION__.5125, %ecx
	movl	$2222, %edx
	movl	$.LC0, %esi
	movl	$.LC12, %edi
	call	__assert_fail
.LVL384:
	.p2align 4,,10
	.p2align 3
.L350:
.LBB1766:
.LBB1754:
.LBB1749:
.LBB1750:
.LBB1751:
.LBB1752:
.LBB1753:
	.loc 1 2144 0
	movq	%rax, %rcx
	andq	CLEAR_ARRAY_OBJ_MASK(%rip), %rcx
.LBE1753:
.LBE1752:
	.loc 1 2161 0
	movl	$4, %edx
.LVL385:
	cmpq	$4, (%rcx)
	cmovbe	(%rcx), %rdx
.LBE1751:
.LBE1750:
.LBE1749:
.LBE1754:
.LBE1766:
	.loc 1 2222 0
	testl	%edx, %edx
	je	.L266
	jmp	.L267
.LVL386:
	.p2align 4,,10
	.p2align 3
.L353:
.LBE1767:
.LBE1886:
.LBB1887:
.LBB1794:
.LBB1792:
.LBB1789:
.LBB1784:
.LBB1785:
.LBB1786:
.LBB1787:
.LBB1788:
	.loc 1 2144 0
	movq	%r8, %rcx
	andq	CLEAR_ARRAY_OBJ_MASK(%rip), %rcx
.LBE1788:
.LBE1787:
	.loc 1 2161 0
	movl	$4, %edx
	cmpq	$4, (%rcx)
	cmovbe	(%rcx), %rdx
.LBE1786:
.LBE1785:
.LBE1784:
.LBE1789:
.LBE1792:
	.loc 1 2232 0
	testl	%edx, %edx
	je	.L272
.LVL387:
.L271:
	movl	$__PRETTY_FUNCTION__.5132, %ecx
	movl	$2232, %edx
	movl	$.LC0, %esi
	movl	$.LC12, %edi
	call	__assert_fail
.LVL388:
	.p2align 4,,10
	.p2align 3
.L352:
.LBB1793:
.LBB1781:
.LBB1776:
.LBB1777:
.LBB1778:
.LBB1779:
.LBB1780:
	.loc 1 2144 0
	movq	%rax, %rcx
	andq	CLEAR_ARRAY_OBJ_MASK(%rip), %rcx
.LBE1780:
.LBE1779:
	.loc 1 2161 0
	movl	$4, %edx
.LVL389:
	cmpq	$4, (%rcx)
	cmovbe	(%rcx), %rdx
.LBE1778:
.LBE1777:
.LBE1776:
.LBE1781:
.LBE1793:
	.loc 1 2232 0
	testl	%edx, %edx
	je	.L270
	jmp	.L271
.LVL390:
	.p2align 4,,10
	.p2align 3
.L355:
.LBE1794:
.LBE1887:
.LBB1888:
.LBB1817:
.LBB1815:
.LBB1814:
.LBB1809:
.LBB1810:
.LBB1811:
.LBB1812:
.LBB1813:
	.loc 1 2144 0
	movq	%r8, %rcx
	andq	CLEAR_ARRAY_OBJ_MASK(%rip), %rcx
.LBE1813:
.LBE1812:
	.loc 1 2161 0
	movl	$4, %edx
	cmpq	$4, (%rcx)
	cmovbe	(%rcx), %rdx
.LBE1811:
.LBE1810:
.LBE1809:
.LBE1814:
.LBE1815:
	.loc 1 2243 0
	testl	%edx, %edx
	je	.L276
.LVL391:
.L275:
	movl	$__PRETTY_FUNCTION__.5140, %ecx
	movl	$2243, %edx
	movl	$.LC0, %esi
	movl	$.LC12, %edi
	call	__assert_fail
.LVL392:
	.p2align 4,,10
	.p2align 3
.L354:
.LBB1816:
.LBB1806:
.LBB1801:
.LBB1802:
.LBB1803:
.LBB1804:
.LBB1805:
	.loc 1 2144 0
	movq	%rax, %rcx
	andq	CLEAR_ARRAY_OBJ_MASK(%rip), %rcx
.LBE1805:
.LBE1804:
	.loc 1 2161 0
	movl	$4, %edx
.LVL393:
	cmpq	$4, (%rcx)
	cmovbe	(%rcx), %rdx
.LBE1803:
.LBE1802:
.LBE1801:
.LBE1806:
.LBE1816:
	.loc 1 2243 0
	testl	%edx, %edx
	je	.L274
	jmp	.L275
.LVL394:
	.p2align 4,,10
	.p2align 3
.L357:
.LBE1817:
.LBE1888:
.LBB1889:
.LBB1840:
.LBB1838:
.LBB1837:
.LBB1832:
.LBB1833:
.LBB1834:
.LBB1835:
.LBB1836:
	.loc 1 2144 0
	movq	%r8, %rcx
	andq	CLEAR_ARRAY_OBJ_MASK(%rip), %rcx
.LBE1836:
.LBE1835:
	.loc 1 2161 0
	movl	$4, %edx
	cmpq	$4, (%rcx)
	cmovbe	(%rcx), %rdx
.LBE1834:
.LBE1833:
.LBE1832:
.LBE1837:
.LBE1838:
	.loc 1 2273 0
	testl	%edx, %edx
	je	.L280
.LVL395:
.L279:
	movl	$__PRETTY_FUNCTION__.5167, %ecx
	movl	$2273, %edx
	movl	$.LC0, %esi
	movl	$.LC12, %edi
	call	__assert_fail
.LVL396:
	.p2align 4,,10
	.p2align 3
.L356:
.LBB1839:
.LBB1829:
.LBB1824:
.LBB1825:
.LBB1826:
.LBB1827:
.LBB1828:
	.loc 1 2144 0
	movq	%rax, %rcx
	andq	CLEAR_ARRAY_OBJ_MASK(%rip), %rcx
.LBE1828:
.LBE1827:
	.loc 1 2161 0
	movl	$4, %edx
.LVL397:
	cmpq	$4, (%rcx)
	cmovbe	(%rcx), %rdx
.LBE1826:
.LBE1825:
.LBE1824:
.LBE1829:
.LBE1839:
	.loc 1 2273 0
	testl	%edx, %edx
	je	.L278
	jmp	.L279
.LVL398:
	.p2align 4,,10
	.p2align 3
.L359:
.LBE1840:
.LBE1889:
.LBB1890:
.LBB1693:
.LBB1690:
.LBB1689:
.LBB1684:
.LBB1685:
.LBB1686:
.LBB1687:
.LBB1688:
	.loc 1 2144 0
	movq	%r8, %rcx
	andq	CLEAR_ARRAY_OBJ_MASK(%rip), %rcx
.LBE1688:
.LBE1687:
	.loc 1 2161 0
	movl	$4, %edx
	cmpq	$4, (%rcx)
	cmovbe	(%rcx), %rdx
.LBE1686:
.LBE1685:
.LBE1684:
.LBE1689:
.LBE1690:
	.loc 1 2280 0
	testl	%edx, %edx
	je	.L285
.LVL399:
.L284:
	movl	$__PRETTY_FUNCTION__.5174, %ecx
	movl	$2280, %edx
	movl	$.LC0, %esi
	movl	$.LC12, %edi
	call	__assert_fail
.LVL400:
	.p2align 4,,10
	.p2align 3
.L358:
.LBB1691:
.LBB1681:
.LBB1676:
.LBB1677:
.LBB1678:
.LBB1679:
.LBB1680:
	.loc 1 2144 0
	movq	%rax, %rcx
	andq	CLEAR_ARRAY_OBJ_MASK(%rip), %rcx
.LBE1680:
.LBE1679:
	.loc 1 2161 0
	movl	$4, %edx
.LVL401:
	cmpq	$4, (%rcx)
	cmovbe	(%rcx), %rdx
.LBE1678:
.LBE1677:
.LBE1676:
.LBE1681:
.LBE1691:
	.loc 1 2280 0
	testl	%edx, %edx
	je	.L283
	jmp	.L284
.LVL402:
	.p2align 4,,10
	.p2align 3
.L361:
.LBE1693:
.LBE1890:
.LBB1891:
.LBB1862:
.LBB1860:
.LBB1859:
.LBB1854:
.LBB1855:
.LBB1856:
.LBB1857:
.LBB1858:
	.loc 1 2144 0
	movq	%r8, %rcx
	andq	CLEAR_ARRAY_OBJ_MASK(%rip), %rcx
.LBE1858:
.LBE1857:
	.loc 1 2161 0
	movl	$4, %edx
	cmpq	$4, (%rcx)
	cmovbe	(%rcx), %rdx
.LBE1856:
.LBE1855:
.LBE1854:
.LBE1859:
.LBE1860:
	.loc 1 2259 0
	testl	%edx, %edx
	je	.L290
.LVL403:
.L289:
	movl	$__PRETTY_FUNCTION__.5153, %ecx
	movl	$2259, %edx
	movl	$.LC0, %esi
	movl	$.LC12, %edi
	call	__assert_fail
.LVL404:
	.p2align 4,,10
	.p2align 3
.L360:
.LBB1861:
.LBB1851:
.LBB1846:
.LBB1847:
.LBB1848:
.LBB1849:
.LBB1850:
	.loc 1 2144 0
	movq	%rax, %rcx
	andq	CLEAR_ARRAY_OBJ_MASK(%rip), %rcx
.LBE1850:
.LBE1849:
	.loc 1 2161 0
	movl	$4, %edx
.LVL405:
	cmpq	$4, (%rcx)
	cmovbe	(%rcx), %rdx
.LBE1848:
.LBE1847:
.LBE1846:
.LBE1851:
.LBE1861:
	.loc 1 2259 0
	testl	%edx, %edx
	je	.L288
	jmp	.L289
.LVL406:
	.p2align 4,,10
	.p2align 3
.L363:
.LBE1862:
.LBE1891:
.LBB1892:
.LBB1883:
.LBB1881:
.LBB1880:
.LBB1875:
.LBB1876:
.LBB1877:
.LBB1878:
.LBB1879:
	.loc 1 2144 0
	movq	%r8, %rcx
	andq	CLEAR_ARRAY_OBJ_MASK(%rip), %rcx
.LBE1879:
.LBE1878:
	.loc 1 2161 0
	movl	$4, %edx
	cmpq	$4, (%rcx)
	cmovbe	(%rcx), %rdx
.LBE1877:
.LBE1876:
.LBE1875:
.LBE1880:
.LBE1881:
	.loc 1 2266 0
	testl	%edx, %edx
	je	.L295
.LVL407:
.L294:
	movl	$__PRETTY_FUNCTION__.5160, %ecx
	movl	$2266, %edx
	movl	$.LC0, %esi
	movl	$.LC12, %edi
	call	__assert_fail
.LVL408:
	.p2align 4,,10
	.p2align 3
.L362:
.LBB1882:
.LBB1872:
.LBB1867:
.LBB1868:
.LBB1869:
.LBB1870:
.LBB1871:
	.loc 1 2144 0
	movq	%rax, %rcx
	andq	CLEAR_ARRAY_OBJ_MASK(%rip), %rcx
.LBE1871:
.LBE1870:
	.loc 1 2161 0
	movl	$4, %edx
.LVL409:
	cmpq	$4, (%rcx)
	cmovbe	(%rcx), %rdx
.LBE1869:
.LBE1868:
.LBE1867:
.LBE1872:
.LBE1882:
	.loc 1 2266 0
	testl	%edx, %edx
	je	.L293
	jmp	.L294
.LVL410:
.L308:
.LBE1883:
.LBE1892:
.LBE1948:
.LBB1949:
.LBB1914:
.LBB1905:
.LBB1902:
.LBB1903:
	.loc 2 105 0
	movl	$1, %edi
.LVL411:
	movl	$.LC15, %esi
	xorl	%eax, %eax
.LVL412:
	call	__printf_chk
.LVL413:
.LBE1903:
.LBE1902:
	.loc 1 2193 0
	orl	$-1, %edi
	call	exit
.LVL414:
.L256:
.LBE1905:
.LBE1914:
.LBE1949:
.LBB1950:
	.loc 1 982 0 discriminator 1
	movl	$__PRETTY_FUNCTION__.4423, %ecx
	movl	$982, %edx
.LVL415:
	movl	$.LC0, %esi
	movl	$.LC11, %edi
	call	__assert_fail
.LVL416:
.L343:
.LBE1950:
.LBB1951:
	.loc 1 1031 0 discriminator 1
	movl	$__PRETTY_FUNCTION__.4423, %ecx
	movl	$1031, %edx
.LVL417:
	movl	$.LC0, %esi
	movl	$.LC10, %edi
.LVL418:
	call	__assert_fail
.LVL419:
.L345:
.LBE1951:
	.loc 1 1020 0 discriminator 1
	movl	$__PRETTY_FUNCTION__.4423, %ecx
	movl	$1020, %edx
.LVL420:
	movl	$.LC0, %esi
	movl	$.LC13, %edi
.LVL421:
	call	__assert_fail
.LVL422:
.L344:
.LBB1952:
	.loc 1 1024 0 discriminator 1
	movl	$__PRETTY_FUNCTION__.4423, %ecx
	movl	$1024, %edx
.LVL423:
	movl	$.LC0, %esi
	movl	$.LC14, %edi
.LVL424:
	call	__assert_fail
.LVL425:
.LBE1952:
	.cfi_endproc
.LFE109:
	.size	exec_built_in_method, .-exec_built_in_method
	.p2align 4,,15
	.globl	get_global_var_by_idx
	.type	get_global_var_by_idx, @function
get_global_var_by_idx:
.LFB117:
	.loc 1 1231 0
	.cfi_startproc
.LVL426:
	pushq	%r13
	.cfi_def_cfa_offset 16
	.cfi_offset 13, -16
	movl	%edi, %r13d
	pushq	%r12
	.cfi_def_cfa_offset 24
	.cfi_offset 12, -24
	.loc 1 1232 0
	xorl	%r12d, %r12d
	.loc 1 1231 0
	pushq	%rbp
	.cfi_def_cfa_offset 32
	.cfi_offset 6, -32
	movq	%rsi, %rbp
	pushq	%rbx
	.cfi_def_cfa_offset 40
	.cfi_offset 3, -40
.LBB1955:
	.loc 1 1233 0
	xorl	%ebx, %ebx
.LBE1955:
	.loc 1 1231 0
	subq	$8, %rsp
	.cfi_def_cfa_offset 48
.LBB1957:
	.loc 1 1233 0
	movq	8(%rsi), %rdi
.LVL427:
	jmp	.L367
.LVL428:
	.p2align 4,,10
	.p2align 3
.L365:
	movq	8(%rbp), %rdi
	addl	$1, %ebx
.LVL429:
.L367:
.LBB1956:
	.loc 1 1234 0
	movl	%ebx, %esi
	call	vector_get
.LVL430:
	.loc 1 1235 0
	movq	0(%rbp), %rdi
	movl	%eax, %esi
	call	vector_get
.LVL431:
	.loc 1 1236 0
	cmpl	$4, (%rax)
	jne	.L365
.LVL432:
	.loc 1 1240 0
	cmpl	%r13d, 4(%rax)
	je	.L368
	.loc 1 1243 0
	addl	$1, %r12d
.LVL433:
	jmp	.L365
	.p2align 4,,10
	.p2align 3
.L368:
.LBE1956:
.LBE1957:
	.loc 1 1247 0
	addq	$8, %rsp
	.cfi_def_cfa_offset 40
	movl	%r12d, %eax
.LVL434:
	popq	%rbx
	.cfi_def_cfa_offset 32
.LVL435:
	popq	%rbp
	.cfi_def_cfa_offset 24
.LVL436:
	popq	%r12
	.cfi_def_cfa_offset 16
.LVL437:
	popq	%r13
	.cfi_def_cfa_offset 8
.LVL438:
	ret
	.cfi_endproc
.LFE117:
	.size	get_global_var_by_idx, .-get_global_var_by_idx
	.p2align 4,,15
	.globl	get_class_by_idx
	.type	get_class_by_idx, @function
get_class_by_idx:
.LFB118:
	.loc 1 1254 0
	.cfi_startproc
.LVL439:
	.loc 1 1255 0
	movslq	%edi, %rax
	addq	$class_objs, %rax
	.loc 1 1256 0
	ret
	.cfi_endproc
.LFE118:
	.size	get_class_by_idx, .-get_class_by_idx
	.section	.rodata.str1.1
.LC16:
	.string	"length"
	.text
	.p2align 4,,15
	.globl	init_default_str_values
	.type	init_default_str_values, @function
init_default_str_values:
.LFB121:
	.loc 1 1319 0
	.cfi_startproc
.LVL440:
.LBB1958:
.LBB1959:
	.loc 1 1320 0
	movzbl	(%rdi), %edx
.LVL441:
.LBE1959:
.LBE1958:
	.loc 1 1319 0
	movq	%rdi, %rax
	movl	%esi, %r8d
.LBB1963:
.LBB1960:
	.loc 1 1320 0
	cmpl	$97, %edx
	je	.L386
.LVL442:
.LBE1960:
.LBE1963:
.LBB1964:
.LBB1965:
	.loc 1 1322 0 discriminator 1
	movl	%edx, %r9d
	subl	$115, %r9d
.LVL443:
	jne	.L375
.LVL444:
	cmpb	$117, 1(%rdi)
	jne	.L375
.LVL445:
	cmpb	$98, 2(%rdi)
	jne	.L375
.LVL446:
.LBE1965:
.LBE1964:
	cmpb	$0, 3(%rdi)
	jne	.L375
	.loc 1 1323 0
	movl	%esi, INT_SUB_NAME(%rip)
.LVL447:
	ret
.LVL448:
	.p2align 4,,10
	.p2align 3
.L386:
.LBB1967:
.LBB1961:
	.loc 1 1320 0 discriminator 1
	cmpb	$100, 1(%rdi)
	je	.L387
.LVL449:
.L373:
.LBE1961:
.LBE1967:
.LBB1968:
.LBB1966:
	.loc 1 1322 0
	movl	$-18, %r9d
.LVL450:
.L375:
.LBE1966:
.LBE1968:
.LBB1969:
.LBB1970:
	.loc 1 1324 0 discriminator 1
	movl	%edx, %ecx
	subl	$109, %ecx
.LVL451:
	jne	.L376
.LVL452:
	cmpb	$117, 1(%rax)
	jne	.L376
.LVL453:
	cmpb	$108, 2(%rax)
	jne	.L376
.LVL454:
.LBE1970:
.LBE1969:
	cmpb	$0, 3(%rax)
	jne	.L376
	.loc 1 1325 0
	movl	%r8d, INT_MUL_NAME(%rip)
.LVL455:
	ret
.LVL456:
	.p2align 4,,10
	.p2align 3
.L387:
.LBB1971:
.LBB1962:
	.loc 1 1320 0 discriminator 1
	cmpb	$100, 2(%rdi)
	jne	.L373
.LVL457:
.LBE1962:
.LBE1971:
	cmpb	$0, 3(%rdi)
	jne	.L373
	.loc 1 1321 0
	movl	%esi, INT_ADD_NAME(%rip)
.LVL458:
	ret
.LVL459:
	.p2align 4,,10
	.p2align 3
.L376:
.LBB1972:
.LBB1973:
	.loc 1 1326 0 discriminator 1
	cmpl	$100, %edx
	jne	.L377
.LVL460:
	cmpb	$105, 1(%rax)
	jne	.L377
.LVL461:
	cmpb	$118, 2(%rax)
	jne	.L377
.LVL462:
.LBE1973:
.LBE1972:
	cmpb	$0, 3(%rax)
	jne	.L377
	.loc 1 1327 0
	movl	%r8d, INT_DIV_NAME(%rip)
.LVL463:
	ret
	.p2align 4,,10
	.p2align 3
.L377:
.LVL464:
.LBB1974:
.LBB1975:
	.loc 1 1328 0 discriminator 1
	testl	%ecx, %ecx
	jne	.L378
.LVL465:
	cmpb	$111, 1(%rax)
	jne	.L378
.LVL466:
	cmpb	$100, 2(%rax)
	jne	.L378
.LVL467:
.LBE1975:
.LBE1974:
	cmpb	$0, 3(%rax)
	jne	.L378
	.loc 1 1329 0
	movl	%r8d, INT_MOD_NAME(%rip)
.LVL468:
	ret
	.p2align 4,,10
	.p2align 3
.L378:
.LVL469:
.LBB1976:
.LBB1977:
	.loc 1 1330 0 discriminator 1
	movl	%edx, %r10d
	subl	$103, %r10d
.LVL470:
	je	.L388
.LVL471:
.L379:
.LBE1977:
.LBE1976:
.LBB1979:
.LBB1980:
	.loc 1 1334 0 discriminator 1
	cmpl	$108, %edx
	je	.L389
.LVL472:
.LBE1980:
.LBE1979:
.LBB1982:
.LBB1983:
	.loc 1 1338 0 discriminator 1
	cmpl	$101, %edx
	jne	.L383
.LVL473:
	cmpb	$113, 1(%rax)
	jne	.L383
.LVL474:
.LBE1983:
.LBE1982:
	cmpb	$0, 2(%rax)
	jne	.L383
	.loc 1 1339 0
	movl	%r8d, INT_EQ_NAME(%rip)
.LVL475:
	ret
.LVL476:
	.p2align 4,,10
	.p2align 3
.L388:
.LBB1984:
.LBB1978:
	.loc 1 1330 0 discriminator 1
	movzbl	1(%rax), %ecx
.LVL477:
	cmpb	$116, %cl
	je	.L390
.LVL478:
.LBE1978:
.LBE1984:
.LBB1985:
.LBB1986:
	.loc 1 1332 0 discriminator 1
	cmpb	$101, %cl
	jne	.L379
.LVL479:
.LBE1986:
.LBE1985:
	cmpb	$0, 2(%rax)
	jne	.L379
	.loc 1 1333 0
	movl	%r8d, INT_GE_NAME(%rip)
.LVL480:
	ret
.LVL481:
	.p2align 4,,10
	.p2align 3
.L390:
	.loc 1 1330 0 discriminator 1
	cmpb	$0, 2(%rax)
	jne	.L379
	.loc 1 1331 0
	movl	%r8d, INT_GT_NAME(%rip)
.LVL482:
	ret
.LVL483:
	.p2align 4,,10
	.p2align 3
.L389:
.LBB1987:
.LBB1981:
	.loc 1 1334 0 discriminator 1
	movzbl	1(%rax), %edx
.LVL484:
	cmpb	$116, %dl
	je	.L391
.LVL485:
.LBE1981:
.LBE1987:
.LBB1988:
.LBB1989:
	.loc 1 1336 0 discriminator 1
	cmpb	$101, %dl
	jne	.L383
.LVL486:
.LBE1989:
.LBE1988:
	cmpb	$0, 2(%rax)
	jne	.L383
	.loc 1 1337 0
	movl	%r8d, INT_LE_NAME(%rip)
.LVL487:
	ret
.LVL488:
.L391:
	.loc 1 1334 0 discriminator 1
	cmpb	$0, 2(%rax)
	je	.L392
.LVL489:
.L383:
.LBB1990:
	.loc 1 1340 0
	movl	$.LC16, %edi
	movl	$7, %ecx
	movq	%rax, %rsi
.LVL490:
.LBE1990:
	repz; cmpsb
.LVL491:
	je	.L393
.LVL492:
.LBB1991:
.LBB1992:
	.loc 1 1342 0 discriminator 1
	testl	%r9d, %r9d
	jne	.L385
.LVL493:
	cmpb	$101, 1(%rax)
	jne	.L385
.LVL494:
	cmpb	$116, 2(%rax)
	jne	.L385
.LVL495:
.LBE1992:
.LBE1991:
	cmpb	$0, 3(%rax)
	jne	.L385
	.loc 1 1343 0
	movl	%r8d, ARRAY_SET_NAME(%rip)
.LVL496:
	ret
.LVL497:
.L392:
	.loc 1 1335 0
	movl	%r8d, INT_LT_NAME(%rip)
.LVL498:
	ret
.LVL499:
.L393:
	.loc 1 1341 0
	movl	%r8d, ARRAY_LENGTH_NAME(%rip)
	ret
.LVL500:
.L385:
.LBB1993:
.LBB1994:
	.loc 1 1344 0 discriminator 1
	testl	%r10d, %r10d
	jne	.L371
.LVL501:
	cmpb	$101, 1(%rax)
	jne	.L371
.LVL502:
	cmpb	$116, 2(%rax)
	jne	.L371
.LVL503:
.LBE1994:
.LBE1993:
	cmpb	$0, 3(%rax)
	jne	.L371
	.loc 1 1345 0
	movl	%r8d, ARRAY_GET_NAME(%rip)
.LVL504:
	ret
	.p2align 4,,10
	.p2align 3
.L371:
	rep; ret
	.cfi_endproc
.LFE121:
	.size	init_default_str_values, .-init_default_str_values
	.section	.rodata.str1.1
.LC17:
	.string	"!(position >= 1024)"
	.text
	.p2align 4,,15
	.globl	make_class
	.type	make_class, @function
make_class:
.LFB119:
	.loc 1 1258 0
	.cfi_startproc
.LVL505:
	pushq	%r15
	.cfi_def_cfa_offset 16
	.cfi_offset 15, -16
	pushq	%r14
	.cfi_def_cfa_offset 24
	.cfi_offset 14, -24
	pushq	%r13
	.cfi_def_cfa_offset 32
	.cfi_offset 13, -32
	pushq	%r12
	.cfi_def_cfa_offset 40
	.cfi_offset 12, -40
	movq	%rdi, %r12
	pushq	%rbp
	.cfi_def_cfa_offset 48
	.cfi_offset 6, -48
	pushq	%rbx
	.cfi_def_cfa_offset 56
	.cfi_offset 3, -56
	subq	$40, %rsp
	.cfi_def_cfa_offset 96
.LBB2004:
	.loc 1 1262 0
	movq	8(%rdi), %rdi
.LVL506:
.LBE2004:
	.loc 1 1258 0
	movq	%rdx, 24(%rsp)
.LBB2008:
	.loc 1 1262 0
	movl	(%rdi), %r9d
	testl	%r9d, %r9d
	jle	.L395
	movq	%rsi, %r13
	xorl	%r14d, %r14d
.LBE2008:
	.loc 1 1261 0
	xorl	%ebp, %ebp
	.loc 1 1260 0
	xorl	%ebx, %ebx
	jmp	.L399
.LVL507:
	.p2align 4,,10
	.p2align 3
.L396:
.LBB2009:
	.loc 1 1262 0
	movq	8(%r12), %rdi
	addl	$1, %r14d
.LVL508:
.LBB2005:
	.loc 1 1267 0
	addl	$1, %ebx
.LVL509:
.LBE2005:
	.loc 1 1262 0
	movl	(%rdi), %eax
.LVL510:
	cmpl	%r14d, %eax
	jle	.L416
.LVL511:
.L399:
.LBB2006:
	.loc 1 1263 0
	movl	%r14d, %esi
	call	vector_get
.LVL512:
	movq	0(%r13), %rdi
	movl	%eax, %esi
	call	vector_get
.LVL513:
	.loc 1 1264 0
	cmpl	$4, (%rax)
	jne	.L396
.LBE2006:
	.loc 1 1262 0
	movq	8(%r12), %rdi
	addl	$1, %r14d
.LVL514:
.LBB2007:
	.loc 1 1265 0
	addl	$1, %ebp
.LVL515:
.LBE2007:
	.loc 1 1262 0
	movl	(%rdi), %eax
.LVL516:
	cmpl	%r14d, %eax
	jg	.L399
.L416:
.LBE2009:
	.loc 1 1273 0
	movl	position.4536(%rip), %ecx
	.loc 1 1275 0
	movslq	%ecx, %rdx
	.loc 1 1273 0
	movl	%ecx, 20(%rsp)
.LVL517:
	.loc 1 1276 0
	movl	%ebx, class_objs(%rdx)
	addl	%ebp, %ebx
.LVL518:
	.loc 1 1275 0
	leaq	class_objs(%rdx), %rsi
.LVL519:
	.loc 1 1277 0
	movl	%ebp, class_objs+4(%rdx)
	.loc 1 1278 0
	leal	8(%rcx,%rbx,8), %edx
	.loc 1 1275 0
	movq	%rsi, 8(%rsp)
.LVL520:
	.loc 1 1279 0
	cmpl	$1023, %edx
	.loc 1 1278 0
	movl	%edx, position.4536(%rip)
	.loc 1 1279 0
	jg	.L400
.LVL521:
.LBB2010:
	.loc 1 1281 0 discriminator 1
	xorl	%ebx, %ebx
	testl	%eax, %eax
	jg	.L413
	jmp	.L408
.LVL522:
	.p2align 4,,10
	.p2align 3
.L402:
.LBB2011:
.LBB2012:
	.loc 1 1291 0
	movq	8(%r12), %rdi
	movl	%ebx, %esi
	call	vector_get
.LVL523:
.LBE2012:
.LBE2011:
	.loc 1 1281 0
	movq	8(%r12), %rdi
	movq	8(%rsp), %rcx
	movslq	%ebx, %rdx
	addl	$1, %ebx
.LVL524:
	cmpl	%ebx, (%rdi)
	leaq	(%rcx,%rdx,8), %rdx
.LBB2024:
.LBB2013:
	.loc 1 1291 0
	movl	%eax, 8(%rdx)
	.loc 1 1292 0
	movl	$-1, 12(%rdx)
.LBE2013:
.LBE2024:
	.loc 1 1281 0
	jle	.L408
.LVL525:
.L413:
.LBB2025:
	.loc 1 1282 0
	movl	%ebx, %esi
	call	vector_get
.LVL526:
	movq	0(%r13), %rdi
	movl	%eax, %esi
	call	vector_get
.LVL527:
	.loc 1 1283 0
	cmpl	$4, (%rax)
	jne	.L402
.LVL528:
.LBB2014:
	.loc 1 1286 0
	movq	0(%r13), %rdi
	movl	4(%rax), %esi
	call	vector_get
.LVL529:
.LBB2015:
.LBB2016:
	.loc 1 1355 0
	movq	strs(%rip), %rdi
.LBE2016:
.LBE2015:
	.loc 1 1286 0
	movq	%rax, %r14
.LVL530:
.LBB2020:
.LBB2018:
	.loc 1 1355 0
	testq	%rdi, %rdi
	je	.L417
.LVL531:
.L403:
.LBB2017:
	.loc 1 1358 0
	movl	(%rdi), %r8d
	testl	%r8d, %r8d
	jle	.L404
	xorl	%r15d, %r15d
	jmp	.L406
.LVL532:
	.p2align 4,,10
	.p2align 3
.L418:
	movq	strs(%rip), %rdi
	addl	$1, %r15d
.LVL533:
	cmpl	(%rdi), %r15d
	jge	.L404
.LVL534:
.L406:
	.loc 1 1359 0
	movq	8(%r14), %rbp
	movl	%r15d, %esi
	call	vector_get
.LVL535:
	cmpq	%rax, %rbp
	jne	.L418
	movl	%r15d, %edx
.LVL536:
.L405:
.LBE2017:
.LBE2018:
.LBE2020:
.LBE2014:
.LBE2025:
	.loc 1 1281 0
	movq	8(%r12), %rdi
	movq	8(%rsp), %rcx
	movslq	%ebx, %rax
	addl	$1, %ebx
.LVL537:
	cmpl	%ebx, (%rdi)
	leaq	(%rcx,%rax,8), %rax
.LBB2026:
.LBB2022:
	.loc 1 1286 0
	movl	%edx, 8(%rax)
	.loc 1 1288 0
	movl	$-3, 12(%rax)
.LBE2022:
.LBE2026:
	.loc 1 1281 0
	jg	.L413
.LVL538:
	.p2align 4,,10
	.p2align 3
.L408:
.LBE2010:
	.loc 1 1298 0
	movq	8(%rsp), %rsi
	movq	24(%rsp), %rdi
	call	vector_add
.LVL539:
	.loc 1 1300 0
	movl	20(%rsp), %eax
	addq	$40, %rsp
	.cfi_remember_state
	.cfi_def_cfa_offset 56
	popq	%rbx
	.cfi_def_cfa_offset 48
	popq	%rbp
	.cfi_def_cfa_offset 40
	popq	%r12
	.cfi_def_cfa_offset 32
.LVL540:
	popq	%r13
	.cfi_def_cfa_offset 24
	popq	%r14
	.cfi_def_cfa_offset 16
	popq	%r15
	.cfi_def_cfa_offset 8
	ret
.LVL541:
	.p2align 4,,10
	.p2align 3
.L404:
	.cfi_restore_state
.LBB2028:
.LBB2027:
.LBB2023:
.LBB2021:
.LBB2019:
	.loc 1 1363 0
	movq	8(%r14), %rsi
	call	vector_add
.LVL542:
	.loc 1 1364 0
	movq	strs(%rip), %rax
	movq	8(%r14), %rdi
	movl	(%rax), %esi
	subl	$1, %esi
	call	init_default_str_values
.LVL543:
	.loc 1 1365 0
	movq	strs(%rip), %rax
	movl	(%rax), %edx
	subl	$1, %edx
	jmp	.L405
.LVL544:
.L417:
	.loc 1 1356 0
	xorl	%eax, %eax
.LVL545:
	call	make_vector
.LVL546:
	movq	%rax, strs(%rip)
	movq	%rax, %rdi
	jmp	.L403
.LVL547:
.L395:
.LBE2019:
.LBE2021:
.LBE2023:
.LBE2027:
.LBE2028:
	.loc 1 1273 0
	movl	position.4536(%rip), %eax
	movl	%eax, %ecx
	movl	%eax, 20(%rsp)
.LVL548:
	.loc 1 1275 0
	cltq
.LVL549:
	leaq	class_objs(%rax), %rdx
.LVL550:
	.loc 1 1276 0
	movl	$0, class_objs(%rax)
	.loc 1 1277 0
	movl	$0, class_objs+4(%rax)
	.loc 1 1278 0
	movl	%ecx, %eax
	addl	$8, %eax
	.loc 1 1275 0
	movq	%rdx, 8(%rsp)
.LVL551:
	.loc 1 1279 0
	cmpl	$1023, %eax
	.loc 1 1278 0
	movl	%eax, position.4536(%rip)
	.loc 1 1279 0
	jle	.L408
.LVL552:
.L400:
	.loc 1 1279 0 is_stmt 0 discriminator 1
	movl	$__PRETTY_FUNCTION__.4547, %ecx
.LVL553:
	movl	$1279, %edx
	movl	$.LC0, %esi
	movl	$.LC17, %edi
	call	__assert_fail
.LVL554:
	.cfi_endproc
.LFE119:
	.size	make_class, .-make_class
	.p2align 4,,15
	.globl	get_class_constant_value
	.type	get_class_constant_value, @function
get_class_constant_value:
.LFB120:
	.loc 1 1302 0 is_stmt 1
	.cfi_startproc
.LVL555:
	pushq	%r13
	.cfi_def_cfa_offset 16
	.cfi_offset 13, -16
	movq	%rdx, %r13
	pushq	%r12
	.cfi_def_cfa_offset 24
	.cfi_offset 12, -24
	movq	%rsi, %r12
	pushq	%rbp
	.cfi_def_cfa_offset 32
	.cfi_offset 6, -32
	movq	%rdi, %rbp
	pushq	%rbx
	.cfi_def_cfa_offset 40
	.cfi_offset 3, -40
	subq	$8, %rsp
	.cfi_def_cfa_offset 48
	.loc 1 1304 0
	movq	v.4562(%rip), %rax
	testq	%rax, %rax
	je	.L429
.LVL556:
.L420:
.LBB2031:
	.loc 1 1305 0 discriminator 1
	movl	(%rax), %r10d
	xorl	%ebx, %ebx
	movq	%rax, %rdi
	testl	%r10d, %r10d
	jg	.L427
	jmp	.L424
.LVL557:
	.p2align 4,,10
	.p2align 3
.L423:
	.loc 1 1305 0 is_stmt 0
	movq	v.4562(%rip), %rdi
	addl	$1, %ebx
.LVL558:
	cmpl	%ebx, (%rdi)
	jle	.L424
.LVL559:
.L427:
.LBB2032:
	.loc 1 1306 0 is_stmt 1
	movl	%ebx, %esi
	call	vector_get
.LVL560:
	.loc 1 1307 0
	cmpq	%rbp, 8(%rax)
	jne	.L423
	.loc 1 1308 0
	movl	(%rax), %eax
.LVL561:
.LBE2032:
.LBE2031:
	.loc 1 1317 0
	addq	$8, %rsp
	.cfi_remember_state
	.cfi_def_cfa_offset 40
	popq	%rbx
	.cfi_def_cfa_offset 32
.LVL562:
	popq	%rbp
	.cfi_def_cfa_offset 24
.LVL563:
	popq	%r12
	.cfi_def_cfa_offset 16
.LVL564:
	popq	%r13
	.cfi_def_cfa_offset 8
.LVL565:
	ret
.LVL566:
	.p2align 4,,10
	.p2align 3
.L424:
	.cfi_restore_state
	.loc 1 1312 0
	movl	$16, %edi
	call	malloc
.LVL567:
	.loc 1 1314 0
	movq	%r13, %rdx
	movq	%r12, %rsi
	movq	%rbp, %rdi
	.loc 1 1313 0
	movq	%rbp, 8(%rax)
	.loc 1 1312 0
	movq	%rax, %rbx
.LVL568:
	.loc 1 1314 0
	call	make_class
.LVL569:
	.loc 1 1315 0
	movq	v.4562(%rip), %rdi
	.loc 1 1314 0
	movl	%eax, (%rbx)
	.loc 1 1315 0
	movq	%rbx, %rsi
	call	vector_add
.LVL570:
	.loc 1 1316 0
	movl	(%rbx), %eax
	.loc 1 1317 0
	addq	$8, %rsp
	.cfi_remember_state
	.cfi_def_cfa_offset 40
	popq	%rbx
	.cfi_def_cfa_offset 32
.LVL571:
	popq	%rbp
	.cfi_def_cfa_offset 24
.LVL572:
	popq	%r12
	.cfi_def_cfa_offset 16
.LVL573:
	popq	%r13
	.cfi_def_cfa_offset 8
.LVL574:
	ret
.LVL575:
.L429:
	.cfi_restore_state
	.loc 1 1304 0 discriminator 1
	call	make_vector
.LVL576:
	movq	%rax, v.4562(%rip)
	jmp	.L420
	.cfi_endproc
.LFE120:
	.size	get_class_constant_value, .-get_class_constant_value
	.p2align 4,,15
	.globl	get_str_constant_by_idx
	.type	get_str_constant_by_idx, @function
get_str_constant_by_idx:
.LFB122:
	.loc 1 1350 0
	.cfi_startproc
.LVL577:
	.loc 1 1350 0
	movl	%edi, %esi
	.loc 1 1351 0
	movq	strs(%rip), %rdi
.LVL578:
	jmp	vector_get
.LVL579:
	.cfi_endproc
.LFE122:
	.size	get_str_constant_by_idx, .-get_str_constant_by_idx
	.p2align 4,,15
	.globl	get_str_constant_value
	.type	get_str_constant_value, @function
get_str_constant_value:
.LFB123:
	.loc 1 1354 0
	.cfi_startproc
.LVL580:
	pushq	%r12
	.cfi_def_cfa_offset 16
	.cfi_offset 12, -16
	.loc 1 1355 0
	movq	strs(%rip), %rax
	.loc 1 1354 0
	movq	%rdi, %r12
	pushq	%rbp
	.cfi_def_cfa_offset 24
	.cfi_offset 6, -24
	.loc 1 1355 0
	testq	%rax, %rax
	.loc 1 1354 0
	pushq	%rbx
	.cfi_def_cfa_offset 32
	.cfi_offset 3, -32
	.loc 1 1355 0
	je	.L440
.LVL581:
.L432:
.LBB2034:
	.loc 1 1358 0 discriminator 1
	movl	(%rax), %r11d
	movq	%rax, %rdi
	testl	%r11d, %r11d
	jle	.L433
	.loc 1 1358 0 is_stmt 0
	xorl	%ebx, %ebx
	jmp	.L435
.LVL582:
	.p2align 4,,10
	.p2align 3
.L441:
	movq	strs(%rip), %rdi
	addl	$1, %ebx
.LVL583:
	cmpl	%ebx, (%rdi)
	jle	.L433
.LVL584:
.L435:
	.loc 1 1359 0 is_stmt 1
	movq	8(%r12), %rbp
	movl	%ebx, %esi
	call	vector_get
.LVL585:
	cmpq	%rax, %rbp
	jne	.L441
	movl	%ebx, %eax
.LBE2034:
	.loc 1 1366 0
	popq	%rbx
	.cfi_remember_state
	.cfi_def_cfa_offset 24
.LVL586:
	popq	%rbp
	.cfi_def_cfa_offset 16
	popq	%r12
	.cfi_def_cfa_offset 8
.LVL587:
	ret
.LVL588:
	.p2align 4,,10
	.p2align 3
.L433:
	.cfi_restore_state
	.loc 1 1363 0
	movq	8(%r12), %rsi
	call	vector_add
.LVL589:
	.loc 1 1364 0
	movq	strs(%rip), %rax
	movq	8(%r12), %rdi
	movl	(%rax), %esi
	subl	$1, %esi
	call	init_default_str_values
.LVL590:
	.loc 1 1365 0
	movq	strs(%rip), %rax
	.loc 1 1366 0
	popq	%rbx
	.cfi_remember_state
	.cfi_def_cfa_offset 24
	popq	%rbp
	.cfi_def_cfa_offset 16
	.loc 1 1365 0
	movl	(%rax), %eax
	.loc 1 1366 0
	popq	%r12
	.cfi_def_cfa_offset 8
.LVL591:
	.loc 1 1365 0
	subl	$1, %eax
	.loc 1 1366 0
	ret
.LVL592:
.L440:
	.cfi_restore_state
	.loc 1 1356 0
	call	make_vector
.LVL593:
	movq	%rax, strs(%rip)
	jmp	.L432
	.cfi_endproc
.LFE123:
	.size	get_str_constant_value, .-get_str_constant_value
	.p2align 4,,15
	.globl	code_index
	.type	code_index, @function
code_index:
.LFB124:
	.loc 1 1371 0
	.cfi_startproc
.LVL594:
	.loc 1 1372 0
	subq	$code_data, %rdi
.LVL595:
	movabsq	$-6148914691236517205, %rax
	sarq	$3, %rdi
.LVL596:
	imulq	%rax, %rdi
	.loc 1 1374 0
	movl	%edi, %eax
	ret
	.cfi_endproc
.LFE124:
	.size	code_index, .-code_index
	.p2align 4,,15
	.globl	code_alloc
	.type	code_alloc, @function
code_alloc:
.LFB125:
	.loc 1 1377 0
	.cfi_startproc
	.loc 1 1378 0
	movslq	end_code_section(%rip), %rdx
.LVL597:
	.loc 1 1379 0
	leal	1(%rdx), %eax
	.loc 1 1380 0
	cmpl	$10239, %eax
	.loc 1 1379 0
	movl	%eax, end_code_section(%rip)
	.loc 1 1380 0
	jg	.L446
	.loc 1 1381 0
	leaq	(%rdx,%rdx,2), %rax
	leaq	code_data(,%rax,8), %rax
	.loc 1 1382 0
	ret
.L446:
	.loc 1 1377 0 discriminator 1
	pushq	%rax
	.cfi_def_cfa_offset 16
	xorl	%eax, %eax
	call	code_alloc.part.0
.LVL598:
	.cfi_endproc
.LFE125:
	.size	code_alloc, .-code_alloc
	.p2align 4,,15
	.globl	get_ins
	.type	get_ins, @function
get_ins:
.LFB126:
	.loc 1 1384 0
	.cfi_startproc
.LVL599:
	.loc 1 1385 0
	movslq	%edi, %rdi
	leaq	(%rdi,%rdi,2), %rax
	leaq	code_data(,%rax,8), %rax
	.loc 1 1386 0
	ret
	.cfi_endproc
.LFE126:
	.size	get_ins, .-get_ins
	.p2align 4,,15
	.globl	get_ins_data
	.type	get_ins_data, @function
get_ins_data:
.LFB127:
	.loc 1 1388 0
	.cfi_startproc
.LVL600:
	.loc 1 1389 0
	movslq	%edi, %rdi
	leaq	(%rdi,%rdi,2), %rax
	leaq	code_data(,%rax,8), %rax
	.loc 1 1390 0
	ret
	.cfi_endproc
.LFE127:
	.size	get_ins_data, .-get_ins_data
	.p2align 4,,15
	.globl	code_point
	.type	code_point, @function
code_point:
.LFB128:
	.loc 1 1393 0
	.cfi_startproc
	.loc 1 1394 0
	cmpl	$-1, %edi
	je	.L459
	.loc 1 1401 0
	movslq	%edi, %rdi
	leaq	(%rdi,%rdi,2), %rax
	movq	code_data+16(,%rax,8), %rax
	ret
	.p2align 4,,10
	.p2align 3
.L459:
.LBB2046:
.LBB2047:
	.loc 1 1395 0
	movq	finished_trap(%rip), %rax
	testq	%rax, %rax
	je	.L460
.LBE2047:
.LBE2046:
	.loc 1 1402 0
	ret
	.p2align 4,,10
	.p2align 3
.L460:
	.loc 1 1393 0
	pushq	%r12
	.cfi_def_cfa_offset 16
	.cfi_offset 12, -16
	pushq	%rbp
	.cfi_def_cfa_offset 24
	.cfi_offset 6, -24
	pushq	%rbx
	.cfi_def_cfa_offset 32
	.cfi_offset 3, -32
	subq	$16, %rsp
	.cfi_def_cfa_offset 48
.LBB2063:
.LBB2060:
.LBB2048:
.LBB2049:
	.loc 1 1560 0
	movq	code(%rip), %rbx
	testq	%rbx, %rbx
	je	.L461
.L452:
	.loc 1 1564 0
	movl	$after_c_trap, %ebp
.LBB2050:
.LBB2051:
	.loc 3 66 0
	movq	%rbx, %rdi
	movl	$c_trap, %esi
.LBE2051:
.LBE2050:
	.loc 1 1564 0
	subq	$c_trap, %rbp
.LBB2053:
.LBB2052:
	.loc 3 66 0
	movq	%rbp, %rdx
	call	mempcpy
.LBE2052:
.LBE2053:
	.loc 1 1564 0
	movq	%rax, code(%rip)
	.loc 1 1565 0
	movb	$0, (%rax)
	.loc 1 1568 0
	movq	%rbp, %rsi
	movslq	hole_len(%rip), %r12
	movq	hole_str(%rip), %rdx
	movq	%rbx, %rdi
	movq	%r12, %rcx
	call	memmem
.LBB2054:
.LBB2055:
	.loc 3 66 0
	leaq	8(%rsp), %rsi
	movq	%r12, %rdx
	movq	%rax, %rdi
.LBE2055:
.LBE2054:
	.loc 1 1569 0
	movq	$-1, 8(%rsp)
.LBB2057:
.LBB2056:
	.loc 3 66 0
	call	memcpy
.LBE2056:
.LBE2057:
.LBE2049:
.LBE2048:
	.loc 1 1396 0
	movq	%rbx, finished_trap(%rip)
.LBE2060:
.LBE2063:
	.loc 1 1402 0
	addq	$16, %rsp
	.cfi_remember_state
	.cfi_def_cfa_offset 32
.LBB2064:
.LBB2061:
	.loc 1 1396 0
	movq	%rbx, %rax
.LBE2061:
.LBE2064:
	.loc 1 1402 0
	popq	%rbx
	.cfi_restore 3
	.cfi_def_cfa_offset 24
	popq	%rbp
	.cfi_restore 6
	.cfi_def_cfa_offset 16
	popq	%r12
	.cfi_restore 12
	.cfi_def_cfa_offset 8
	ret
.L461:
	.cfi_restore_state
.LBB2065:
.LBB2062:
.LBB2059:
.LBB2058:
	.loc 1 1561 0
	movl	%edi, %r8d
	xorl	%r9d, %r9d
	movl	$34, %ecx
	movl	$7, %edx
	movl	$1048576, %esi
	xorl	%edi, %edi
	call	mmap
	movq	%rax, code(%rip)
	movq	%rax, %rbx
	jmp	.L452
.LBE2058:
.LBE2059:
.LBE2062:
.LBE2065:
	.cfi_endproc
.LFE128:
	.size	code_point, .-code_point
	.p2align 4,,15
	.globl	index_point
	.type	index_point, @function
index_point:
.LFB129:
	.loc 1 1406 0
	.cfi_startproc
.LVL601:
	.loc 1 1407 0
	cmpq	finished_trap(%rip), %rdi
	je	.L465
.LVL602:
	.loc 1 1412 0
	cmpq	code_data+16(%rip), %rdi
	je	.L466
	movl	$code_data, %edx
	xorl	%eax, %eax
.LVL603:
	.p2align 4,,10
	.p2align 3
.L464:
	addq	$24, %rdx
	.loc 1 1415 0
	addl	$1, %eax
.LVL604:
	.loc 1 1412 0
	cmpq	16(%rdx), %rdi
	jne	.L464
	rep; ret
.LVL605:
.L466:
	xorl	%eax, %eax
	.loc 1 1417 0
	ret
.LVL606:
.L465:
	.loc 1 1408 0
	movl	$-1, %eax
	.p2align 4,,5
	ret
	.cfi_endproc
.LFE129:
	.size	index_point, .-index_point
	.p2align 4,,15
	.globl	set_code_point
	.type	set_code_point, @function
set_code_point:
.LFB130:
	.loc 1 1419 0
	.cfi_startproc
.LVL607:
	.loc 1 1421 0
	movslq	%edi, %rdi
	leaq	(%rdi,%rdi,2), %rax
	movq	%rsi, code_data+16(,%rax,8)
	ret
	.cfi_endproc
.LFE130:
	.size	set_code_point, .-set_code_point
	.p2align 4,,15
	.globl	make_object
	.type	make_object, @function
make_object:
.LFB131:
	.loc 1 1429 0
	.cfi_startproc
.LVL608:
	pushq	%r13
	.cfi_def_cfa_offset 16
	.cfi_offset 13, -16
	movslq	%edi, %r13
	pushq	%r12
	.cfi_def_cfa_offset 24
	.cfi_offset 12, -24
	pushq	%rbp
	.cfi_def_cfa_offset 32
	.cfi_offset 6, -32
	pushq	%rbx
	.cfi_def_cfa_offset 40
	.cfi_offset 3, -40
	subq	$24, %rsp
	.cfi_def_cfa_offset 64
	.loc 1 1430 0
	movq	code(%rip), %rbx
	testq	%rbx, %rbx
	je	.L473
.LVL609:
.L470:
	.loc 1 1434 0
	movl	$object_op_end, %ebp
.LBB2069:
.LBB2070:
	.loc 3 66 0
	movq	%rbx, %rdi
	movl	$object_op, %esi
.LBE2070:
.LBE2069:
	.loc 1 1434 0
	subq	$object_op, %rbp
.LVL610:
.LBB2072:
.LBB2071:
	.loc 3 66 0
	movq	%rbp, %rdx
	call	mempcpy
.LVL611:
.LBE2071:
.LBE2072:
	.loc 1 1434 0
	movq	%rax, code(%rip)
	.loc 1 1435 0
	movb	$0, (%rax)
	.loc 1 1438 0
	movq	%rbp, %rsi
	movslq	hole_len(%rip), %r12
	movq	hole_str(%rip), %rdx
	movq	%rbx, %rdi
	movq	%r12, %rcx
	call	memmem
.LVL612:
.LBB2073:
.LBB2074:
	.loc 3 66 0
	leaq	8(%rsp), %rsi
	movq	%r12, %rdx
	movq	%rax, %rdi
.LBE2074:
.LBE2073:
	.loc 1 1439 0
	movq	%r13, 8(%rsp)
.LVL613:
.LBB2076:
.LBB2075:
	.loc 3 66 0
	call	memcpy
.LVL614:
.LBE2075:
.LBE2076:
	.loc 1 1442 0
	movslq	hole_len(%rip), %r12
.LVL615:
	movq	hole_str(%rip), %rdx
	movq	%rbp, %rsi
	movq	%rbx, %rdi
	movq	%r12, %rcx
	call	memmem
.LVL616:
.LBB2077:
.LBB2078:
	.loc 3 66 0
	leaq	8(%rsp), %rsi
.LVL617:
	movq	%r12, %rdx
	movq	%rax, %rdi
.LBE2078:
.LBE2077:
	.loc 1 1443 0
	movq	$class_objs, 8(%rsp)
.LVL618:
.LBB2080:
.LBB2079:
	.loc 3 66 0
	call	memcpy
.LVL619:
.LBE2079:
.LBE2080:
	.loc 1 1446 0
	movslq	hole_len(%rip), %r12
.LVL620:
	movq	hole_str(%rip), %rdx
	movq	%rbp, %rsi
	movq	%rbx, %rdi
	movq	%r12, %rcx
	call	memmem
.LVL621:
.LBB2081:
.LBB2082:
	.loc 3 66 0
	leaq	8(%rsp), %rsi
.LVL622:
	movq	%r12, %rdx
	movq	%rax, %rdi
.LBE2082:
.LBE2081:
	.loc 1 1447 0
	movq	$instruction_pointer, 8(%rsp)
.LVL623:
.LBB2084:
.LBB2083:
	.loc 3 66 0
	call	memcpy
.LVL624:
.LBE2083:
.LBE2084:
	.loc 1 1450 0
	movslq	hole_len(%rip), %r12
.LVL625:
	movq	hole_str(%rip), %rdx
	movq	%rbp, %rsi
	movq	%rbx, %rdi
	movq	%r12, %rcx
	call	memmem
.LVL626:
.LBB2085:
.LBB2086:
	.loc 3 66 0
	leaq	8(%rsp), %rsi
.LVL627:
	movq	%r12, %rdx
	movq	%rax, %rdi
.LBE2086:
.LBE2085:
	.loc 1 1451 0
	movq	%r13, 8(%rsp)
.LVL628:
.LBB2088:
.LBB2087:
	.loc 3 66 0
	call	memcpy
.LVL629:
.LBE2087:
.LBE2088:
	.loc 1 1454 0
	movslq	hole_len(%rip), %r12
.LVL630:
	movq	hole_str(%rip), %rdx
	movq	%rbp, %rsi
	movq	%rbx, %rdi
	movq	%r12, %rcx
	call	memmem
.LVL631:
.LBB2089:
.LBB2090:
	.loc 3 66 0
	leaq	8(%rsp), %rsi
.LVL632:
	movq	%r12, %rdx
	movq	%rax, %rdi
.LBE2090:
.LBE2089:
	.loc 1 1455 0
	movq	$class_objs, 8(%rsp)
.LVL633:
.LBB2092:
.LBB2091:
	.loc 3 66 0
	call	memcpy
.LVL634:
.LBE2091:
.LBE2092:
	.loc 1 1458 0
	movslq	hole_len(%rip), %r12
.LVL635:
	movq	hole_str(%rip), %rdx
	movq	%rbp, %rsi
	movq	%rbx, %rdi
	movq	%r12, %rcx
	call	memmem
.LVL636:
	.loc 1 1459 0
	movq	ARRAY_OBJ_MASK(%rip), %rdx
.LBB2093:
.LBB2094:
	.loc 3 66 0
	leaq	8(%rsp), %rsi
.LVL637:
	movq	%rax, %rdi
.LBE2094:
.LBE2093:
	.loc 1 1459 0
	movq	%rdx, 8(%rsp)
.LVL638:
.LBB2096:
.LBB2095:
	.loc 3 66 0
	movq	%r12, %rdx
	call	memcpy
.LVL639:
.LBE2095:
.LBE2096:
	.loc 1 1463 0
	addq	$24, %rsp
	.cfi_remember_state
	.cfi_def_cfa_offset 40
	movq	%rbx, %rax
	popq	%rbx
	.cfi_def_cfa_offset 32
.LVL640:
	popq	%rbp
	.cfi_def_cfa_offset 24
.LVL641:
	popq	%r12
	.cfi_def_cfa_offset 16
.LVL642:
	popq	%r13
	.cfi_def_cfa_offset 8
.LVL643:
	ret
.LVL644:
	.p2align 4,,10
	.p2align 3
.L473:
	.cfi_restore_state
	.loc 1 1431 0
	xorl	%r9d, %r9d
	movl	$-1, %r8d
	movl	$34, %ecx
	movl	$7, %edx
	movl	$1048576, %esi
	xorl	%edi, %edi
.LVL645:
	call	mmap
.LVL646:
	movq	%rax, code(%rip)
	movq	%rax, %rbx
	jmp	.L470
	.cfi_endproc
.LFE131:
	.size	make_object, .-make_object
	.p2align 4,,15
	.globl	make_return
	.type	make_return, @function
make_return:
.LFB132:
	.loc 1 1467 0
	.cfi_startproc
	pushq	%rbx
	.cfi_def_cfa_offset 16
	.cfi_offset 3, -16
	.loc 1 1468 0
	movq	code(%rip), %rbx
	testq	%rbx, %rbx
	je	.L478
.L475:
.LVL647:
	.loc 1 1472 0
	movl	$return_op_end, %edx
.LBB2099:
.LBB2100:
	.loc 3 66 0
	movq	%rbx, %rdi
	movl	$return_op, %esi
.LBE2100:
.LBE2099:
	.loc 1 1472 0
	subq	$return_op, %rdx
.LVL648:
.LBB2102:
.LBB2101:
	.loc 3 66 0
	call	mempcpy
.LVL649:
.LBE2101:
.LBE2102:
	.loc 1 1472 0
	movq	%rax, code(%rip)
	.loc 1 1473 0
	movb	$0, (%rax)
	.loc 1 1475 0
	movq	%rbx, %rax
	popq	%rbx
	.cfi_remember_state
	.cfi_def_cfa_offset 8
.LVL650:
	ret
.LVL651:
	.p2align 4,,10
	.p2align 3
.L478:
	.cfi_restore_state
	.loc 1 1469 0
	xorl	%r9d, %r9d
	movl	$-1, %r8d
	movl	$34, %ecx
	movl	$7, %edx
	movl	$1048576, %esi
	xorl	%edi, %edi
	call	mmap
.LVL652:
	movq	%rax, code(%rip)
	movq	%rax, %rbx
	jmp	.L475
	.cfi_endproc
.LFE132:
	.size	make_return, .-make_return
	.p2align 4,,15
	.globl	make_drop
	.type	make_drop, @function
make_drop:
.LFB133:
	.loc 1 1479 0
	.cfi_startproc
	pushq	%rbx
	.cfi_def_cfa_offset 16
	.cfi_offset 3, -16
	.loc 1 1480 0
	movq	code(%rip), %rbx
	testq	%rbx, %rbx
	je	.L483
.L480:
.LVL653:
	.loc 1 1484 0
	movl	$drop_op_end, %edx
.LBB2105:
.LBB2106:
	.loc 3 66 0
	movq	%rbx, %rdi
	movl	$drop_op, %esi
.LBE2106:
.LBE2105:
	.loc 1 1484 0
	subq	$drop_op, %rdx
.LVL654:
.LBB2108:
.LBB2107:
	.loc 3 66 0
	call	mempcpy
.LVL655:
.LBE2107:
.LBE2108:
	.loc 1 1484 0
	movq	%rax, code(%rip)
	.loc 1 1485 0
	movb	$0, (%rax)
	.loc 1 1487 0
	movq	%rbx, %rax
	popq	%rbx
	.cfi_remember_state
	.cfi_def_cfa_offset 8
.LVL656:
	ret
.LVL657:
	.p2align 4,,10
	.p2align 3
.L483:
	.cfi_restore_state
	.loc 1 1481 0
	xorl	%r9d, %r9d
	movl	$-1, %r8d
	movl	$34, %ecx
	movl	$7, %edx
	movl	$1048576, %esi
	xorl	%edi, %edi
	call	mmap
.LVL658:
	movq	%rax, code(%rip)
	movq	%rax, %rbx
	jmp	.L480
	.cfi_endproc
.LFE133:
	.size	make_drop, .-make_drop
	.p2align 4,,15
	.globl	make_set_global
	.type	make_set_global, @function
make_set_global:
.LFB134:
	.loc 1 1491 0
	.cfi_startproc
.LVL659:
	pushq	%r13
	.cfi_def_cfa_offset 16
	.cfi_offset 13, -16
	movslq	%edi, %r13
	pushq	%r12
	.cfi_def_cfa_offset 24
	.cfi_offset 12, -24
	pushq	%rbp
	.cfi_def_cfa_offset 32
	.cfi_offset 6, -32
	pushq	%rbx
	.cfi_def_cfa_offset 40
	.cfi_offset 3, -40
	subq	$24, %rsp
	.cfi_def_cfa_offset 64
	.loc 1 1492 0
	movq	code(%rip), %rbx
	testq	%rbx, %rbx
	je	.L488
.LVL660:
.L485:
	.loc 1 1496 0
	movl	$set_global_op_end, %ebp
.LBB2113:
.LBB2114:
	.loc 3 66 0
	movq	%rbx, %rdi
	movl	$set_global_op, %esi
.LBE2114:
.LBE2113:
	.loc 1 1496 0
	subq	$set_global_op, %rbp
.LVL661:
.LBB2116:
.LBB2115:
	.loc 3 66 0
	movq	%rbp, %rdx
	call	mempcpy
.LVL662:
.LBE2115:
.LBE2116:
	.loc 1 1496 0
	movq	%rax, code(%rip)
	.loc 1 1497 0
	movb	$0, (%rax)
	.loc 1 1500 0
	movq	%rbp, %rsi
	movslq	hole_len(%rip), %r12
	movq	hole_str(%rip), %rdx
	movq	%rbx, %rdi
	movq	%r12, %rcx
	call	memmem
.LVL663:
.LBB2117:
.LBB2118:
	.loc 3 66 0
	leaq	8(%rsp), %rsi
	movq	%r12, %rdx
	movq	%rax, %rdi
.LBE2118:
.LBE2117:
	.loc 1 1501 0
	movq	%r13, 8(%rsp)
.LVL664:
.LBB2120:
.LBB2119:
	.loc 3 66 0
	call	memcpy
.LVL665:
.LBE2119:
.LBE2120:
	.loc 1 1504 0
	addq	$24, %rsp
	.cfi_remember_state
	.cfi_def_cfa_offset 40
	movq	%rbx, %rax
	popq	%rbx
	.cfi_def_cfa_offset 32
.LVL666:
	popq	%rbp
	.cfi_def_cfa_offset 24
.LVL667:
	popq	%r12
	.cfi_def_cfa_offset 16
.LVL668:
	popq	%r13
	.cfi_def_cfa_offset 8
.LVL669:
	ret
.LVL670:
	.p2align 4,,10
	.p2align 3
.L488:
	.cfi_restore_state
	.loc 1 1493 0
	xorl	%r9d, %r9d
	movl	$-1, %r8d
	movl	$34, %ecx
	movl	$7, %edx
	movl	$1048576, %esi
	xorl	%edi, %edi
.LVL671:
	call	mmap
.LVL672:
	movq	%rax, code(%rip)
	movq	%rax, %rbx
	jmp	.L485
	.cfi_endproc
.LFE134:
	.size	make_set_global, .-make_set_global
	.p2align 4,,15
	.globl	make_get_global
	.type	make_get_global, @function
make_get_global:
.LFB135:
	.loc 1 1508 0
	.cfi_startproc
.LVL673:
	pushq	%r13
	.cfi_def_cfa_offset 16
	.cfi_offset 13, -16
	movslq	%edi, %r13
	pushq	%r12
	.cfi_def_cfa_offset 24
	.cfi_offset 12, -24
	pushq	%rbp
	.cfi_def_cfa_offset 32
	.cfi_offset 6, -32
	pushq	%rbx
	.cfi_def_cfa_offset 40
	.cfi_offset 3, -40
	subq	$24, %rsp
	.cfi_def_cfa_offset 64
	.loc 1 1509 0
	movq	code(%rip), %rbx
	testq	%rbx, %rbx
	je	.L493
.LVL674:
.L490:
	.loc 1 1513 0
	movl	$get_global_op_end, %ebp
.LBB2125:
.LBB2126:
	.loc 3 66 0
	movq	%rbx, %rdi
	movl	$get_global_op, %esi
.LBE2126:
.LBE2125:
	.loc 1 1513 0
	subq	$get_global_op, %rbp
.LVL675:
.LBB2128:
.LBB2127:
	.loc 3 66 0
	movq	%rbp, %rdx
	call	mempcpy
.LVL676:
.LBE2127:
.LBE2128:
	.loc 1 1513 0
	movq	%rax, code(%rip)
	.loc 1 1514 0
	movb	$0, (%rax)
	.loc 1 1517 0
	movq	%rbp, %rsi
	movslq	hole_len(%rip), %r12
	movq	hole_str(%rip), %rdx
	movq	%rbx, %rdi
	movq	%r12, %rcx
	call	memmem
.LVL677:
.LBB2129:
.LBB2130:
	.loc 3 66 0
	leaq	8(%rsp), %rsi
	movq	%r12, %rdx
	movq	%rax, %rdi
.LBE2130:
.LBE2129:
	.loc 1 1518 0
	movq	%r13, 8(%rsp)
.LVL678:
.LBB2132:
.LBB2131:
	.loc 3 66 0
	call	memcpy
.LVL679:
.LBE2131:
.LBE2132:
	.loc 1 1521 0
	addq	$24, %rsp
	.cfi_remember_state
	.cfi_def_cfa_offset 40
	movq	%rbx, %rax
	popq	%rbx
	.cfi_def_cfa_offset 32
.LVL680:
	popq	%rbp
	.cfi_def_cfa_offset 24
.LVL681:
	popq	%r12
	.cfi_def_cfa_offset 16
.LVL682:
	popq	%r13
	.cfi_def_cfa_offset 8
.LVL683:
	ret
.LVL684:
	.p2align 4,,10
	.p2align 3
.L493:
	.cfi_restore_state
	.loc 1 1510 0
	xorl	%r9d, %r9d
	movl	$-1, %r8d
	movl	$34, %ecx
	movl	$7, %edx
	movl	$1048576, %esi
	xorl	%edi, %edi
.LVL685:
	call	mmap
.LVL686:
	movq	%rax, code(%rip)
	movq	%rax, %rbx
	jmp	.L490
	.cfi_endproc
.LFE135:
	.size	make_get_global, .-make_get_global
	.p2align 4,,15
	.globl	make_get_local
	.type	make_get_local, @function
make_get_local:
.LFB136:
	.loc 1 1525 0
	.cfi_startproc
.LVL687:
	pushq	%r13
	.cfi_def_cfa_offset 16
	.cfi_offset 13, -16
	movslq	%edi, %r13
	pushq	%r12
	.cfi_def_cfa_offset 24
	.cfi_offset 12, -24
	pushq	%rbp
	.cfi_def_cfa_offset 32
	.cfi_offset 6, -32
	pushq	%rbx
	.cfi_def_cfa_offset 40
	.cfi_offset 3, -40
	subq	$24, %rsp
	.cfi_def_cfa_offset 64
	.loc 1 1526 0
	movq	code(%rip), %rbx
	testq	%rbx, %rbx
	je	.L498
.LVL688:
.L495:
	.loc 1 1530 0
	movl	$get_local_op_end, %ebp
.LBB2137:
.LBB2138:
	.loc 3 66 0
	movq	%rbx, %rdi
	movl	$get_local_op, %esi
.LBE2138:
.LBE2137:
	.loc 1 1530 0
	subq	$get_local_op, %rbp
.LVL689:
.LBB2140:
.LBB2139:
	.loc 3 66 0
	movq	%rbp, %rdx
	call	mempcpy
.LVL690:
.LBE2139:
.LBE2140:
	.loc 1 1530 0
	movq	%rax, code(%rip)
	.loc 1 1531 0
	movb	$0, (%rax)
	.loc 1 1534 0
	movq	%rbp, %rsi
	movslq	hole_len(%rip), %r12
	movq	hole_str(%rip), %rdx
	movq	%rbx, %rdi
	movq	%r12, %rcx
	call	memmem
.LVL691:
.LBB2141:
.LBB2142:
	.loc 3 66 0
	leaq	8(%rsp), %rsi
	movq	%r12, %rdx
	movq	%rax, %rdi
.LBE2142:
.LBE2141:
	.loc 1 1535 0
	movq	%r13, 8(%rsp)
.LVL692:
.LBB2144:
.LBB2143:
	.loc 3 66 0
	call	memcpy
.LVL693:
.LBE2143:
.LBE2144:
	.loc 1 1538 0
	addq	$24, %rsp
	.cfi_remember_state
	.cfi_def_cfa_offset 40
	movq	%rbx, %rax
	popq	%rbx
	.cfi_def_cfa_offset 32
.LVL694:
	popq	%rbp
	.cfi_def_cfa_offset 24
.LVL695:
	popq	%r12
	.cfi_def_cfa_offset 16
.LVL696:
	popq	%r13
	.cfi_def_cfa_offset 8
.LVL697:
	ret
.LVL698:
	.p2align 4,,10
	.p2align 3
.L498:
	.cfi_restore_state
	.loc 1 1527 0
	xorl	%r9d, %r9d
	movl	$-1, %r8d
	movl	$34, %ecx
	movl	$7, %edx
	movl	$1048576, %esi
	xorl	%edi, %edi
.LVL699:
	call	mmap
.LVL700:
	movq	%rax, code(%rip)
	movq	%rax, %rbx
	jmp	.L495
	.cfi_endproc
.LFE136:
	.size	make_get_local, .-make_get_local
	.p2align 4,,15
	.globl	make_set_local
	.type	make_set_local, @function
make_set_local:
.LFB137:
	.loc 1 1542 0
	.cfi_startproc
.LVL701:
	pushq	%r13
	.cfi_def_cfa_offset 16
	.cfi_offset 13, -16
	movslq	%edi, %r13
	pushq	%r12
	.cfi_def_cfa_offset 24
	.cfi_offset 12, -24
	pushq	%rbp
	.cfi_def_cfa_offset 32
	.cfi_offset 6, -32
	pushq	%rbx
	.cfi_def_cfa_offset 40
	.cfi_offset 3, -40
	subq	$24, %rsp
	.cfi_def_cfa_offset 64
	.loc 1 1543 0
	movq	code(%rip), %rbx
	testq	%rbx, %rbx
	je	.L503
.LVL702:
.L500:
	.loc 1 1547 0
	movl	$set_local_op_end, %ebp
.LBB2149:
.LBB2150:
	.loc 3 66 0
	movq	%rbx, %rdi
	movl	$set_local_op, %esi
.LBE2150:
.LBE2149:
	.loc 1 1547 0
	subq	$set_local_op, %rbp
.LVL703:
.LBB2152:
.LBB2151:
	.loc 3 66 0
	movq	%rbp, %rdx
	call	mempcpy
.LVL704:
.LBE2151:
.LBE2152:
	.loc 1 1547 0
	movq	%rax, code(%rip)
	.loc 1 1548 0
	movb	$0, (%rax)
	.loc 1 1551 0
	movq	%rbp, %rsi
	movslq	hole_len(%rip), %r12
	movq	hole_str(%rip), %rdx
	movq	%rbx, %rdi
	movq	%r12, %rcx
	call	memmem
.LVL705:
.LBB2153:
.LBB2154:
	.loc 3 66 0
	leaq	8(%rsp), %rsi
	movq	%r12, %rdx
	movq	%rax, %rdi
.LBE2154:
.LBE2153:
	.loc 1 1552 0
	movq	%r13, 8(%rsp)
.LVL706:
.LBB2156:
.LBB2155:
	.loc 3 66 0
	call	memcpy
.LVL707:
.LBE2155:
.LBE2156:
	.loc 1 1555 0
	addq	$24, %rsp
	.cfi_remember_state
	.cfi_def_cfa_offset 40
	movq	%rbx, %rax
	popq	%rbx
	.cfi_def_cfa_offset 32
.LVL708:
	popq	%rbp
	.cfi_def_cfa_offset 24
.LVL709:
	popq	%r12
	.cfi_def_cfa_offset 16
.LVL710:
	popq	%r13
	.cfi_def_cfa_offset 8
.LVL711:
	ret
.LVL712:
	.p2align 4,,10
	.p2align 3
.L503:
	.cfi_restore_state
	.loc 1 1544 0
	xorl	%r9d, %r9d
	movl	$-1, %r8d
	movl	$34, %ecx
	movl	$7, %edx
	movl	$1048576, %esi
	xorl	%edi, %edi
.LVL713:
	call	mmap
.LVL714:
	movq	%rax, code(%rip)
	movq	%rax, %rbx
	jmp	.L500
	.cfi_endproc
.LFE137:
	.size	make_set_local, .-make_set_local
	.p2align 4,,15
	.globl	make_trap
	.type	make_trap, @function
make_trap:
.LFB138:
	.loc 1 1559 0
	.cfi_startproc
.LVL715:
	pushq	%r13
	.cfi_def_cfa_offset 16
	.cfi_offset 13, -16
	movslq	%edi, %r13
	pushq	%r12
	.cfi_def_cfa_offset 24
	.cfi_offset 12, -24
	pushq	%rbp
	.cfi_def_cfa_offset 32
	.cfi_offset 6, -32
	pushq	%rbx
	.cfi_def_cfa_offset 40
	.cfi_offset 3, -40
	subq	$24, %rsp
	.cfi_def_cfa_offset 64
	.loc 1 1560 0
	movq	code(%rip), %rbx
	testq	%rbx, %rbx
	je	.L508
.LVL716:
.L505:
	.loc 1 1564 0
	movl	$after_c_trap, %ebp
.LBB2161:
.LBB2162:
	.loc 3 66 0
	movq	%rbx, %rdi
	movl	$c_trap, %esi
.LBE2162:
.LBE2161:
	.loc 1 1564 0
	subq	$c_trap, %rbp
.LVL717:
.LBB2164:
.LBB2163:
	.loc 3 66 0
	movq	%rbp, %rdx
	call	mempcpy
.LVL718:
.LBE2163:
.LBE2164:
	.loc 1 1564 0
	movq	%rax, code(%rip)
	.loc 1 1565 0
	movb	$0, (%rax)
	.loc 1 1568 0
	movq	%rbp, %rsi
	movslq	hole_len(%rip), %r12
	movq	hole_str(%rip), %rdx
	movq	%rbx, %rdi
	movq	%r12, %rcx
	call	memmem
.LVL719:
.LBB2165:
.LBB2166:
	.loc 3 66 0
	leaq	8(%rsp), %rsi
	movq	%r12, %rdx
	movq	%rax, %rdi
.LBE2166:
.LBE2165:
	.loc 1 1569 0
	movq	%r13, 8(%rsp)
.LVL720:
.LBB2168:
.LBB2167:
	.loc 3 66 0
	call	memcpy
.LVL721:
.LBE2167:
.LBE2168:
	.loc 1 1572 0
	addq	$24, %rsp
	.cfi_remember_state
	.cfi_def_cfa_offset 40
	movq	%rbx, %rax
	popq	%rbx
	.cfi_def_cfa_offset 32
.LVL722:
	popq	%rbp
	.cfi_def_cfa_offset 24
.LVL723:
	popq	%r12
	.cfi_def_cfa_offset 16
.LVL724:
	popq	%r13
	.cfi_def_cfa_offset 8
.LVL725:
	ret
.LVL726:
	.p2align 4,,10
	.p2align 3
.L508:
	.cfi_restore_state
	.loc 1 1561 0
	xorl	%r9d, %r9d
	movl	$-1, %r8d
	movl	$34, %ecx
	movl	$7, %edx
	movl	$1048576, %esi
	xorl	%edi, %edi
.LVL727:
	call	mmap
.LVL728:
	movq	%rax, code(%rip)
	movq	%rax, %rbx
	jmp	.L505
	.cfi_endproc
.LFE138:
	.size	make_trap, .-make_trap
	.p2align 4,,15
	.globl	exec_call_slot_op
	.type	exec_call_slot_op, @function
exec_call_slot_op:
.LFB108:
	.loc 1 948 0
	.cfi_startproc
.LVL729:
	pushq	%r15
	.cfi_def_cfa_offset 16
	.cfi_offset 15, -16
	movq	%rdi, %r15
	pushq	%r14
	.cfi_def_cfa_offset 24
	.cfi_offset 14, -24
	pushq	%r13
	.cfi_def_cfa_offset 32
	.cfi_offset 13, -32
	pushq	%r12
	.cfi_def_cfa_offset 40
	.cfi_offset 12, -40
	pushq	%rbp
	.cfi_def_cfa_offset 48
	.cfi_offset 6, -48
	pushq	%rbx
	.cfi_def_cfa_offset 56
	.cfi_offset 3, -56
	movl	%esi, %ebx
	.loc 1 955 0
	leal	1(%rbx), %r14d
	.loc 1 948 0
	subq	$40, %rsp
	.cfi_def_cfa_offset 96
	.loc 1 949 0
	call	exec_built_in_method
.LVL730:
	testl	%eax, %eax
	je	.L562
.LVL731:
.L511:
	.loc 1 970 0
	addq	$40, %rsp
	.cfi_remember_state
	.cfi_def_cfa_offset 56
	movl	%r14d, %eax
	popq	%rbx
	.cfi_def_cfa_offset 48
	popq	%rbp
	.cfi_def_cfa_offset 40
	popq	%r12
	.cfi_def_cfa_offset 32
	popq	%r13
	.cfi_def_cfa_offset 24
	popq	%r14
	.cfi_def_cfa_offset 16
	popq	%r15
	.cfi_def_cfa_offset 8
.LVL732:
	ret
.LVL733:
	.p2align 4,,10
	.p2align 3
.L562:
	.cfi_restore_state
	.loc 1 958 0
	movl	8(%r15), %r12d
	movq	stack_pointer(%rip), %r13
	movslq	%r12d, %rax
	movq	%r13, %rsi
	salq	$3, %rax
	subq	%rax, %rsi
	movq	(%rsi), %rcx
.LVL734:
.LBB2213:
.LBB2214:
.LBB2215:
.LBB2216:
	.loc 1 2157 0
	cmpq	$2, %rcx
	je	.L512
	.loc 1 2159 0
	movq	%rcx, %rdx
	shrq	$63, %rdx
	leaq	(%rcx,%rdx), %rax
	andl	$1, %eax
	subq	%rdx, %rax
	cmpq	$1, %rax
	je	.L563
.LVL735:
.L512:
.LBE2216:
.LBE2215:
	call	to_obj_val.part.3
.LVL736:
	.p2align 4,,10
	.p2align 3
.L563:
.LBB2225:
.LBB2224:
.LBB2217:
.LBB2218:
.LBB2219:
.LBB2220:
.LBB2221:
	.loc 1 2144 0
	movq	CLEAR_ARRAY_OBJ_MASK(%rip), %rsi
.LBE2221:
.LBE2220:
	.loc 1 2161 0
	movb	$4, %al
.LBB2223:
.LBB2222:
	.loc 1 2144 0
	andq	%rsi, %rcx
.LVL737:
.LBE2222:
.LBE2223:
	.loc 1 2161 0
	cmpq	$4, (%rcx)
	cmovbe	(%rcx), %rax
.LBE2219:
.LBE2218:
.LBE2217:
.LBE2224:
.LBE2225:
	.loc 1 2099 0
	cmpl	$4, %eax
	jne	.L512
.LBE2214:
.LBE2213:
	.loc 1 962 0
	movl	4(%r15), %r9d
.LVL738:
.LBB2226:
.LBB2227:
.LBB2228:
.LBB2229:
.LBB2230:
.LBB2231:
.LBB2232:
.LBB2233:
.LBB2234:
	.loc 1 2161 0
	movl	$4, %edi
.LVL739:
.L521:
.LBE2234:
.LBE2233:
.LBE2232:
.LBE2231:
.LBE2230:
.LBE2229:
.LBE2228:
	.loc 1 350 0
	movq	(%rcx), %r10
.LVL740:
.LBB2243:
	.loc 1 356 0
	movl	(%r10), %r8d
	addl	4(%r10), %r8d
	testl	%r8d, %r8d
	jle	.L514
	.loc 1 357 0
	cmpl	%r9d, 8(%r10)
	je	.L564
	movq	%r10, %rdx
	.loc 1 356 0
	xorl	%eax, %eax
	jmp	.L517
.LVL741:
	.p2align 4,,10
	.p2align 3
.L520:
	addq	$8, %rdx
	.loc 1 357 0
	cmpl	%r9d, 8(%rdx)
	je	.L515
.LVL742:
.L517:
	.loc 1 356 0
	addl	$1, %eax
.LVL743:
	cmpl	%r8d, %eax
	jne	.L520
.LVL744:
.L514:
.LBE2243:
	.loc 1 362 0
	movq	8(%rcx), %rcx
.LVL745:
.LBB2244:
.LBB2242:
.LBB2241:
.LBB2240:
	.loc 1 2157 0
	cmpq	$2, %rcx
	je	.L512
	.loc 1 2159 0
	movq	%rcx, %rdx
	shrq	$63, %rdx
	leaq	(%rcx,%rdx), %rax
	andl	$1, %eax
	subq	%rdx, %rax
	cmpq	$1, %rax
	jne	.L512
.LVL746:
.LBB2239:
.LBB2238:
.LBB2237:
.LBB2235:
.LBB2236:
	.loc 1 2144 0
	andq	%rsi, %rcx
.LVL747:
.LBE2236:
.LBE2235:
	.loc 1 2161 0
	movq	%rdi, %rax
	cmpq	$4, (%rcx)
	cmovbe	(%rcx), %rax
.LBE2237:
.LBE2238:
.LBE2239:
.LBE2240:
.LBE2241:
	.loc 1 2099 0
	cmpl	$4, %eax
	je	.L521
	jmp	.L512
.LVL748:
	.p2align 4,,10
	.p2align 3
.L564:
.LBE2242:
.LBE2244:
.LBB2245:
	.loc 1 356 0
	xorl	%eax, %eax
.LVL749:
	.p2align 4,,10
	.p2align 3
.L515:
	.loc 1 358 0
	cltq
.LBE2245:
.LBE2227:
.LBE2226:
.LBB2248:
.LBB2249:
.LBB2250:
.LBB2251:
	.loc 1 427 0
	movq	frame_pointer(%rip), %rsi
.LVL750:
.LBE2251:
.LBE2250:
.LBE2249:
.LBE2248:
	.loc 1 964 0
	leal	1(%rbx), %edi
.LBB2287:
.LBB2247:
.LBB2246:
	.loc 1 358 0
	movl	12(%r10,%rax,8), %r14d
.LVL751:
.LBE2246:
.LBE2247:
.LBE2287:
.LBB2288:
.LBB2284:
.LBB2255:
.LBB2252:
	.loc 1 427 0
	movq	%rsi, %rbx
.LVL752:
.LBE2252:
.LBE2255:
.LBE2284:
.LBE2288:
	.loc 1 963 0
	movslq	%r14d, %rax
	leaq	(%rax,%rax,2), %rax
.LBB2289:
.LBB2285:
	.loc 1 434 0
	movl	code_data+12(,%rax,8), %ebp
	addl	%r12d, %ebp
.LVL753:
.LBB2256:
.LBB2253:
	.loc 1 426 0
	movslq	%ebp, %rdx
	leaq	16(,%rdx,8), %rcx
.LVL754:
	.loc 1 427 0
	subq	%rcx, %rbx
.LVL755:
	.loc 1 428 0
	cmpq	$frames, %rsi
	jbe	.L565
.LVL756:
.LBE2253:
.LBE2256:
.LBB2257:
.LBB2258:
	.loc 1 1394 0
	cmpl	$-1, %edi
	je	.L566
.LVL757:
	.loc 1 1401 0
	movslq	%edi, %rdi
	movq	%rsi, %r8
	leaq	(%rdi,%rdi,2), %rax
	movq	code_data+16(,%rax,8), %rax
.LVL758:
.L524:
.LBE2258:
.LBE2257:
.LBB2262:
	.loc 1 438 0
	testl	%ebp, %ebp
.LBE2262:
	.loc 1 436 0
	movq	%r8, (%rbx)
	.loc 1 435 0
	movq	%rax, 8(%rbx)
	.loc 1 437 0
	movq	%rbx, frame_pointer(%rip)
.LVL759:
.LBB2271:
	.loc 1 438 0
	jle	.L535
.LBB2263:
.LBB2264:
	.loc 1 462 0
	subq	%rcx, %rsi
	salq	$3, %rdx
	leaq	16(%rsi), %rdi
	xorl	%esi, %esi
	call	memset
.LVL760:
	movq	%rbx, %rax
	salq	$60, %rax
	shrq	$63, %rax
	cmpl	%ebp, %eax
	cmova	%ebp, %eax
	cmpl	$6, %ebp
	movl	%eax, %edx
	movl	%ebp, %eax
	ja	.L567
.L528:
.LVL761:
	cmpl	$1, %eax
.LBE2264:
.LBE2263:
.LBE2271:
.LBB2272:
.LBB2273:
.LBB2274:
	movq	$2, 16(%rbx)
.LVL762:
	jbe	.L542
.LVL763:
	cmpl	$2, %eax
	movq	$2, 24(%rbx)
.LVL764:
	jbe	.L543
.LVL765:
	cmpl	$3, %eax
	movq	$2, 32(%rbx)
.LVL766:
	jbe	.L544
.LVL767:
	cmpl	$4, %eax
	movq	$2, 40(%rbx)
.LVL768:
	jbe	.L545
.LVL769:
	cmpl	$5, %eax
	movq	$2, 48(%rbx)
.LVL770:
	jbe	.L546
.LVL771:
	movq	$2, 56(%rbx)
.LVL772:
.LBE2274:
.LBE2273:
	.loc 1 441 0
	movl	$6, %esi
.LVL773:
.L530:
	cmpl	%eax, %ebp
	je	.L535
.LVL774:
.L529:
	subl	%eax, %ebp
.LVL775:
	movl	%eax, %edx
	movl	%ebp, %ecx
	shrl	%ecx
	movl	%ecx, %edi
	addl	%edi, %edi
	je	.L532
	movdqa	.LC8(%rip), %xmm0
	leaq	16(%rbx,%rdx,8), %rax
.LBE2272:
.LBB2277:
.LBB2268:
.LBB2265:
	.loc 1 462 0
	xorl	%edx, %edx
.L536:
.LVL776:
	addl	$1, %edx
	addq	$16, %rax
.LBE2265:
.LBE2268:
.LBE2277:
.LBB2278:
.LBB2276:
.LBB2275:
	movdqa	%xmm0, -16(%rax)
	cmpl	%edx, %ecx
	ja	.L536
	addl	%edi, %esi
	cmpl	%ebp, %edi
	je	.L535
.LVL777:
.L532:
	movslq	%esi, %rsi
	movq	$2, 16(%rbx,%rsi,8)
.LVL778:
.L535:
.LBE2275:
.LBE2276:
.LBE2278:
.LBE2285:
.LBE2289:
.LBB2290:
	.loc 1 965 0
	leal	-1(%r12), %eax
	xorl	%edx, %edx
	leaq	-8(%r13), %rcx
	cmpl	$1, %r12d
	cmovg	%eax, %edx
.LVL779:
	.p2align 4,,10
	.p2align 3
.L537:
.LBB2291:
.LBB2292:
	.loc 1 400 0
	movq	%rcx, stack_pointer(%rip)
	.loc 1 401 0
	movq	(%rcx), %rdi
.LVL780:
.LBE2292:
.LBE2291:
.LBB2293:
.LBB2294:
	.loc 1 462 0
	movslq	%edx, %rsi
.LBE2294:
.LBE2293:
	.loc 1 965 0
	subl	$1, %edx
.LVL781:
	subq	$8, %rcx
	cmpl	$-1, %edx
.LBB2296:
.LBB2295:
	.loc 1 462 0
	movq	%rdi, 16(%rbx,%rsi,8)
.LBE2295:
.LBE2296:
	.loc 1 965 0
	jne	.L537
	jmp	.L511
.LVL782:
	.p2align 4,,10
	.p2align 3
.L567:
	testl	%edx, %edx
	jne	.L568
.LBE2290:
.LBB2297:
.LBB2286:
.LBB2279:
.LBB2269:
.LBB2266:
	.loc 1 462 0
	xorl	%eax, %eax
.LVL783:
	xorl	%esi, %esi
	.p2align 4,,5
	jmp	.L529
.LVL784:
.L566:
.LBE2266:
.LBE2269:
.LBE2279:
.LBB2280:
.LBB2261:
.LBB2259:
.LBB2260:
	.loc 1 1395 0
	movq	finished_trap(%rip), %rax
	movq	%rsi, %r8
	testq	%rax, %rax
	jne	.L524
	movq	%rsi, 24(%rsp)
	movq	%rcx, 16(%rsp)
	movq	%rdx, 8(%rsp)
	.loc 1 1396 0
	call	make_trap
.LVL785:
	movl	8(%r15), %r12d
.LVL786:
	movq	%rax, finished_trap(%rip)
	movq	frame_pointer(%rip), %r8
	movq	stack_pointer(%rip), %r13
	movq	8(%rsp), %rdx
	movq	16(%rsp), %rcx
	movq	24(%rsp), %rsi
	jmp	.L524
.LVL787:
.L546:
.LBE2260:
.LBE2259:
.LBE2261:
.LBE2280:
.LBB2281:
	.loc 1 441 0
	movl	$5, %esi
	jmp	.L530
.LVL788:
.L545:
	movl	$4, %esi
	jmp	.L530
.LVL789:
.L544:
	movl	$3, %esi
	jmp	.L530
.LVL790:
.L543:
	movl	$2, %esi
	jmp	.L530
.LVL791:
.L542:
	movl	$1, %esi
	jmp	.L530
.LVL792:
.L568:
.LBE2281:
.LBB2282:
.LBB2270:
.LBB2267:
	.loc 1 462 0
	movl	%edx, %eax
.LVL793:
	jmp	.L528
.LVL794:
.L565:
.LBE2267:
.LBE2270:
.LBE2282:
.LBB2283:
.LBB2254:
	.loc 1 428 0
	movl	$__PRETTY_FUNCTION__.4204, %ecx
.LVL795:
	movl	$428, %edx
.LVL796:
	movl	$.LC0, %esi
	movl	$.LC9, %edi
.LVL797:
	call	__assert_fail
.LVL798:
.LBE2254:
.LBE2283:
.LBE2286:
.LBE2297:
	.cfi_endproc
.LFE108:
	.size	exec_call_slot_op, .-exec_call_slot_op
	.p2align 4,,15
	.globl	make_goto
	.type	make_goto, @function
make_goto:
.LFB139:
	.loc 1 1576 0
	.cfi_startproc
	pushq	%rbx
	.cfi_def_cfa_offset 16
	.cfi_offset 3, -16
	.loc 1 1577 0
	movq	code(%rip), %rbx
	testq	%rbx, %rbx
	je	.L573
.L570:
.LVL799:
	.loc 1 1581 0
	movl	$goto_op_end, %edx
.LBB2300:
.LBB2301:
	.loc 3 66 0
	movq	%rbx, %rdi
	movl	$goto_op, %esi
.LBE2301:
.LBE2300:
	.loc 1 1581 0
	subq	$goto_op, %rdx
.LVL800:
.LBB2303:
.LBB2302:
	.loc 3 66 0
	call	mempcpy
.LVL801:
.LBE2302:
.LBE2303:
	.loc 1 1581 0
	movq	%rax, code(%rip)
	.loc 1 1582 0
	movb	$0, (%rax)
	.loc 1 1585 0
	movq	%rbx, %rax
	popq	%rbx
	.cfi_remember_state
	.cfi_def_cfa_offset 8
.LVL802:
	ret
.LVL803:
	.p2align 4,,10
	.p2align 3
.L573:
	.cfi_restore_state
	.loc 1 1578 0
	xorl	%r9d, %r9d
	movl	$-1, %r8d
	movl	$34, %ecx
	movl	$7, %edx
	movl	$1048576, %esi
	xorl	%edi, %edi
	call	mmap
.LVL804:
	movq	%rax, code(%rip)
	movq	%rax, %rbx
	jmp	.L570
	.cfi_endproc
.LFE139:
	.size	make_goto, .-make_goto
	.p2align 4,,15
	.globl	update_goto
	.type	update_goto, @function
update_goto:
.LFB140:
	.loc 1 1587 0
	.cfi_startproc
.LVL805:
	pushq	%rbx
	.cfi_def_cfa_offset 16
	.cfi_offset 3, -16
	subq	$16, %rsp
	.cfi_def_cfa_offset 32
	.loc 1 1589 0
	movslq	hole_len(%rip), %rbx
	movq	hole_str(%rip), %rdx
	.loc 1 1587 0
	movq	%rsi, 8(%rsp)
	.loc 1 1589 0
	movl	$goto_op_end, %esi
.LVL806:
	subq	$goto_op, %rsi
	movq	%rbx, %rcx
	call	memmem
.LVL807:
.LBB2306:
.LBB2307:
	.loc 3 66 0
	leaq	8(%rsp), %rsi
.LVL808:
	movq	%rbx, %rdx
	movq	%rax, %rdi
	call	memcpy
.LVL809:
.LBE2307:
.LBE2306:
	.loc 1 1591 0
	addq	$16, %rsp
	.cfi_def_cfa_offset 16
	popq	%rbx
	.cfi_def_cfa_offset 8
.LVL810:
	ret
	.cfi_endproc
.LFE140:
	.size	update_goto, .-update_goto
	.p2align 4,,15
	.globl	make_branch
	.type	make_branch, @function
make_branch:
.LFB141:
	.loc 1 1595 0
	.cfi_startproc
	pushq	%rbx
	.cfi_def_cfa_offset 16
	.cfi_offset 3, -16
	.loc 1 1596 0
	movq	code(%rip), %rbx
	testq	%rbx, %rbx
	je	.L580
.L577:
.LVL811:
	.loc 1 1600 0
	movl	$branch_op_end, %edx
.LBB2310:
.LBB2311:
	.loc 3 66 0
	movq	%rbx, %rdi
	movl	$branch_op, %esi
.LBE2311:
.LBE2310:
	.loc 1 1600 0
	subq	$branch_op, %rdx
.LVL812:
.LBB2313:
.LBB2312:
	.loc 3 66 0
	call	mempcpy
.LVL813:
.LBE2312:
.LBE2313:
	.loc 1 1600 0
	movq	%rax, code(%rip)
	.loc 1 1601 0
	movb	$0, (%rax)
	.loc 1 1604 0
	movq	%rbx, %rax
	popq	%rbx
	.cfi_remember_state
	.cfi_def_cfa_offset 8
.LVL814:
	ret
.LVL815:
	.p2align 4,,10
	.p2align 3
.L580:
	.cfi_restore_state
	.loc 1 1597 0
	xorl	%r9d, %r9d
	movl	$-1, %r8d
	movl	$34, %ecx
	movl	$7, %edx
	movl	$1048576, %esi
	xorl	%edi, %edi
	call	mmap
.LVL816:
	movq	%rax, code(%rip)
	movq	%rax, %rbx
	jmp	.L577
	.cfi_endproc
.LFE141:
	.size	make_branch, .-make_branch
	.p2align 4,,15
	.globl	update_branch
	.type	update_branch, @function
update_branch:
.LFB142:
	.loc 1 1606 0
	.cfi_startproc
.LVL817:
	pushq	%rbx
	.cfi_def_cfa_offset 16
	.cfi_offset 3, -16
	subq	$16, %rsp
	.cfi_def_cfa_offset 32
	.loc 1 1608 0
	movslq	hole_len(%rip), %rbx
	movq	hole_str(%rip), %rdx
	.loc 1 1606 0
	movq	%rsi, 8(%rsp)
	.loc 1 1608 0
	movl	$branch_op_end, %esi
.LVL818:
	subq	$branch_op, %rsi
	movq	%rbx, %rcx
	call	memmem
.LVL819:
.LBB2316:
.LBB2317:
	.loc 3 66 0
	leaq	8(%rsp), %rsi
.LVL820:
	movq	%rbx, %rdx
	movq	%rax, %rdi
	call	memcpy
.LVL821:
.LBE2317:
.LBE2316:
	.loc 1 1610 0
	addq	$16, %rsp
	.cfi_def_cfa_offset 16
	popq	%rbx
	.cfi_def_cfa_offset 8
.LVL822:
	ret
	.cfi_endproc
.LFE142:
	.size	update_branch, .-update_branch
	.p2align 4,,15
	.globl	make_code_ins
	.type	make_code_ins, @function
make_code_ins:
.LFB143:
	.loc 1 1612 0
	.cfi_startproc
.LVL823:
	pushq	%r15
	.cfi_def_cfa_offset 16
	.cfi_offset 15, -16
	pushq	%r14
	.cfi_def_cfa_offset 24
	.cfi_offset 14, -24
	pushq	%r13
	.cfi_def_cfa_offset 32
	.cfi_offset 13, -32
	pushq	%r12
	.cfi_def_cfa_offset 40
	.cfi_offset 12, -40
	pushq	%rbp
	.cfi_def_cfa_offset 48
	.cfi_offset 6, -48
	movq	%rdi, %rbp
	pushq	%rbx
	.cfi_def_cfa_offset 56
	.cfi_offset 3, -56
	movq	%rsi, %rbx
	subq	$40, %rsp
	.cfi_def_cfa_offset 96
	.loc 1 1616 0
	movl	0(%rbp), %eax
	.loc 1 1614 0
	movq	(%rsi), %rdi
.LVL824:
	.loc 1 1616 0
	cmpl	$16, %eax
	ja	.L584
	movl	%eax, %esi
.LVL825:
	jmp	*.L586(,%rsi,8)
	.section	.rodata
	.align 8
	.align 4
.L586:
	.quad	.L646
	.quad	.L587
	.quad	.L588
	.quad	.L589
	.quad	.L590
	.quad	.L591
	.quad	.L591
	.quad	.L592
	.quad	.L593
	.quad	.L594
	.quad	.L595
	.quad	.L596
	.quad	.L597
	.quad	.L598
	.quad	.L599
	.quad	.L600
	.quad	.L601
	.text
	.p2align 4,,10
	.p2align 3
.L646:
	.loc 1 1618 0
	movl	$-1, %eax
.LVL826:
.L585:
	.loc 1 1767 0
	addq	$40, %rsp
	.cfi_remember_state
	.cfi_def_cfa_offset 56
	popq	%rbx
	.cfi_def_cfa_offset 48
	popq	%rbp
	.cfi_def_cfa_offset 40
	popq	%r12
	.cfi_def_cfa_offset 32
	popq	%r13
	.cfi_def_cfa_offset 24
	popq	%r14
	.cfi_def_cfa_offset 16
	popq	%r15
	.cfi_def_cfa_offset 8
	ret
.LVL827:
	.p2align 4,,10
	.p2align 3
.L587:
	.cfi_restore_state
.LBB2550:
	.loc 1 1621 0
	movl	4(%rbp), %esi
	call	vector_get
.LVL828:
	.loc 1 1622 0
	movl	(%rax), %edx
	testl	%edx, %edx
	jne	.L602
.LVL829:
.LBB2551:
.LBB2552:
.LBB2553:
	.loc 1 1378 0
	movslq	end_code_section(%rip), %rdx
.LVL830:
	.loc 1 1379 0
	leal	1(%rdx), %ecx
	.loc 1 1380 0
	cmpl	$10239, %ecx
	.loc 1 1379 0
	movl	%ecx, end_code_section(%rip)
	.loc 1 1380 0
	jg	.L605
.LBE2553:
.LBE2552:
	.loc 1 1624 0
	leaq	(%rdx,%rdx,2), %rdx
.LVL831:
	.loc 1 1626 0
	movl	4(%rax), %eax
.LVL832:
.LBB2555:
.LBB2556:
	.loc 1 1560 0
	movq	code(%rip), %rbp
.LVL833:
.LBE2556:
.LBE2555:
	.loc 1 1624 0
	salq	$3, %rdx
	leaq	code_data(%rdx), %rbx
.LVL834:
	.loc 1 1626 0
	movl	%eax, code_data+4(%rdx)
.LVL835:
.LBB2567:
.LBB2568:
	.loc 1 1372 0
	movabsq	$-6148914691236517205, %rax
.LBE2568:
.LBE2567:
	.loc 1 1625 0
	movl	$1, code_data(%rdx)
.LBB2570:
.LBB2569:
	.loc 1 1372 0
	subq	$code_data, %rbx
.LVL836:
	sarq	$3, %rbx
.LVL837:
	imulq	%rax, %rbx
.LVL838:
.LBE2569:
.LBE2570:
.LBB2571:
.LBB2565:
	.loc 1 1560 0
	testq	%rbp, %rbp
	je	.L683
.LVL839:
.L604:
	.loc 1 1564 0
	movl	$after_c_trap, %r12d
.LBB2557:
.LBB2558:
	.loc 3 66 0
	movl	$c_trap, %esi
	movq	%rbp, %rdi
.LBE2558:
.LBE2557:
	.loc 1 1564 0
	subq	$c_trap, %r12
.LVL840:
.LBB2560:
.LBB2559:
	.loc 3 66 0
	movq	%r12, %rdx
	call	mempcpy
.LVL841:
.LBE2559:
.LBE2560:
	.loc 1 1564 0
	movq	%rax, code(%rip)
	.loc 1 1565 0
	movb	$0, (%rax)
	.loc 1 1568 0
	movq	%r12, %rsi
	movslq	hole_len(%rip), %r13
	movq	hole_str(%rip), %rdx
	movq	%rbp, %rdi
	.loc 1 1569 0
	movslq	%ebx, %r12
.LVL842:
	.loc 1 1568 0
	movq	%r13, %rcx
	call	memmem
.LVL843:
.LBB2561:
.LBB2562:
	.loc 3 66 0
	leaq	24(%rsp), %rsi
	movq	%r13, %rdx
	movq	%rax, %rdi
.LBE2562:
.LBE2561:
	.loc 1 1569 0
	movq	%r12, 24(%rsp)
.LVL844:
.LBB2564:
.LBB2563:
	.loc 3 66 0
	call	memcpy
.LVL845:
.LBE2563:
.LBE2564:
.LBE2565:
.LBE2571:
.LBB2572:
.LBB2573:
	.loc 1 1421 0
	leaq	(%r12,%r12,2), %rax
	movq	%rbp, code_data+16(,%rax,8)
.LVL846:
.LBE2573:
.LBE2572:
	.loc 1 1628 0
	movl	%ebx, %eax
	jmp	.L585
.LVL847:
	.p2align 4,,10
	.p2align 3
.L588:
.LBE2551:
.LBE2550:
.LBB2601:
.LBB2602:
.LBB2603:
	.loc 1 1378 0
	movslq	end_code_section(%rip), %rax
.LVL848:
	.loc 1 1379 0
	leal	1(%rax), %edx
.LVL849:
	.loc 1 1380 0
	cmpl	$10239, %edx
	.loc 1 1379 0
	movl	%edx, end_code_section(%rip)
	.loc 1 1380 0
	jg	.L605
.LBE2603:
.LBE2602:
	.loc 1 1640 0
	movl	4(%rbp), %esi
	.loc 1 1638 0
	leaq	(%rax,%rax,2), %r15
	salq	$3, %r15
	.loc 1 1640 0
	call	vector_get
.LVL850:
.LBB2604:
.LBB2605:
	.loc 1 1355 0
	movq	strs(%rip), %rdi
.LBE2605:
.LBE2604:
	.loc 1 1638 0
	leaq	code_data(%r15), %r14
.LVL851:
	.loc 1 1640 0
	movq	%rax, %r13
.LVL852:
.LBB2610:
.LBB2607:
	.loc 1 1355 0
	testq	%rdi, %rdi
	je	.L684
.LVL853:
.L607:
.LBB2606:
	.loc 1 1358 0
	movl	(%rdi), %eax
	testl	%eax, %eax
	jle	.L608
	xorl	%ebx, %ebx
.LVL854:
	jmp	.L610
.LVL855:
	.p2align 4,,10
	.p2align 3
.L685:
	movq	strs(%rip), %rdi
	addl	$1, %ebx
.LVL856:
	cmpl	(%rdi), %ebx
	jge	.L608
.LVL857:
.L610:
	.loc 1 1359 0
	movq	8(%r13), %r12
	movl	%ebx, %esi
	call	vector_get
.LVL858:
	cmpq	%rax, %r12
	jne	.L685
.LVL859:
.L609:
.LBE2606:
.LBE2607:
.LBE2610:
	.loc 1 1641 0
	movl	8(%rbp), %eax
	.loc 1 1640 0
	movl	%ebx, 4(%r14)
	.loc 1 1641 0
	movl	%eax, 8(%r14)
	.loc 1 1642 0
	movl	$2, code_data(%r15)
.LVL860:
	jmp	.L682
.LVL861:
	.p2align 4,,10
	.p2align 3
.L589:
.LBE2601:
.LBB2613:
.LBB2614:
.LBB2615:
	.loc 1 1378 0
	movslq	end_code_section(%rip), %rax
.LVL862:
	.loc 1 1379 0
	leal	1(%rax), %edx
.LVL863:
	.loc 1 1380 0
	cmpl	$10239, %edx
	.loc 1 1379 0
	movl	%edx, end_code_section(%rip)
	.loc 1 1380 0
	jg	.L605
.LBE2615:
.LBE2614:
	.loc 1 1653 0
	leaq	(%rax,%rax,2), %r14
	salq	$3, %r14
	.loc 1 1654 0
	movl	$3, code_data(%r14)
.LVL864:
.L680:
.LBE2613:
.LBB2616:
.LBB2617:
.LBB2618:
	.loc 1 1560 0
	movq	code(%rip), %rbx
.LBE2618:
.LBE2617:
.LBB2629:
.LBB2630:
	.loc 1 1372 0
	sarq	$3, %r14
	movabsq	$-6148914691236517205, %rax
	imulq	%rax, %r14
.LVL865:
.LBE2630:
.LBE2629:
.LBB2632:
.LBB2627:
	.loc 1 1560 0
	testq	%rbx, %rbx
	je	.L686
.L631:
.LVL866:
	.loc 1 1564 0
	movl	$after_c_trap, %ebp
.LVL867:
.LBB2619:
.LBB2620:
	.loc 3 66 0
	movq	%rbx, %rdi
	movl	$c_trap, %esi
.LBE2620:
.LBE2619:
	.loc 1 1564 0
	subq	$c_trap, %rbp
.LVL868:
.LBB2622:
.LBB2621:
	.loc 3 66 0
	movq	%rbp, %rdx
	call	mempcpy
.LVL869:
.LBE2621:
.LBE2622:
	.loc 1 1564 0
	movq	%rax, code(%rip)
	.loc 1 1565 0
	movb	$0, (%rax)
	.loc 1 1568 0
	movq	%rbp, %rsi
	movslq	hole_len(%rip), %r12
	movq	hole_str(%rip), %rdx
	movq	%rbx, %rdi
	.loc 1 1569 0
	movslq	%r14d, %rbp
.LVL870:
	.loc 1 1568 0
	movq	%r12, %rcx
	call	memmem
.LVL871:
.LBB2623:
.LBB2624:
	.loc 3 66 0
	leaq	24(%rsp), %rsi
	movq	%r12, %rdx
	movq	%rax, %rdi
.LBE2624:
.LBE2623:
	.loc 1 1569 0
	movq	%rbp, 24(%rsp)
.LVL872:
.LBB2626:
.LBB2625:
	.loc 3 66 0
	call	memcpy
.LVL873:
.LBE2625:
.LBE2626:
.LBE2627:
.LBE2632:
.LBB2633:
.LBB2634:
	.loc 1 1421 0
	leaq	0(%rbp,%rbp,2), %rax
	movq	%rbx, code_data+16(,%rax,8)
.LVL874:
.LBE2634:
.LBE2633:
.LBE2616:
	.loc 1 1767 0
	addq	$40, %rsp
	.cfi_remember_state
	.cfi_def_cfa_offset 56
.LBB2639:
	.loc 1 1702 0
	movl	%r14d, %eax
.LBE2639:
	.loc 1 1767 0
	popq	%rbx
	.cfi_def_cfa_offset 48
.LVL875:
	popq	%rbp
	.cfi_def_cfa_offset 40
.LVL876:
	popq	%r12
	.cfi_def_cfa_offset 32
.LVL877:
	popq	%r13
	.cfi_def_cfa_offset 24
	popq	%r14
	.cfi_def_cfa_offset 16
.LVL878:
	popq	%r15
	.cfi_def_cfa_offset 8
	ret
.LVL879:
	.p2align 4,,10
	.p2align 3
.L590:
	.cfi_restore_state
.LBB2640:
.LBB2641:
.LBB2642:
	.loc 1 1378 0
	movslq	end_code_section(%rip), %rax
.LVL880:
	.loc 1 1379 0
	leal	1(%rax), %edx
.LVL881:
	.loc 1 1380 0
	cmpl	$10239, %edx
	.loc 1 1379 0
	movl	%edx, end_code_section(%rip)
	.loc 1 1380 0
	jg	.L605
.LBE2642:
.LBE2641:
	.loc 1 1666 0
	leaq	(%rax,%rax,2), %r15
	.loc 1 1668 0
	movl	4(%rbp), %esi
	movq	%r8, %r12
	.loc 1 1666 0
	salq	$3, %r15
	leaq	code_data(%r15), %rax
.LVL882:
	movq	%rax, (%rsp)
.LVL883:
	.loc 1 1668 0
	call	vector_get
.LVL884:
.LBB2643:
.LBB2644:
	.loc 1 1304 0
	movq	v.4562(%rip), %rdi
.LBE2644:
.LBE2643:
	.loc 1 1668 0
	movq	%rax, %r13
.LVL885:
.LBB2650:
.LBB2647:
	.loc 1 1304 0
	testq	%rdi, %rdi
	je	.L687
.LVL886:
.L615:
.LBB2645:
	.loc 1 1305 0
	movl	(%rdi), %eax
	xorl	%r14d, %r14d
	testl	%eax, %eax
	jg	.L670
	jmp	.L619
.LVL887:
	.p2align 4,,10
	.p2align 3
.L618:
	movq	v.4562(%rip), %rdi
	addl	$1, %r14d
.LVL888:
	cmpl	(%rdi), %r14d
	jge	.L619
.LVL889:
.L670:
.LBB2646:
	.loc 1 1306 0
	movl	%r14d, %esi
	call	vector_get
.LVL890:
	.loc 1 1307 0
	cmpq	8(%rax), %r13
	jne	.L618
	.loc 1 1308 0
	movl	(%rax), %edi
.LVL891:
.L617:
.LBE2646:
.LBE2645:
.LBE2647:
.LBE2650:
	.loc 1 1668 0
	movq	(%rsp), %r14
	.loc 1 1669 0
	movl	0(%rbp), %eax
	.loc 1 1668 0
	movl	%edi, 4(%r14)
.LBB2651:
.LBB2652:
	.loc 1 1372 0
	subq	$code_data, %r14
.LBE2652:
.LBE2651:
	.loc 1 1669 0
	movl	%eax, code_data(%r15)
.LBB2655:
.LBB2653:
	.loc 1 1372 0
	sarq	$3, %r14
.LBE2653:
.LBE2655:
	.loc 1 1671 0
	call	make_object
.LVL892:
.LBB2656:
.LBB2654:
	.loc 1 1372 0
	movabsq	$-6148914691236517205, %rdx
	imulq	%rdx, %r14
.LVL893:
.LBE2654:
.LBE2656:
.LBB2657:
.LBB2658:
	.loc 1 1421 0
	movslq	%r14d, %rdx
	leaq	(%rdx,%rdx,2), %rdx
	movq	%rax, code_data+16(,%rdx,8)
.LVL894:
.LBE2658:
.LBE2657:
	.loc 1 1672 0
	movl	%r14d, %eax
.LVL895:
	jmp	.L585
.LVL896:
	.p2align 4,,10
	.p2align 3
.L591:
.LBE2640:
.LBB2661:
.LBB2662:
.LBB2663:
	.loc 1 1378 0
	movslq	end_code_section(%rip), %rdx
.LVL897:
	.loc 1 1379 0
	leal	1(%rdx), %ecx
.LVL898:
	.loc 1 1380 0
	cmpl	$10239, %ecx
	.loc 1 1379 0
	movl	%ecx, end_code_section(%rip)
	.loc 1 1380 0
	jg	.L605
.LBE2663:
.LBE2662:
	.loc 1 1677 0
	leaq	(%rdx,%rdx,2), %rdx
.LVL899:
	.loc 1 1680 0
	movl	4(%rbp), %esi
	.loc 1 1677 0
	salq	$3, %rdx
	leaq	code_data(%rdx), %r12
.LVL900:
	.loc 1 1679 0
	movl	%eax, code_data(%rdx)
	.loc 1 1680 0
	call	vector_get
.LVL901:
.LBB2664:
.LBB2665:
	.loc 1 1355 0
	movq	strs(%rip), %rdi
.LBE2665:
.LBE2664:
	.loc 1 1680 0
	movq	%rax, %r13
.LVL902:
.LBB2670:
.LBB2667:
	.loc 1 1355 0
	testq	%rdi, %rdi
	je	.L688
.LVL903:
.L621:
.LBB2666:
	.loc 1 1358 0
	movl	(%rdi), %eax
	testl	%eax, %eax
	jle	.L622
	xorl	%ebx, %ebx
.LVL904:
	jmp	.L624
.LVL905:
	.p2align 4,,10
	.p2align 3
.L689:
	movq	strs(%rip), %rdi
	addl	$1, %ebx
.LVL906:
	cmpl	(%rdi), %ebx
	jge	.L622
.LVL907:
.L624:
	.loc 1 1359 0
	movq	8(%r13), %rbp
	movl	%ebx, %esi
	call	vector_get
.LVL908:
	cmpq	%rax, %rbp
	jne	.L689
.LVL909:
.L623:
.LBE2666:
.LBE2667:
.LBE2670:
	.loc 1 1680 0
	movl	%ebx, 4(%r12)
.LVL910:
.LBB2671:
.LBB2672:
	.loc 1 1560 0
	movq	code(%rip), %rbx
.LBE2672:
.LBE2671:
.LBB2683:
.LBB2684:
	.loc 1 1372 0
	subq	$code_data, %r12
.LVL911:
	sarq	$3, %r12
.LVL912:
	movabsq	$-6148914691236517205, %rax
	imulq	%rax, %r12
.LVL913:
.LBE2684:
.LBE2683:
.LBB2685:
.LBB2681:
	.loc 1 1560 0
	testq	%rbx, %rbx
	je	.L690
.L625:
.LVL914:
	.loc 1 1564 0
	movl	$after_c_trap, %ebp
.LBB2673:
.LBB2674:
	.loc 3 66 0
	movl	$c_trap, %esi
	movq	%rbx, %rdi
.LBE2674:
.LBE2673:
	.loc 1 1564 0
	subq	$c_trap, %rbp
.LVL915:
.LBB2676:
.LBB2675:
	.loc 3 66 0
	movq	%rbp, %rdx
	call	mempcpy
.LVL916:
.LBE2675:
.LBE2676:
	.loc 1 1564 0
	movq	%rax, code(%rip)
	.loc 1 1565 0
	movb	$0, (%rax)
	.loc 1 1568 0
	movq	%rbp, %rsi
	movslq	hole_len(%rip), %r13
.LVL917:
	movq	hole_str(%rip), %rdx
	movq	%rbx, %rdi
	.loc 1 1569 0
	movslq	%r12d, %rbp
.LVL918:
	.loc 1 1568 0
	movq	%r13, %rcx
	call	memmem
.LVL919:
.LBB2677:
.LBB2678:
	.loc 3 66 0
	leaq	24(%rsp), %rsi
	movq	%r13, %rdx
	movq	%rax, %rdi
.LBE2678:
.LBE2677:
	.loc 1 1569 0
	movq	%rbp, 24(%rsp)
.LVL920:
.LBB2680:
.LBB2679:
	.loc 3 66 0
	call	memcpy
.LVL921:
.LBE2679:
.LBE2680:
.LBE2681:
.LBE2685:
.LBB2686:
.LBB2687:
	.loc 1 1421 0
	leaq	0(%rbp,%rbp,2), %rax
	movq	%rbx, code_data+16(,%rax,8)
.LVL922:
.LBE2687:
.LBE2686:
	.loc 1 1682 0
	movl	%r12d, %eax
	jmp	.L585
.LVL923:
	.p2align 4,,10
	.p2align 3
.L592:
.LBE2661:
.LBB2691:
.LBB2692:
.LBB2693:
	.loc 1 1378 0
	movslq	end_code_section(%rip), %rax
.LVL924:
	.loc 1 1379 0
	leal	1(%rax), %edx
.LVL925:
	.loc 1 1380 0
	cmpl	$10239, %edx
	.loc 1 1379 0
	movl	%edx, end_code_section(%rip)
	.loc 1 1380 0
	jg	.L605
.LBE2693:
.LBE2692:
	.loc 1 1685 0
	leaq	(%rax,%rax,2), %rax
.LVL926:
	.loc 1 1688 0
	movl	4(%rbp), %esi
	.loc 1 1685 0
	salq	$3, %rax
	leaq	code_data(%rax), %r13
.LVL927:
	.loc 1 1687 0
	movl	$7, code_data(%rax)
	.loc 1 1688 0
	call	vector_get
.LVL928:
.LBB2694:
.LBB2695:
	.loc 1 1355 0
	movq	strs(%rip), %rdi
.LBE2695:
.LBE2694:
	.loc 1 1688 0
	movq	%rax, %r14
.LVL929:
.LBB2700:
.LBB2697:
	.loc 1 1355 0
	testq	%rdi, %rdi
	je	.L691
.LVL930:
.L626:
.LBB2696:
	.loc 1 1358 0
	movl	(%rdi), %eax
	testl	%eax, %eax
	jle	.L627
	xorl	%ebx, %ebx
.LVL931:
	jmp	.L629
.LVL932:
	.p2align 4,,10
	.p2align 3
.L692:
	movq	strs(%rip), %rdi
	addl	$1, %ebx
.LVL933:
	cmpl	(%rdi), %ebx
	jge	.L627
.LVL934:
.L629:
	.loc 1 1359 0
	movq	8(%r14), %r12
	movl	%ebx, %esi
	call	vector_get
.LVL935:
	cmpq	%rax, %r12
	jne	.L692
.LVL936:
.L628:
.LBE2696:
.LBE2697:
.LBE2700:
	.loc 1 1689 0
	movl	8(%rbp), %eax
	.loc 1 1688 0
	movl	%ebx, 4(%r13)
.LBB2701:
.LBB2702:
	.loc 1 1560 0
	movq	code(%rip), %rbx
.LBE2702:
.LBE2701:
	.loc 1 1689 0
	movl	%eax, 8(%r13)
.LVL937:
.LBB2713:
.LBB2714:
	.loc 1 1372 0
	subq	$code_data, %r13
.LVL938:
	movabsq	$-6148914691236517205, %rax
	sarq	$3, %r13
.LVL939:
	imulq	%rax, %r13
.LVL940:
.LBE2714:
.LBE2713:
.LBB2715:
.LBB2711:
	.loc 1 1560 0
	testq	%rbx, %rbx
	je	.L693
.L630:
.LVL941:
	.loc 1 1564 0
	movl	$after_c_trap, %ebp
.LVL942:
.LBB2703:
.LBB2704:
	.loc 3 66 0
	movl	$c_trap, %esi
	movq	%rbx, %rdi
.LBE2704:
.LBE2703:
	.loc 1 1564 0
	subq	$c_trap, %rbp
.LVL943:
.LBB2706:
.LBB2705:
	.loc 3 66 0
	movq	%rbp, %rdx
	call	mempcpy
.LVL944:
.LBE2705:
.LBE2706:
	.loc 1 1564 0
	movq	%rax, code(%rip)
	.loc 1 1565 0
	movb	$0, (%rax)
	.loc 1 1568 0
	movq	%rbp, %rsi
	movslq	hole_len(%rip), %r12
	movq	hole_str(%rip), %rdx
	movq	%rbx, %rdi
	.loc 1 1569 0
	movslq	%r13d, %rbp
.LVL945:
	.loc 1 1568 0
	movq	%r12, %rcx
	call	memmem
.LVL946:
.LBB2707:
.LBB2708:
	.loc 3 66 0
	leaq	24(%rsp), %rsi
	movq	%r12, %rdx
	movq	%rax, %rdi
.LBE2708:
.LBE2707:
	.loc 1 1569 0
	movq	%rbp, 24(%rsp)
.LVL947:
.LBB2710:
.LBB2709:
	.loc 3 66 0
	call	memcpy
.LVL948:
.LBE2709:
.LBE2710:
.LBE2711:
.LBE2715:
.LBB2716:
.LBB2717:
	.loc 1 1421 0
	leaq	0(%rbp,%rbp,2), %rax
	movq	%rbx, code_data+16(,%rax,8)
.LVL949:
.LBE2717:
.LBE2716:
	.loc 1 1691 0
	movl	%r13d, %eax
	jmp	.L585
.LVL950:
	.p2align 4,,10
	.p2align 3
.L593:
.LBE2691:
.LBB2721:
.LBB2635:
.LBB2636:
	.loc 1 1378 0
	movslq	end_code_section(%rip), %rax
.LVL951:
	.loc 1 1379 0
	leal	1(%rax), %edx
.LVL952:
	.loc 1 1380 0
	cmpl	$10239, %edx
	.loc 1 1379 0
	movl	%edx, end_code_section(%rip)
	.loc 1 1380 0
	jg	.L605
.LBE2636:
.LBE2635:
	.loc 1 1694 0
	leaq	(%rax,%rax,2), %rax
.LVL953:
	.loc 1 1700 0
	movq	%rcx, %rdi
.LVL954:
	.loc 1 1694 0
	salq	$3, %rax
	leaq	code_data(%rax), %r14
.LVL955:
	.loc 1 1696 0
	movl	$8, code_data(%rax)
	.loc 1 1697 0
	movl	8(%rbp), %eax
	.loc 1 1700 0
	movq	%r14, %rsi
	.loc 1 1697 0
	movl	%eax, 8(%r14)
	.loc 1 1698 0
	movl	4(%rbp), %eax
	movl	%eax, 4(%r14)
	.loc 1 1700 0
	call	vector_add
.LVL956:
.L682:
.LBB2637:
.LBB2631:
	.loc 1 1372 0
	subq	$code_data, %r14
	jmp	.L680
.LVL957:
	.p2align 4,,10
	.p2align 3
.L594:
.LBE2631:
.LBE2637:
.LBE2721:
.LBB2722:
.LBB2723:
.LBB2724:
	.loc 1 1378 0
	movslq	end_code_section(%rip), %rax
.LVL958:
	.loc 1 1379 0
	leal	1(%rax), %edx
.LVL959:
	.loc 1 1380 0
	cmpl	$10239, %edx
	.loc 1 1379 0
	movl	%edx, end_code_section(%rip)
	.loc 1 1380 0
	jg	.L605
.LBE2724:
.LBE2723:
	.loc 1 1715 0
	leaq	(%rax,%rax,2), %rax
.LVL960:
	.loc 1 1718 0
	movslq	4(%rbp), %r13
.LBB2725:
.LBB2726:
	.loc 1 1543 0
	movq	code(%rip), %rbx
.LVL961:
.LBE2726:
.LBE2725:
	.loc 1 1715 0
	salq	$3, %rax
	leaq	code_data(%rax), %r12
.LVL962:
.LBB2738:
.LBB2735:
	.loc 1 1543 0
	testq	%rbx, %rbx
.LBE2735:
.LBE2738:
	.loc 1 1717 0
	movl	$9, code_data(%rax)
	.loc 1 1718 0
	movl	%r13d, 4(%r12)
.LVL963:
.LBB2739:
.LBB2736:
	.loc 1 1543 0
	je	.L694
.LVL964:
.L633:
	.loc 1 1547 0
	movl	$set_local_op_end, %ebp
.LVL965:
.LBB2727:
.LBB2728:
	.loc 3 66 0
	movl	$set_local_op, %esi
.LBE2728:
.LBE2727:
	.loc 1 1547 0
	subq	$set_local_op, %rbp
.LVL966:
.LBB2730:
.LBB2729:
	.loc 3 66 0
	movq	%rbp, %rdx
.LVL967:
.L677:
	movq	%rbx, %rdi
	call	mempcpy
.LVL968:
.LBE2729:
.LBE2730:
	.loc 1 1547 0
	movq	%rax, code(%rip)
	.loc 1 1548 0
	movb	$0, (%rax)
	.loc 1 1551 0
	movq	%rbp, %rsi
	movslq	hole_len(%rip), %r14
	movq	hole_str(%rip), %rdx
	movq	%rbx, %rdi
	movq	%r14, %rcx
	call	memmem
.LVL969:
.LBB2731:
.LBB2732:
	.loc 3 66 0
	leaq	24(%rsp), %rsi
	movq	%r14, %rdx
	movq	%rax, %rdi
.LBE2732:
.LBE2731:
	.loc 1 1552 0
	movq	%r13, 24(%rsp)
.LVL970:
.LBB2734:
.LBB2733:
	.loc 3 66 0
	call	memcpy
.LVL971:
.L675:
.LBE2733:
.LBE2734:
.LBE2736:
.LBE2739:
.LBE2722:
.LBB2741:
.LBB2742:
.LBB2743:
	.loc 1 1372 0
	movq	%r12, %rax
.L673:
	subq	$code_data, %rax
	movabsq	$-6148914691236517205, %rdx
	sarq	$3, %rax
	imulq	%rdx, %rax
.LVL972:
.LBE2743:
.LBE2742:
.LBB2744:
.LBB2745:
	.loc 1 1421 0
	movslq	%eax, %rdx
	leaq	(%rdx,%rdx,2), %rdx
	movq	%rbx, code_data+16(,%rdx,8)
.LVL973:
.LBE2745:
.LBE2744:
.LBE2741:
	.loc 1 1767 0
	addq	$40, %rsp
	.cfi_remember_state
	.cfi_def_cfa_offset 56
	popq	%rbx
	.cfi_def_cfa_offset 48
	popq	%rbp
	.cfi_def_cfa_offset 40
	popq	%r12
	.cfi_def_cfa_offset 32
	popq	%r13
	.cfi_def_cfa_offset 24
	popq	%r14
	.cfi_def_cfa_offset 16
	popq	%r15
	.cfi_def_cfa_offset 8
	ret
.LVL974:
	.p2align 4,,10
	.p2align 3
.L595:
	.cfi_restore_state
.LBB2758:
.LBB2759:
.LBB2760:
	.loc 1 1378 0
	movslq	end_code_section(%rip), %rax
.LVL975:
	.loc 1 1379 0
	leal	1(%rax), %edx
.LVL976:
	.loc 1 1380 0
	cmpl	$10239, %edx
	.loc 1 1379 0
	movl	%edx, end_code_section(%rip)
	.loc 1 1380 0
	jg	.L605
.LBE2760:
.LBE2759:
	.loc 1 1706 0
	leaq	(%rax,%rax,2), %rax
.LVL977:
	.loc 1 1709 0
	movslq	4(%rbp), %r13
.LBB2761:
.LBB2762:
	.loc 1 1526 0
	movq	code(%rip), %rbx
.LVL978:
.LBE2762:
.LBE2761:
	.loc 1 1706 0
	salq	$3, %rax
	leaq	code_data(%rax), %r12
.LVL979:
.LBB2770:
.LBB2767:
	.loc 1 1526 0
	testq	%rbx, %rbx
.LBE2767:
.LBE2770:
	.loc 1 1708 0
	movl	$10, code_data(%rax)
	.loc 1 1709 0
	movl	%r13d, 4(%r12)
.LVL980:
.LBB2771:
.LBB2768:
	.loc 1 1526 0
	je	.L695
.LVL981:
.L632:
	.loc 1 1530 0
	movl	$get_local_op_end, %ebp
.LVL982:
.LBB2763:
.LBB2764:
	.loc 3 66 0
	movl	$get_local_op, %esi
.LBE2764:
.LBE2763:
	.loc 1 1530 0
	subq	$get_local_op, %rbp
.LVL983:
.LBB2766:
.LBB2765:
	.loc 3 66 0
	movq	%rbp, %rdx
	jmp	.L677
.LVL984:
	.p2align 4,,10
	.p2align 3
.L596:
.LBE2765:
.LBE2766:
.LBE2768:
.LBE2771:
.LBE2758:
.LBB2773:
.LBB2774:
.LBB2775:
	.loc 1 1378 0
	movslq	end_code_section(%rip), %rax
.LVL985:
	.loc 1 1379 0
	leal	1(%rax), %edx
.LVL986:
	.loc 1 1380 0
	cmpl	$10239, %edx
	.loc 1 1379 0
	movl	%edx, end_code_section(%rip)
	.loc 1 1380 0
	jg	.L605
.LBE2775:
.LBE2774:
	.loc 1 1733 0
	leaq	(%rax,%rax,2), %rax
.LVL987:
	.loc 1 1736 0
	movl	4(%rbp), %r13d
.LBB2776:
.LBB2777:
.LBB2778:
	.loc 1 1233 0
	movq	8(%rbx), %rdi
.LVL988:
.LBE2778:
	.loc 1 1232 0
	xorl	%r12d, %r12d
.LBB2780:
	.loc 1 1233 0
	xorl	%ebp, %ebp
.LVL989:
.LBE2780:
.LBE2777:
.LBE2776:
	.loc 1 1733 0
	salq	$3, %rax
	leaq	code_data(%rax), %r14
.LVL990:
	.loc 1 1735 0
	movl	$11, code_data(%rax)
	jmp	.L643
.LVL991:
	.p2align 4,,10
	.p2align 3
.L639:
.LBB2783:
.LBB2782:
.LBB2781:
	.loc 1 1233 0
	movq	8(%rbx), %rdi
	addl	$1, %ebp
.LVL992:
.L643:
.LBB2779:
	.loc 1 1234 0
	movl	%ebp, %esi
	call	vector_get
.LVL993:
	.loc 1 1235 0
	movq	(%rbx), %rdi
	movl	%eax, %esi
	call	vector_get
.LVL994:
	.loc 1 1236 0
	cmpl	$4, (%rax)
	jne	.L639
.LVL995:
	.loc 1 1240 0
	cmpl	4(%rax), %r13d
	je	.L696
	.loc 1 1243 0
	addl	$1, %r12d
.LVL996:
	jmp	.L639
.LVL997:
	.p2align 4,,10
	.p2align 3
.L597:
.LBE2779:
.LBE2781:
.LBE2782:
.LBE2783:
.LBE2773:
.LBB2812:
.LBB2813:
.LBB2814:
	.loc 1 1378 0
	movslq	end_code_section(%rip), %rax
.LVL998:
	.loc 1 1379 0
	leal	1(%rax), %edx
.LVL999:
	.loc 1 1380 0
	cmpl	$10239, %edx
	.loc 1 1379 0
	movl	%edx, end_code_section(%rip)
	.loc 1 1380 0
	jg	.L605
.LBE2814:
.LBE2813:
	.loc 1 1724 0
	leaq	(%rax,%rax,2), %rax
.LVL1000:
	.loc 1 1727 0
	movl	4(%rbp), %r13d
.LBB2815:
.LBB2816:
.LBB2817:
	.loc 1 1233 0
	movq	8(%rbx), %rdi
.LVL1001:
.LBE2817:
	.loc 1 1232 0
	xorl	%r12d, %r12d
.LBB2819:
	.loc 1 1233 0
	xorl	%ebp, %ebp
.LVL1002:
.LBE2819:
.LBE2816:
.LBE2815:
	.loc 1 1724 0
	salq	$3, %rax
	leaq	code_data(%rax), %r14
.LVL1003:
	.loc 1 1726 0
	movl	$12, code_data(%rax)
	jmp	.L638
.LVL1004:
	.p2align 4,,10
	.p2align 3
.L634:
.LBB2822:
.LBB2821:
.LBB2820:
	.loc 1 1233 0
	movq	8(%rbx), %rdi
	addl	$1, %ebp
.LVL1005:
.L638:
.LBB2818:
	.loc 1 1234 0
	movl	%ebp, %esi
	call	vector_get
.LVL1006:
	.loc 1 1235 0
	movq	(%rbx), %rdi
	movl	%eax, %esi
	call	vector_get
.LVL1007:
	.loc 1 1236 0
	cmpl	$4, (%rax)
	jne	.L634
.LVL1008:
	.loc 1 1240 0
	cmpl	4(%rax), %r13d
	je	.L697
	.loc 1 1243 0
	addl	$1, %r12d
.LVL1009:
	jmp	.L634
.LVL1010:
	.p2align 4,,10
	.p2align 3
.L598:
.LBE2818:
.LBE2820:
.LBE2821:
.LBE2822:
.LBE2812:
.LBB2833:
.LBB2834:
.LBB2835:
	.loc 1 1378 0
	movslq	end_code_section(%rip), %rax
.LVL1011:
	.loc 1 1379 0
	leal	1(%rax), %ecx
.LVL1012:
	.loc 1 1380 0
	cmpl	$10239, %ecx
	.loc 1 1379 0
	movl	%ecx, end_code_section(%rip)
	.loc 1 1380 0
	jg	.L605
.LBE2835:
.LBE2834:
	.loc 1 1744 0
	leaq	(%rax,%rax,2), %rax
.LVL1013:
	.loc 1 1748 0
	movq	%rdx, %rdi
.LVL1014:
	.loc 1 1744 0
	salq	$3, %rax
	leaq	code_data(%rax), %r12
.LVL1015:
	.loc 1 1746 0
	movl	$13, code_data(%rax)
	.loc 1 1747 0
	movl	4(%rbp), %eax
	.loc 1 1748 0
	movq	%r12, %rsi
	.loc 1 1747 0
	movl	%eax, 4(%r12)
	.loc 1 1748 0
	call	vector_add
.LVL1016:
.LBB2836:
.LBB2837:
	.loc 1 1596 0
	movq	code(%rip), %rbx
.LVL1017:
	testq	%rbx, %rbx
	je	.L698
.L644:
.LVL1018:
	.loc 1 1600 0
	movl	$branch_op_end, %edx
.LBB2838:
.LBB2839:
	.loc 3 66 0
	movl	$branch_op, %esi
.LBE2839:
.LBE2838:
	.loc 1 1600 0
	subq	$branch_op, %rdx
.LVL1019:
.L672:
.LBE2837:
.LBE2836:
.LBE2833:
.LBB2842:
.LBB2746:
.LBB2747:
.LBB2748:
.LBB2749:
	.loc 3 66 0
	movq	%rbx, %rdi
	call	mempcpy
.LVL1020:
.LBE2749:
.LBE2748:
	.loc 1 1581 0
	movq	%rax, code(%rip)
	.loc 1 1582 0
	movb	$0, (%rax)
	jmp	.L675
.LVL1021:
	.p2align 4,,10
	.p2align 3
.L600:
.LBE2747:
.LBE2746:
.LBE2842:
.LBB2843:
.LBB2844:
.LBB2845:
	.loc 1 1378 0
	movslq	end_code_section(%rip), %rax
.LVL1022:
	.loc 1 1379 0
	leal	1(%rax), %edx
.LVL1023:
	.loc 1 1380 0
	cmpl	$10239, %edx
	.loc 1 1379 0
	movl	%edx, end_code_section(%rip)
	.loc 1 1380 0
	jg	.L605
.LBE2845:
.LBE2844:
.LBB2846:
.LBB2847:
	.loc 1 1468 0
	movq	code(%rip), %rbx
.LVL1024:
.LBE2847:
.LBE2846:
	.loc 1 1659 0
	leaq	(%rax,%rax,2), %rdx
	salq	$3, %rdx
.LBB2855:
.LBB2852:
	.loc 1 1468 0
	testq	%rbx, %rbx
.LBE2852:
.LBE2855:
	.loc 1 1659 0
	leaq	code_data(%rdx), %rbp
.LVL1025:
	.loc 1 1660 0
	movl	$15, code_data(%rdx)
.LBB2856:
.LBB2853:
	.loc 1 1468 0
	je	.L699
.LVL1026:
.L614:
	.loc 1 1472 0
	movl	$return_op_end, %edx
.LBB2848:
.LBB2849:
	.loc 3 66 0
	movl	$return_op, %esi
.LBE2849:
.LBE2848:
	.loc 1 1472 0
	subq	$return_op, %rdx
.LVL1027:
.L678:
.LBB2851:
.LBB2850:
	.loc 3 66 0
	movq	%rbx, %rdi
	call	mempcpy
.LVL1028:
.LBE2850:
.LBE2851:
	.loc 1 1472 0
	movq	%rax, code(%rip)
	.loc 1 1473 0
	movb	$0, (%rax)
.LVL1029:
.LBE2853:
.LBE2856:
.LBB2857:
.LBB2858:
	.loc 1 1372 0
	movq	%rbp, %rax
	jmp	.L673
.LVL1030:
	.p2align 4,,10
	.p2align 3
.L601:
.LBE2858:
.LBE2857:
.LBE2843:
.LBB2860:
.LBB2861:
.LBB2862:
	.loc 1 1378 0
	movslq	end_code_section(%rip), %rax
.LVL1031:
	.loc 1 1379 0
	leal	1(%rax), %edx
.LVL1032:
	.loc 1 1380 0
	cmpl	$10239, %edx
	.loc 1 1379 0
	movl	%edx, end_code_section(%rip)
	.loc 1 1380 0
	jg	.L605
.LBE2862:
.LBE2861:
.LBB2863:
.LBB2864:
	.loc 1 1480 0
	movq	code(%rip), %rbx
.LVL1033:
.LBE2864:
.LBE2863:
	.loc 1 1647 0
	leaq	(%rax,%rax,2), %rdx
	salq	$3, %rdx
.LBB2870:
.LBB2867:
	.loc 1 1480 0
	testq	%rbx, %rbx
.LBE2867:
.LBE2870:
	.loc 1 1647 0
	leaq	code_data(%rdx), %rbp
.LVL1034:
	.loc 1 1648 0
	movl	$16, code_data(%rdx)
.LBB2871:
.LBB2868:
	.loc 1 1480 0
	je	.L700
.LVL1035:
.L612:
	.loc 1 1484 0
	movl	$drop_op_end, %edx
.LBB2865:
.LBB2866:
	.loc 3 66 0
	movl	$drop_op, %esi
.LBE2866:
.LBE2865:
	.loc 1 1484 0
	subq	$drop_op, %rdx
.LVL1036:
	jmp	.L678
.LVL1037:
	.p2align 4,,10
	.p2align 3
.L599:
.LBE2868:
.LBE2871:
.LBE2860:
.LBB2873:
.LBB2754:
.LBB2755:
	.loc 1 1378 0
	movslq	end_code_section(%rip), %rax
.LVL1038:
	.loc 1 1379 0
	leal	1(%rax), %ecx
.LVL1039:
	.loc 1 1380 0
	cmpl	$10239, %ecx
	.loc 1 1379 0
	movl	%ecx, end_code_section(%rip)
	.loc 1 1380 0
	jg	.L605
.LBE2755:
.LBE2754:
	.loc 1 1754 0
	leaq	(%rax,%rax,2), %rax
.LVL1040:
	.loc 1 1758 0
	movq	%rdx, %rdi
.LVL1041:
	.loc 1 1754 0
	salq	$3, %rax
	leaq	code_data(%rax), %r12
.LVL1042:
	.loc 1 1756 0
	movl	$14, code_data(%rax)
	.loc 1 1757 0
	movl	4(%rbp), %eax
	.loc 1 1758 0
	movq	%r12, %rsi
	.loc 1 1757 0
	movl	%eax, 4(%r12)
	.loc 1 1758 0
	call	vector_add
.LVL1043:
.LBB2756:
.LBB2752:
	.loc 1 1577 0
	movq	code(%rip), %rbx
.LVL1044:
	testq	%rbx, %rbx
	je	.L701
.L645:
.LVL1045:
	.loc 1 1581 0
	movl	$goto_op_end, %edx
.LBB2751:
.LBB2750:
	.loc 3 66 0
	movl	$goto_op, %esi
.LBE2750:
.LBE2751:
	.loc 1 1581 0
	subq	$goto_op, %rdx
.LVL1046:
	jmp	.L672
.LVL1047:
	.p2align 4,,10
	.p2align 3
.L584:
	.p2align 4,,10
	.p2align 3
.L696:
.LBE2752:
.LBE2756:
.LBE2873:
.LBB2874:
.LBB2784:
.LBB2785:
	.loc 1 1492 0
	movq	code(%rip), %rbp
.LVL1048:
.LBE2785:
.LBE2784:
	.loc 1 1736 0
	movl	%r12d, 4(%r14)
.LVL1049:
.LBB2800:
.LBB2796:
	.loc 1 1492 0
	testq	%rbp, %rbp
	je	.L641
.LVL1050:
.L642:
	.loc 1 1496 0
	movl	$set_global_op_end, %ebx
.LVL1051:
.LBB2786:
.LBB2787:
	.loc 3 66 0
	movl	$set_global_op, %esi
.LBE2787:
.LBE2786:
	.loc 1 1496 0
	subq	$set_global_op, %rbx
.LVL1052:
.LBB2790:
.LBB2788:
	.loc 3 66 0
	movq	%rbx, %rdx
.LVL1053:
.L674:
	movq	%rbp, %rdi
.LBE2788:
.LBE2790:
	.loc 1 1501 0
	movslq	%r12d, %r12
.LBE2796:
.LBE2800:
.LBB2801:
.LBB2802:
	.loc 1 1372 0
	subq	$code_data, %r14
.LBE2802:
.LBE2801:
.LBB2805:
.LBB2797:
.LBB2791:
.LBB2789:
	.loc 3 66 0
	call	mempcpy
.LVL1054:
.LBE2789:
.LBE2791:
	.loc 1 1496 0
	movq	%rax, code(%rip)
	.loc 1 1497 0
	movb	$0, (%rax)
	.loc 1 1500 0
	movq	%rbx, %rsi
	movslq	hole_len(%rip), %r13
	movq	hole_str(%rip), %rdx
	movq	%rbp, %rdi
.LBE2797:
.LBE2805:
.LBB2806:
.LBB2803:
	.loc 1 1372 0
	sarq	$3, %r14
.LBE2803:
.LBE2806:
.LBB2807:
.LBB2798:
	.loc 1 1500 0
	movq	%r13, %rcx
	call	memmem
.LVL1055:
.LBB2792:
.LBB2793:
	.loc 3 66 0
	leaq	24(%rsp), %rsi
	movq	%r13, %rdx
	movq	%rax, %rdi
.LBE2793:
.LBE2792:
	.loc 1 1501 0
	movq	%r12, 24(%rsp)
.LVL1056:
.LBB2795:
.LBB2794:
	.loc 3 66 0
	call	memcpy
.LVL1057:
.LBE2794:
.LBE2795:
.LBE2798:
.LBE2807:
.LBB2808:
.LBB2804:
	.loc 1 1372 0
	movabsq	$-6148914691236517205, %rax
	imulq	%rax, %r14
.LVL1058:
.LBE2804:
.LBE2808:
.LBB2809:
.LBB2810:
	.loc 1 1421 0
	movslq	%r14d, %rax
	leaq	(%rax,%rax,2), %rax
	movq	%rbp, code_data+16(,%rax,8)
.LVL1059:
.LBE2810:
.LBE2809:
.LBE2874:
	.loc 1 1767 0
	addq	$40, %rsp
	.cfi_remember_state
	.cfi_def_cfa_offset 56
.LBB2875:
	.loc 1 1738 0
	movl	%r14d, %eax
.LBE2875:
	.loc 1 1767 0
	popq	%rbx
	.cfi_def_cfa_offset 48
	popq	%rbp
	.cfi_def_cfa_offset 40
	popq	%r12
	.cfi_def_cfa_offset 32
	popq	%r13
	.cfi_def_cfa_offset 24
.LVL1060:
	popq	%r14
	.cfi_def_cfa_offset 16
.LVL1061:
	popq	%r15
	.cfi_def_cfa_offset 8
	ret
.LVL1062:
	.p2align 4,,10
	.p2align 3
.L697:
	.cfi_restore_state
.LBB2876:
.LBB2823:
.LBB2824:
	.loc 1 1509 0
	movq	code(%rip), %rbp
.LVL1063:
.LBE2824:
.LBE2823:
	.loc 1 1727 0
	movl	%r12d, 4(%r14)
.LVL1064:
.LBB2831:
.LBB2829:
	.loc 1 1509 0
	testq	%rbp, %rbp
	je	.L636
.LVL1065:
.L637:
	.loc 1 1513 0
	movl	$get_global_op_end, %ebx
.LVL1066:
.LBB2825:
.LBB2826:
	.loc 3 66 0
	movl	$get_global_op, %esi
.LBE2826:
.LBE2825:
	.loc 1 1513 0
	subq	$get_global_op, %rbx
.LVL1067:
.LBB2828:
.LBB2827:
	.loc 3 66 0
	movq	%rbx, %rdx
	jmp	.L674
.LVL1068:
.L602:
.LBE2827:
.LBE2828:
.LBE2829:
.LBE2831:
.LBE2876:
.LBB2877:
.LBB2576:
.LBB2577:
.LBB2578:
	.loc 1 1378 0
	movslq	end_code_section(%rip), %rax
.LVL1069:
	.loc 1 1379 0
	leal	1(%rax), %edx
	.loc 1 1380 0
	cmpl	$10239, %edx
	.loc 1 1379 0
	movl	%edx, end_code_section(%rip)
	.loc 1 1380 0
	jg	.L605
.LBE2578:
.LBE2577:
	.loc 1 1630 0
	leaq	(%rax,%rax,2), %rbp
.LVL1070:
.LBB2579:
.LBB2580:
	.loc 1 1560 0
	movq	code(%rip), %rbx
.LVL1071:
.LBE2580:
.LBE2579:
.LBB2591:
.LBB2592:
	.loc 1 1372 0
	movabsq	$-6148914691236517205, %rax
.LVL1072:
.LBE2592:
.LBE2591:
	.loc 1 1630 0
	salq	$3, %rbp
	.loc 1 1631 0
	movl	$17, code_data(%rbp)
.LVL1073:
.LBB2594:
.LBB2593:
	.loc 1 1372 0
	sarq	$3, %rbp
.LVL1074:
	imulq	%rax, %rbp
.LVL1075:
.LBE2593:
.LBE2594:
.LBB2595:
.LBB2589:
	.loc 1 1560 0
	testq	%rbx, %rbx
	je	.L702
.LVL1076:
.L606:
	.loc 1 1564 0
	movl	$after_c_trap, %r12d
.LBB2581:
.LBB2582:
	.loc 3 66 0
	movl	$c_trap, %esi
	movq	%rbx, %rdi
.LBE2582:
.LBE2581:
	.loc 1 1564 0
	subq	$c_trap, %r12
.LVL1077:
.LBB2584:
.LBB2583:
	.loc 3 66 0
	movq	%r12, %rdx
	call	mempcpy
.LVL1078:
.LBE2583:
.LBE2584:
	.loc 1 1564 0
	movq	%rax, code(%rip)
	.loc 1 1565 0
	movb	$0, (%rax)
	.loc 1 1568 0
	movq	%r12, %rsi
	movslq	hole_len(%rip), %r13
	movq	hole_str(%rip), %rdx
	movq	%rbx, %rdi
	.loc 1 1569 0
	movslq	%ebp, %r12
.LVL1079:
	.loc 1 1568 0
	movq	%r13, %rcx
	call	memmem
.LVL1080:
.LBB2585:
.LBB2586:
	.loc 3 66 0
	leaq	24(%rsp), %rsi
	movq	%r13, %rdx
	movq	%rax, %rdi
.LBE2586:
.LBE2585:
	.loc 1 1569 0
	movq	%r12, 24(%rsp)
.LVL1081:
.LBB2588:
.LBB2587:
	.loc 3 66 0
	call	memcpy
.LVL1082:
.LBE2587:
.LBE2588:
.LBE2589:
.LBE2595:
.LBB2596:
.LBB2597:
	.loc 1 1421 0
	leaq	(%r12,%r12,2), %rax
	movq	%rbx, code_data+16(,%rax,8)
.LVL1083:
.LBE2597:
.LBE2596:
	.loc 1 1633 0
	movl	%ebp, %eax
	jmp	.L585
.LVL1084:
.L619:
.LBE2576:
.LBE2877:
.LBB2878:
.LBB2659:
.LBB2648:
	.loc 1 1312 0
	movl	$16, %edi
	call	malloc
.LVL1085:
	.loc 1 1314 0
	movq	%r12, %rdx
	movq	%rbx, %rsi
	movq	%r13, %rdi
	.loc 1 1313 0
	movq	%r13, 8(%rax)
	movq	%rax, 8(%rsp)
	.loc 1 1314 0
	call	make_class
.LVL1086:
	movq	8(%rsp), %rcx
	.loc 1 1315 0
	movq	v.4562(%rip), %rdi
	.loc 1 1314 0
	movl	%eax, (%rcx)
	.loc 1 1315 0
	movq	%rcx, %rsi
	call	vector_add
.LVL1087:
	.loc 1 1316 0
	movq	8(%rsp), %rcx
	movl	(%rcx), %edi
	jmp	.L617
.LVL1088:
.L608:
.LBE2648:
.LBE2659:
.LBE2878:
.LBB2879:
.LBB2611:
.LBB2608:
	.loc 1 1363 0
	movq	8(%r13), %rsi
	call	vector_add
.LVL1089:
	.loc 1 1364 0
	movq	strs(%rip), %rax
	movq	8(%r13), %rdi
	movl	(%rax), %esi
	subl	$1, %esi
	call	init_default_str_values
.LVL1090:
	.loc 1 1365 0
	movq	strs(%rip), %rax
	movl	(%rax), %ebx
	subl	$1, %ebx
	jmp	.L609
.LVL1091:
.L627:
.LBE2608:
.LBE2611:
.LBE2879:
.LBB2880:
.LBB2718:
.LBB2698:
	.loc 1 1363 0
	movq	8(%r14), %rsi
	call	vector_add
.LVL1092:
	.loc 1 1364 0
	movq	strs(%rip), %rax
	movq	8(%r14), %rdi
	movl	(%rax), %esi
	subl	$1, %esi
	call	init_default_str_values
.LVL1093:
	.loc 1 1365 0
	movq	strs(%rip), %rax
	movl	(%rax), %ebx
	subl	$1, %ebx
	jmp	.L628
.LVL1094:
.L622:
.LBE2698:
.LBE2718:
.LBE2880:
.LBB2881:
.LBB2688:
.LBB2668:
	.loc 1 1363 0
	movq	8(%r13), %rsi
	call	vector_add
.LVL1095:
	.loc 1 1364 0
	movq	strs(%rip), %rax
	movq	8(%r13), %rdi
	movl	(%rax), %esi
	subl	$1, %esi
	call	init_default_str_values
.LVL1096:
	.loc 1 1365 0
	movq	strs(%rip), %rax
	movl	(%rax), %ebx
	subl	$1, %ebx
	jmp	.L623
.LVL1097:
.L686:
.LBE2668:
.LBE2688:
.LBE2881:
.LBB2882:
.LBB2638:
.LBB2628:
	.loc 1 1561 0
	xorl	%r9d, %r9d
	movl	$-1, %r8d
	movl	$34, %ecx
	movl	$7, %edx
	movl	$1048576, %esi
	xorl	%edi, %edi
	call	mmap
.LVL1098:
	movq	%rax, code(%rip)
	movq	%rax, %rbx
	jmp	.L631
.LVL1099:
.L694:
.LBE2628:
.LBE2638:
.LBE2882:
.LBB2883:
.LBB2740:
.LBB2737:
	.loc 1 1544 0
	xorl	%r9d, %r9d
	movl	$-1, %r8d
.LVL1100:
	movl	$34, %ecx
.LVL1101:
	movl	$7, %edx
.LVL1102:
	movl	$1048576, %esi
	xorl	%edi, %edi
.LVL1103:
	call	mmap
.LVL1104:
	movq	%rax, code(%rip)
	movq	%rax, %rbx
	jmp	.L633
.LVL1105:
.L636:
.LBE2737:
.LBE2740:
.LBE2883:
.LBB2884:
.LBB2832:
.LBB2830:
	.loc 1 1510 0
	xorl	%r9d, %r9d
	movl	$-1, %r8d
	movl	$34, %ecx
	movl	$7, %edx
	movl	$1048576, %esi
	xorl	%edi, %edi
	call	mmap
.LVL1106:
	movq	%rax, code(%rip)
	movq	%rax, %rbp
	jmp	.L637
.LVL1107:
.L641:
.LBE2830:
.LBE2832:
.LBE2884:
.LBB2885:
.LBB2811:
.LBB2799:
	.loc 1 1493 0
	xorl	%r9d, %r9d
	movl	$-1, %r8d
	movl	$34, %ecx
	movl	$7, %edx
	movl	$1048576, %esi
	xorl	%edi, %edi
	call	mmap
.LVL1108:
	movq	%rax, code(%rip)
	movq	%rax, %rbp
	jmp	.L642
.LVL1109:
.L693:
.LBE2799:
.LBE2811:
.LBE2885:
.LBB2886:
.LBB2719:
.LBB2712:
	.loc 1 1561 0
	xorl	%r9d, %r9d
	movl	$-1, %r8d
	movl	$34, %ecx
	movl	$7, %edx
	movl	$1048576, %esi
	xorl	%edi, %edi
	call	mmap
.LVL1110:
	movq	%rax, code(%rip)
	movq	%rax, %rbx
	jmp	.L630
.LVL1111:
.L690:
.LBE2712:
.LBE2719:
.LBE2886:
.LBB2887:
.LBB2689:
.LBB2682:
	xorl	%r9d, %r9d
	movl	$-1, %r8d
	movl	$34, %ecx
	movl	$7, %edx
	movl	$1048576, %esi
	xorl	%edi, %edi
	call	mmap
.LVL1112:
	movq	%rax, code(%rip)
	movq	%rax, %rbx
	jmp	.L625
.LVL1113:
.L701:
.LBE2682:
.LBE2689:
.LBE2887:
.LBB2888:
.LBB2757:
.LBB2753:
	.loc 1 1578 0
	xorl	%r9d, %r9d
	movl	$-1, %r8d
	movl	$34, %ecx
	movl	$7, %edx
	movl	$1048576, %esi
	xorl	%edi, %edi
	call	mmap
.LVL1114:
	movq	%rax, code(%rip)
	movq	%rax, %rbx
	jmp	.L645
.LVL1115:
.L700:
.LBE2753:
.LBE2757:
.LBE2888:
.LBB2889:
.LBB2872:
.LBB2869:
	.loc 1 1481 0
	xorl	%r9d, %r9d
	movl	$-1, %r8d
.LVL1116:
	movl	$34, %ecx
.LVL1117:
	movl	$7, %edx
	movl	$1048576, %esi
	xorl	%edi, %edi
.LVL1118:
	call	mmap
.LVL1119:
	movq	%rax, code(%rip)
	movq	%rax, %rbx
	jmp	.L612
.LVL1120:
.L699:
.LBE2869:
.LBE2872:
.LBE2889:
.LBB2890:
.LBB2859:
.LBB2854:
	.loc 1 1469 0
	xorl	%r9d, %r9d
	movl	$-1, %r8d
.LVL1121:
	movl	$34, %ecx
.LVL1122:
	movl	$7, %edx
	movl	$1048576, %esi
	xorl	%edi, %edi
.LVL1123:
	call	mmap
.LVL1124:
	movq	%rax, code(%rip)
	movq	%rax, %rbx
	jmp	.L614
.LVL1125:
.L698:
.LBE2854:
.LBE2859:
.LBE2890:
.LBB2891:
.LBB2841:
.LBB2840:
	.loc 1 1597 0
	xorl	%r9d, %r9d
	movl	$-1, %r8d
	movl	$34, %ecx
	movl	$7, %edx
	movl	$1048576, %esi
	xorl	%edi, %edi
	call	mmap
.LVL1126:
	movq	%rax, code(%rip)
	movq	%rax, %rbx
	jmp	.L644
.LVL1127:
.L695:
.LBE2840:
.LBE2841:
.LBE2891:
.LBB2892:
.LBB2772:
.LBB2769:
	.loc 1 1527 0
	xorl	%r9d, %r9d
	movl	$-1, %r8d
.LVL1128:
	movl	$34, %ecx
.LVL1129:
	movl	$7, %edx
.LVL1130:
	movl	$1048576, %esi
	xorl	%edi, %edi
.LVL1131:
	call	mmap
.LVL1132:
	movq	%rax, code(%rip)
	movq	%rax, %rbx
	jmp	.L632
.LVL1133:
.L688:
.LBE2769:
.LBE2772:
.LBE2892:
.LBB2893:
.LBB2690:
.LBB2669:
	.loc 1 1356 0
	xorl	%eax, %eax
.LVL1134:
	call	make_vector
.LVL1135:
	movq	%rax, strs(%rip)
	movq	%rax, %rdi
	jmp	.L621
.LVL1136:
.L687:
.LBE2669:
.LBE2690:
.LBE2893:
.LBB2894:
.LBB2660:
.LBB2649:
	.loc 1 1304 0
	xorl	%eax, %eax
.LVL1137:
	call	make_vector
.LVL1138:
	movq	%rax, v.4562(%rip)
	movq	%rax, %rdi
	jmp	.L615
.LVL1139:
.L691:
.LBE2649:
.LBE2660:
.LBE2894:
.LBB2895:
.LBB2720:
.LBB2699:
	.loc 1 1356 0
	xorl	%eax, %eax
.LVL1140:
	call	make_vector
.LVL1141:
	movq	%rax, strs(%rip)
	movq	%rax, %rdi
	jmp	.L626
.LVL1142:
.L684:
.LBE2699:
.LBE2720:
.LBE2895:
.LBB2896:
.LBB2612:
.LBB2609:
	xorl	%eax, %eax
.LVL1143:
	call	make_vector
.LVL1144:
	movq	%rax, strs(%rip)
	movq	%rax, %rdi
	jmp	.L607
.LVL1145:
.L702:
.LBE2609:
.LBE2612:
.LBE2896:
.LBB2897:
.LBB2599:
.LBB2598:
.LBB2590:
	.loc 1 1561 0
	xorl	%r9d, %r9d
	movl	$-1, %r8d
	movl	$34, %ecx
	movl	$7, %edx
.LVL1146:
	movl	$1048576, %esi
	xorl	%edi, %edi
	call	mmap
.LVL1147:
	movq	%rax, code(%rip)
	movq	%rax, %rbx
	jmp	.L606
.LVL1148:
.L683:
.LBE2590:
.LBE2598:
.LBE2599:
.LBB2600:
.LBB2574:
.LBB2566:
	xorl	%r9d, %r9d
	movl	$-1, %r8d
	movl	$34, %ecx
.LVL1149:
	movl	$7, %edx
.LVL1150:
	movl	$1048576, %esi
	xorl	%edi, %edi
	call	mmap
.LVL1151:
	movq	%rax, code(%rip)
	movq	%rax, %rbp
	jmp	.L604
.LVL1152:
.L605:
.LBE2566:
.LBE2574:
.LBB2575:
.LBB2554:
	xorl	%eax, %eax
	call	code_alloc.part.0
.LVL1153:
.LBE2554:
.LBE2575:
.LBE2600:
.LBE2897:
	.cfi_endproc
.LFE143:
	.size	make_code_ins, .-make_code_ins
	.section	.rodata.str1.1
.LC18:
	.string	"!(lins->tag != LABEL_OP)"
.LC19:
	.string	"!(code_point_i == -1)"
	.section	.rodata.str1.8
	.align 8
.LC20:
	.string	"!(ins->tag != BRANCH_OP && ins->tag != GOTO_OP)"
	.text
	.p2align 4,,15
	.globl	make_code
	.type	make_code, @function
make_code:
.LFB144:
	.loc 1 1772 0
	.cfi_startproc
.LVL1154:
	pushq	%r15
	.cfi_def_cfa_offset 16
	.cfi_offset 15, -16
	.loc 1 1774 0
	xorl	%eax, %eax
	.loc 1 1772 0
	pushq	%r14
	.cfi_def_cfa_offset 24
	.cfi_offset 14, -24
	movq	%rdi, %r14
	pushq	%r13
	.cfi_def_cfa_offset 32
	.cfi_offset 13, -32
	pushq	%r12
	.cfi_def_cfa_offset 40
	.cfi_offset 12, -40
	pushq	%rbp
	.cfi_def_cfa_offset 48
	.cfi_offset 6, -48
	pushq	%rbx
	.cfi_def_cfa_offset 56
	.cfi_offset 3, -56
	subq	$88, %rsp
	.cfi_def_cfa_offset 144
	.loc 1 1772 0
	movq	%rsi, 24(%rsp)
	movq	%rdx, 32(%rsp)
	movq	%rcx, 40(%rsp)
	.loc 1 1774 0
	call	make_vector
.LVL1155:
	movq	%rax, %rbx
.LVL1156:
	.loc 1 1775 0
	xorl	%eax, %eax
.LVL1157:
	call	make_vector
.LVL1158:
.LBB2970:
	.loc 1 1780 0
	movq	16(%r14), %rdi
.LBE2970:
	.loc 1 1775 0
	movq	%rax, 8(%rsp)
.LVL1159:
.LBB2981:
	.loc 1 1780 0
	movl	(%rdi), %r8d
	testl	%r8d, %r8d
	jle	.L757
.LBB2971:
	.loc 1 1781 0
	xorl	%esi, %esi
.LBE2971:
	.loc 1 1780 0
	xorl	%r12d, %r12d
.LBE2981:
	.loc 1 1777 0
	movl	$-1, %ebp
.LBB2982:
.LBB2977:
	.loc 1 1781 0
	call	vector_get
.LVL1160:
	.loc 1 1783 0
	movq	40(%rsp), %r8
	movq	32(%rsp), %rcx
	movq	%rax, %rdi
	movq	8(%rsp), %rdx
	movq	24(%rsp), %rsi
	call	make_code_ins
.LVL1161:
	movl	%eax, %r13d
.LVL1162:
	movl	%eax, 20(%rsp)
.LVL1163:
	.p2align 4,,10
	.p2align 3
.L733:
	.loc 1 1789 0
	cmpl	$-1, %ebp
	jne	.L740
	cmpl	$-1, %r13d
	je	.L735
.L740:
	.loc 1 1791 0
	cmpl	$-1, %ebp
	je	.L707
	cmpl	$-1, %r13d
	je	.L707
.LVL1164:
.LBB2972:
	.loc 1 1792 0 discriminator 1
	cmpl	%ebp, %r12d
	jle	.L711
	.p2align 4,,10
	.p2align 3
.L750:
.LBB2973:
	.loc 1 1794 0
	movq	16(%r14), %rdi
	movl	%ebp, %esi
	call	vector_get
.LVL1165:
	.loc 1 1795 0
	movl	(%rax), %edi
	.loc 1 1794 0
	movq	%rax, %r15
.LVL1166:
	.loc 1 1795 0
	testl	%edi, %edi
	jne	.L758
	.loc 1 1796 0
	movl	$8, %edi
.LBE2973:
	.loc 1 1792 0
	addl	$1, %ebp
.LVL1167:
.LBB2974:
	.loc 1 1796 0
	call	malloc
.LVL1168:
	movq	%rax, %rsi
.LVL1169:
	.loc 1 1797 0
	movl	4(%r15), %eax
.LVL1170:
	.loc 1 1799 0
	movq	%rbx, %rdi
	.loc 1 1798 0
	movl	%r13d, 4(%rsi)
	.loc 1 1797 0
	movl	%eax, (%rsi)
	.loc 1 1799 0
	call	vector_add
.LVL1171:
.LBE2974:
	.loc 1 1792 0
	cmpl	%r12d, %ebp
	jne	.L750
.LVL1172:
.L711:
.LBE2972:
	.loc 1 1801 0
	movl	$-1, %ebp
.LVL1173:
.L707:
.LBE2977:
	.loc 1 1780 0
	movq	16(%r14), %rdi
	addl	$1, %r12d
.LVL1174:
	cmpl	%r12d, (%rdi)
	jle	.L705
.L713:
.LBB2978:
	.loc 1 1781 0
	movl	%r12d, %esi
	call	vector_get
.LVL1175:
	.loc 1 1783 0
	movq	40(%rsp), %r8
	movq	32(%rsp), %rcx
	movq	%rax, %rdi
	movq	8(%rsp), %rdx
	movq	24(%rsp), %rsi
	call	make_code_ins
.LVL1176:
	movl	%eax, %r13d
.LVL1177:
	movl	20(%rsp), %eax
.LVL1178:
	cmpl	$-1, %eax
	cmove	%r13d, %eax
	movl	%eax, 20(%rsp)
.LVL1179:
	jmp	.L733
.LVL1180:
	.p2align 4,,10
	.p2align 3
.L735:
.LBE2978:
	.loc 1 1780 0
	movq	16(%r14), %rdi
.LBB2979:
	movl	%r12d, %ebp
.LVL1181:
.LBE2979:
	addl	$1, %r12d
.LVL1182:
	cmpl	%r12d, (%rdi)
	jg	.L713
.LVL1183:
.L705:
.LBE2982:
.LBB2983:
	.loc 1 1805 0 discriminator 1
	movq	8(%rsp), %rax
	xorl	%r13d, %r13d
	movl	(%rax), %esi
	testl	%esi, %esi
	jle	.L745
.LBB2984:
.LBB2985:
.LBB2986:
	.loc 1 1608 0
	movl	$branch_op_end, %r15d
	subq	$branch_op, %r15
.LVL1184:
	.p2align 4,,10
	.p2align 3
.L755:
.LBE2986:
.LBE2985:
	.loc 1 1808 0
	movq	8(%rsp), %rdi
	movl	%r13d, %esi
	call	vector_get
.LVL1185:
	movq	%rax, %rbp
.LVL1186:
	.loc 1 1810 0
	movl	(%rax), %eax
.LVL1187:
	subl	$13, %eax
	cmpl	$1, %eax
	ja	.L715
.LVL1188:
.LBB2990:
	.loc 1 1816 0 discriminator 1
	movl	(%rbx), %ecx
	testl	%ecx, %ecx
	jle	.L720
	.loc 1 1816 0 is_stmt 0
	xorl	%r14d, %r14d
	movq	$-1, %r12
	jmp	.L719
.LVL1189:
	.p2align 4,,10
	.p2align 3
.L717:
	addl	$1, %r14d
.LVL1190:
	cmpl	%r14d, (%rbx)
	jle	.L759
.LVL1191:
.L719:
.LBB2991:
	.loc 1 1817 0 is_stmt 1
	movl	%r14d, %esi
	movq	%rbx, %rdi
	call	vector_get
.LVL1192:
	.loc 1 1818 0
	movl	4(%rbp), %ecx
	cmpl	%ecx, (%rax)
	jne	.L717
.LBE2991:
	.loc 1 1816 0
	addl	$1, %r14d
.LVL1193:
	cmpl	%r14d, (%rbx)
.LBB2992:
	.loc 1 1819 0
	movslq	4(%rax), %r12
.LVL1194:
.LBE2992:
	.loc 1 1816 0
	jg	.L719
.L759:
.LBE2990:
	.loc 1 1822 0
	cmpl	$-1, %r12d
	je	.L720
	.loc 1 1824 0
	movl	0(%rbp), %eax
.LVL1195:
	.loc 1 1823 0
	movl	%r12d, 4(%rbp)
	.loc 1 1824 0
	cmpl	$14, %eax
	je	.L760
	.loc 1 1826 0
	cmpl	$13, %eax
	je	.L761
.LVL1196:
.L726:
.LBE2984:
	.loc 1 1805 0
	movq	8(%rsp), %rax
	addl	$1, %r13d
.LVL1197:
	cmpl	%r13d, (%rax)
	jg	.L755
.LVL1198:
.L745:
.LBE2983:
	.loc 1 1832 0
	movl	20(%rsp), %eax
	addq	$88, %rsp
	.cfi_remember_state
	.cfi_def_cfa_offset 56
	popq	%rbx
	.cfi_def_cfa_offset 48
.LVL1199:
	popq	%rbp
	.cfi_def_cfa_offset 40
	popq	%r12
	.cfi_def_cfa_offset 32
	popq	%r13
	.cfi_def_cfa_offset 24
	popq	%r14
	.cfi_def_cfa_offset 16
	popq	%r15
	.cfi_def_cfa_offset 8
	ret
.LVL1200:
	.p2align 4,,10
	.p2align 3
.L760:
	.cfi_restore_state
.LBB3056:
.LBB3054:
.LBB2993:
.LBB2994:
	.loc 1 1401 0
	leaq	(%r12,%r12,2), %rax
.LBE2994:
.LBE2993:
.LBB2995:
.LBB2996:
	.loc 1 1372 0
	subq	$code_data, %rbp
.LVL1201:
	sarq	$3, %rbp
.LVL1202:
.LBE2996:
.LBE2995:
	.loc 1 1825 0
	movq	code_data+16(,%rax,8), %r12
.LVL1203:
.LBB2998:
.LBB2997:
	.loc 1 1372 0
	movabsq	$-6148914691236517205, %rax
	imulq	%rax, %rbp
.LVL1204:
.LBE2997:
.LBE2998:
.LBB2999:
.LBB3000:
	.loc 1 1394 0
	cmpl	$-1, %ebp
	je	.L762
.LVL1205:
	.loc 1 1401 0
	movslq	%ebp, %rbp
	leaq	0(%rbp,%rbp,2), %rax
	movq	code_data+16(,%rax,8), %rdi
.LVL1206:
.L725:
.LBE3000:
.LBE2999:
.LBB3019:
.LBB3020:
	.loc 1 1589 0
	movslq	hole_len(%rip), %rbp
	movq	hole_str(%rip), %rdx
	movl	$goto_op_end, %esi
	subq	$goto_op, %rsi
	movq	%r12, 48(%rsp)
.LVL1207:
	movq	%rbp, %rcx
	call	memmem
.LVL1208:
.LBB3021:
.LBB3022:
	.loc 3 66 0
	leaq	48(%rsp), %rsi
.LVL1209:
	movq	%rbp, %rdx
	movq	%rax, %rdi
	call	memcpy
.LVL1210:
	jmp	.L726
.LVL1211:
	.p2align 4,,10
	.p2align 3
.L761:
.LBE3022:
.LBE3021:
.LBE3020:
.LBE3019:
.LBB3023:
.LBB3024:
	.loc 1 1401 0
	leaq	(%r12,%r12,2), %rax
.LBE3024:
.LBE3023:
.LBB3025:
.LBB3026:
	.loc 1 1372 0
	subq	$code_data, %rbp
.LVL1212:
	sarq	$3, %rbp
.LVL1213:
.LBE3026:
.LBE3025:
	.loc 1 1827 0
	movq	code_data+16(,%rax,8), %r12
.LVL1214:
.LBB3028:
.LBB3027:
	.loc 1 1372 0
	movabsq	$-6148914691236517205, %rax
	imulq	%rax, %rbp
.LVL1215:
.LBE3027:
.LBE3028:
.LBB3029:
.LBB3030:
	.loc 1 1394 0
	cmpl	$-1, %ebp
	je	.L763
.LVL1216:
	.loc 1 1401 0
	movslq	%ebp, %rbp
	leaq	0(%rbp,%rbp,2), %rax
	movq	code_data+16(,%rax,8), %rdi
.LVL1217:
.L730:
.LBE3030:
.LBE3029:
.LBB3049:
.LBB2989:
	.loc 1 1608 0
	movslq	hole_len(%rip), %rbp
	movq	hole_str(%rip), %rdx
	movq	%r15, %rsi
	movq	%r12, 64(%rsp)
.LVL1218:
	movq	%rbp, %rcx
	call	memmem
.LVL1219:
.LBB2987:
.LBB2988:
	.loc 3 66 0
	leaq	64(%rsp), %rsi
.LVL1220:
	movq	%rbp, %rdx
	movq	%rax, %rdi
	call	memcpy
.LVL1221:
	jmp	.L726
.LVL1222:
.L720:
.LBE2988:
.LBE2987:
.LBE2989:
.LBE3049:
	.loc 1 1822 0
	movl	$__PRETTY_FUNCTION__.4891, %ecx
	movl	$1822, %edx
	movl	$.LC0, %esi
	movl	$.LC19, %edi
	call	__assert_fail
.LVL1223:
.L762:
.LBB3050:
.LBB3017:
.LBB3001:
.LBB3002:
	.loc 1 1395 0
	movq	finished_trap(%rip), %rdi
	testq	%rdi, %rdi
	jne	.L725
.LVL1224:
.LBB3003:
.LBB3004:
	.loc 1 1560 0
	movq	code(%rip), %r8
	testq	%r8, %r8
	je	.L764
.L724:
.LVL1225:
	.loc 1 1564 0
	movl	$after_c_trap, %ebp
.LVL1226:
.LBB3005:
.LBB3006:
	.loc 3 66 0
	movq	%r8, %rdi
	movl	$c_trap, %esi
.LBE3006:
.LBE3005:
	.loc 1 1564 0
	subq	$c_trap, %rbp
.LVL1227:
.LBB3008:
.LBB3007:
	.loc 3 66 0
	movq	%r8, 24(%rsp)
	movq	%rbp, %rdx
	call	mempcpy
.LVL1228:
.LBE3007:
.LBE3008:
	.loc 1 1564 0
	movq	%rax, code(%rip)
	.loc 1 1565 0
	movb	$0, (%rax)
	.loc 1 1568 0
	movq	%rbp, %rsi
	movslq	hole_len(%rip), %r9
	movq	24(%rsp), %r8
	movq	hole_str(%rip), %rdx
	movq	%r8, %rdi
	movq	%r9, %rcx
	movq	%r9, 32(%rsp)
	call	memmem
.LVL1229:
.LBB3009:
.LBB3010:
	.loc 3 66 0
	movq	32(%rsp), %r9
	leaq	72(%rsp), %rsi
	movq	%rax, %rdi
.LBE3010:
.LBE3009:
	.loc 1 1569 0
	movq	$-1, 72(%rsp)
.LVL1230:
.LBB3012:
.LBB3011:
	.loc 3 66 0
	movq	%r9, %rdx
	call	memcpy
.LVL1231:
.LBE3011:
.LBE3012:
.LBE3004:
.LBE3003:
	.loc 1 1396 0
	movq	24(%rsp), %r8
	movq	%r8, finished_trap(%rip)
	movq	%r8, %rdi
	jmp	.L725
.LVL1232:
.L763:
.LBE3002:
.LBE3001:
.LBE3017:
.LBE3050:
.LBB3051:
.LBB3047:
.LBB3031:
.LBB3032:
	.loc 1 1395 0
	movq	finished_trap(%rip), %rdi
	testq	%rdi, %rdi
	jne	.L730
.LVL1233:
.LBB3033:
.LBB3034:
	.loc 1 1560 0
	movq	code(%rip), %r8
	testq	%r8, %r8
	je	.L765
.L729:
.LVL1234:
	.loc 1 1564 0
	movl	$after_c_trap, %ebp
.LVL1235:
.LBB3035:
.LBB3036:
	.loc 3 66 0
	movq	%r8, %rdi
	movl	$c_trap, %esi
.LBE3036:
.LBE3035:
	.loc 1 1564 0
	subq	$c_trap, %rbp
.LVL1236:
.LBB3038:
.LBB3037:
	.loc 3 66 0
	movq	%r8, 24(%rsp)
	movq	%rbp, %rdx
	call	mempcpy
.LVL1237:
.LBE3037:
.LBE3038:
	.loc 1 1564 0
	movq	%rax, code(%rip)
	.loc 1 1565 0
	movb	$0, (%rax)
	.loc 1 1568 0
	movq	%rbp, %rsi
	movslq	hole_len(%rip), %r9
	movq	24(%rsp), %r8
	movq	hole_str(%rip), %rdx
	movq	%r8, %rdi
	movq	%r9, %rcx
	movq	%r9, 32(%rsp)
	call	memmem
.LVL1238:
.LBB3039:
.LBB3040:
	.loc 3 66 0
	movq	32(%rsp), %r9
	leaq	72(%rsp), %rsi
	movq	%rax, %rdi
.LBE3040:
.LBE3039:
	.loc 1 1569 0
	movq	$-1, 72(%rsp)
.LVL1239:
.LBB3042:
.LBB3041:
	.loc 3 66 0
	movq	%r9, %rdx
	call	memcpy
.LVL1240:
.LBE3041:
.LBE3042:
.LBE3034:
.LBE3033:
	.loc 1 1396 0
	movq	24(%rsp), %r8
	movq	%r8, finished_trap(%rip)
	movq	%r8, %rdi
	jmp	.L730
.LVL1241:
.L757:
.LBE3032:
.LBE3031:
.LBE3047:
.LBE3051:
.LBE3054:
.LBE3056:
	.loc 1 1778 0
	movl	$-1, 20(%rsp)
	jmp	.L705
.LVL1242:
.L758:
.LBB3057:
.LBB2980:
.LBB2976:
.LBB2975:
	.loc 1 1795 0 discriminator 1
	movl	$__PRETTY_FUNCTION__.4891, %ecx
	movl	$1795, %edx
	movl	$.LC0, %esi
	movl	$.LC18, %edi
	call	__assert_fail
.LVL1243:
.L764:
.LBE2975:
.LBE2976:
.LBE2980:
.LBE3057:
.LBB3058:
.LBB3055:
.LBB3052:
.LBB3018:
.LBB3016:
.LBB3015:
.LBB3014:
.LBB3013:
	.loc 1 1561 0
	movl	%ebp, %r8d
	xorl	%r9d, %r9d
	movl	$34, %ecx
	movl	$7, %edx
	movl	$1048576, %esi
	call	mmap
.LVL1244:
	movq	%rax, code(%rip)
	movq	%rax, %r8
	jmp	.L724
.LVL1245:
.L715:
.LBE3013:
.LBE3014:
.LBE3015:
.LBE3016:
.LBE3018:
.LBE3052:
	.loc 1 1810 0 discriminator 1
	movl	$__PRETTY_FUNCTION__.4891, %ecx
	movl	$1810, %edx
	movl	$.LC0, %esi
	movl	$.LC20, %edi
	call	__assert_fail
.LVL1246:
.L765:
.LBB3053:
.LBB3048:
.LBB3046:
.LBB3045:
.LBB3044:
.LBB3043:
	.loc 1 1561 0
	movl	%ebp, %r8d
	xorl	%r9d, %r9d
	movl	$34, %ecx
	movl	$7, %edx
	movl	$1048576, %esi
	call	mmap
.LVL1247:
	movq	%rax, code(%rip)
	movq	%rax, %r8
	jmp	.L729
.LBE3043:
.LBE3044:
.LBE3045:
.LBE3046:
.LBE3048:
.LBE3053:
.LBE3055:
.LBE3058:
	.cfi_endproc
.LFE144:
	.size	make_code, .-make_code
	.section	.rodata.str1.1
.LC21:
	.string	"!(name == -1)"
.LC22:
	.string	"!(code_point == -1)"
	.text
	.p2align 4,,15
	.globl	quicken
	.type	quicken, @function
quicken:
.LFB145:
	.loc 1 1834 0
	.cfi_startproc
.LVL1248:
	pushq	%r15
	.cfi_def_cfa_offset 16
	.cfi_offset 15, -16
	.loc 1 1841 0
	xorl	%eax, %eax
	.loc 1 1834 0
	movq	%rdi, %r15
	pushq	%r14
	.cfi_def_cfa_offset 24
	.cfi_offset 14, -24
	pushq	%r13
	.cfi_def_cfa_offset 32
	.cfi_offset 13, -32
	pushq	%r12
	.cfi_def_cfa_offset 40
	.cfi_offset 12, -40
	pushq	%rbp
	.cfi_def_cfa_offset 48
	.cfi_offset 6, -48
	pushq	%rbx
	.cfi_def_cfa_offset 56
	.cfi_offset 3, -56
	subq	$56, %rsp
	.cfi_def_cfa_offset 112
	.loc 1 1841 0
	call	make_vector
.LVL1249:
	movq	%rax, %rbx
.LVL1250:
	.loc 1 1842 0
	xorl	%eax, %eax
.LVL1251:
	call	make_vector
.LVL1252:
	movq	%rax, 8(%rsp)
.LVL1253:
	.loc 1 1843 0
	xorl	%eax, %eax
.LVL1254:
	call	make_vector
.LVL1255:
.LBB3078:
	.loc 1 1845 0
	movq	(%r15), %rdi
.LBE3078:
	.loc 1 1843 0
	movq	%rax, 32(%rsp)
.LVL1256:
.LBB3081:
	.loc 1 1845 0
	movl	(%rdi), %eax
.LVL1257:
	testl	%eax, %eax
	jle	.L800
	xorl	%r13d, %r13d
.LBE3081:
	.loc 1 1836 0
	movl	$-1, 44(%rsp)
	movl	$1, %r12d
.LVL1258:
	.p2align 4,,10
	.p2align 3
.L769:
.LBB3082:
.LBB3079:
	.loc 1 1846 0
	movl	%r13d, %esi
	call	vector_get
.LVL1259:
	movl	(%rax), %ecx
	movq	%rax, %r14
.LVL1260:
	movq	%r12, %rax
.LVL1261:
	salq	%cl, %rax
	testb	$55, %al
	jne	.L768
.LVL1262:
.LBB3080:
	.loc 1 1857 0
	movq	32(%rsp), %rcx
	movq	8(%rsp), %rdx
	movq	%r15, %rsi
	movq	%r14, %rdi
	call	make_code
.LVL1263:
	.loc 1 1861 0
	movl	12(%r14), %edx
	.loc 1 1857 0
	movl	%eax, %ebp
.LVL1264:
	.loc 1 1860 0
	cltq
.LVL1265:
	leaq	(%rax,%rax,2), %rax
	.loc 1 1864 0
	movl	$8, %edi
	.loc 1 1861 0
	movl	%edx, code_data+12(,%rax,8)
	.loc 1 1864 0
	call	malloc
.LVL1266:
	.loc 1 1867 0
	movq	%rbx, %rdi
	.loc 1 1865 0
	movl	%ebp, 4(%rax)
	.loc 1 1866 0
	movl	%r13d, (%rax)
	.loc 1 1867 0
	movq	%rax, %rsi
	call	vector_add
.LVL1267:
	.loc 1 1869 0
	cmpl	%r13d, 16(%r15)
	cmovne	44(%rsp), %ebp
.LVL1268:
	movl	%ebp, 44(%rsp)
.LVL1269:
.L768:
.LBE3080:
.LBE3079:
	.loc 1 1845 0
	movq	(%r15), %rdi
	addl	$1, %r13d
.LVL1270:
	cmpl	%r13d, (%rdi)
	jg	.L769
.LVL1271:
.L767:
.LBE3082:
.LBB3083:
	.loc 1 1879 0 discriminator 1
	movq	8(%rsp), %rax
	xorl	%r13d, %r13d
	movl	(%rax), %r14d
	testl	%r14d, %r14d
	jle	.L783
.LVL1272:
.L809:
.LBB3084:
	.loc 1 1880 0
	movq	8(%rsp), %rdi
	movl	%r13d, %esi
.LBB3085:
	.loc 1 1882 0
	xorl	%r14d, %r14d
.LBE3085:
	.loc 1 1880 0
	call	vector_get
.LVL1273:
.LBB3087:
	.loc 1 1882 0
	movq	8(%r15), %rdi
.LBE3087:
	.loc 1 1880 0
	movq	%rax, %r12
.LVL1274:
.LBB3088:
	.loc 1 1882 0
	movl	(%rdi), %ebp
	testl	%ebp, %ebp
	jg	.L811
	jmp	.L774
.LVL1275:
	.p2align 4,,10
	.p2align 3
.L775:
	movq	8(%r15), %rdi
	addl	$1, %r14d
.LVL1276:
	cmpl	%r14d, (%rdi)
	jle	.L774
.LVL1277:
.L811:
.LBB3086:
	.loc 1 1884 0
	movl	%r14d, %esi
	call	vector_get
.LVL1278:
	.loc 1 1885 0
	movq	(%r15), %rdi
	movl	%eax, %esi
	.loc 1 1884 0
	movq	%rax, %rbp
.LVL1279:
	.loc 1 1885 0
	call	vector_get
.LVL1280:
	.loc 1 1887 0
	cmpl	$3, (%rax)
	jne	.L775
.LVL1281:
	.loc 1 1891 0
	movl	4(%rax), %eax
.LVL1282:
	cmpl	%eax, 4(%r12)
	jne	.L775
	.loc 1 1892 0
	movl	%ebp, 4(%r12)
.LVL1283:
.L774:
.LBE3086:
.LBE3088:
.LBB3089:
	.loc 1 1897 0 discriminator 1
	movl	(%rbx), %r11d
	testl	%r11d, %r11d
	jle	.L780
	.loc 1 1897 0 is_stmt 0
	xorl	%ebp, %ebp
	jmp	.L782
.LVL1284:
	.p2align 4,,10
	.p2align 3
.L779:
	addl	$1, %ebp
.LVL1285:
	cmpl	%ebp, (%rbx)
	jle	.L780
.LVL1286:
.L782:
.LBB3090:
	.loc 1 1898 0 is_stmt 1
	movl	%ebp, %esi
	movq	%rbx, %rdi
	call	vector_get
.LVL1287:
	.loc 1 1900 0
	movl	4(%r12), %edx
	cmpl	%edx, (%rax)
	jne	.L779
	.loc 1 1902 0
	movl	4(%rax), %eax
.LVL1288:
.LBE3090:
.LBE3089:
	.loc 1 1906 0
	cmpl	$-1, %eax
	je	.L780
	.loc 1 1907 0
	movl	%eax, 4(%r12)
.LBE3084:
	.loc 1 1879 0
	movq	8(%rsp), %rax
.LVL1289:
	addl	$1, %r13d
.LVL1290:
	cmpl	%r13d, (%rax)
	jg	.L809
.LVL1291:
.L783:
.LBE3083:
.LBB3092:
	.loc 1 1911 0
	movq	32(%rsp), %rax
	movl	$0, 40(%rsp)
	movl	(%rax), %r12d
	testl	%r12d, %r12d
	jle	.L815
.LVL1292:
.L810:
.LBB3093:
	.loc 1 1913 0
	movl	40(%rsp), %esi
	movq	32(%rsp), %rdi
	call	vector_get
.LVL1293:
	movq	%rax, %rdx
	movq	%rax, 16(%rsp)
.LVL1294:
.LBB3094:
	.loc 1 1914 0
	movl	4(%rax), %eax
.LVL1295:
	addl	(%rdx), %eax
	movl	$0, 8(%rsp)
	testl	%eax, %eax
	jle	.L797
.LVL1296:
	.p2align 4,,10
	.p2align 3
.L812:
	movslq	8(%rsp), %rdx
	movq	16(%rsp), %rcx
	leaq	(%rcx,%rdx,8), %r12
.LBB3095:
	.loc 1 1915 0
	cmpl	$-3, 12(%r12)
	je	.L787
.LVL1297:
.LBB3096:
	.loc 1 1920 0 discriminator 1
	movl	(%rbx), %r10d
	testl	%r10d, %r10d
	jle	.L790
	.loc 1 1920 0 is_stmt 0
	xorl	%ebp, %ebp
	jmp	.L792
.LVL1298:
	.p2align 4,,10
	.p2align 3
.L789:
	addl	$1, %ebp
.LVL1299:
	cmpl	%ebp, (%rbx)
	jle	.L790
.LVL1300:
.L792:
.LBB3097:
	.loc 1 1921 0 is_stmt 1
	movl	%ebp, %esi
	movq	%rbx, %rdi
	call	vector_get
.LVL1301:
	.loc 1 1924 0
	movl	(%rax), %esi
	cmpl	8(%r12), %esi
	jne	.L789
	.loc 1 1925 0
	movl	4(%rax), %eax
.LVL1302:
.LBE3097:
.LBE3096:
	.loc 1 1929 0
	cmpl	$-1, %eax
.LBB3099:
.LBB3098:
	.loc 1 1925 0
	movl	%eax, 28(%rsp)
.LVL1303:
.LBE3098:
.LBE3099:
	.loc 1 1929 0
	je	.L790
	.loc 1 1930 0
	movq	(%r15), %rdi
	call	vector_get
.LVL1304:
	.loc 1 1931 0
	movq	(%r15), %rdi
	movl	4(%rax), %esi
	call	vector_get
.LVL1305:
.LBB3100:
.LBB3101:
	.loc 1 1355 0
	movq	strs(%rip), %rdi
.LBE3101:
.LBE3100:
	.loc 1 1931 0
	movq	%rax, %r13
.LVL1306:
.LBB3106:
.LBB3103:
	.loc 1 1355 0
	testq	%rdi, %rdi
	je	.L819
.LVL1307:
.L793:
.LBB3102:
	.loc 1 1358 0
	movl	(%rdi), %r9d
	testl	%r9d, %r9d
	jle	.L794
	xorl	%r14d, %r14d
	jmp	.L796
.LVL1308:
	.p2align 4,,10
	.p2align 3
.L820:
	movq	strs(%rip), %rdi
	addl	$1, %r14d
.LVL1309:
	cmpl	(%rdi), %r14d
	jge	.L794
.LVL1310:
.L796:
	.loc 1 1359 0
	movq	8(%r13), %rbp
	movl	%r14d, %esi
	call	vector_get
.LVL1311:
	cmpq	%rax, %rbp
	jne	.L820
	movl	%r14d, %edx
.LVL1312:
.L795:
.LBE3102:
.LBE3103:
.LBE3106:
	.loc 1 1932 0
	movl	28(%rsp), %eax
	movq	16(%rsp), %rcx
	.loc 1 1931 0
	movl	%edx, 8(%r12)
	.loc 1 1932 0
	movl	%eax, 12(%r12)
	movl	4(%rcx), %eax
	addl	(%rcx), %eax
.LVL1313:
.L787:
.LBE3095:
	.loc 1 1914 0
	addl	$1, 8(%rsp)
.LVL1314:
	cmpl	8(%rsp), %eax
	jg	.L812
.LVL1315:
.L797:
.LBE3094:
.LBE3093:
	.loc 1 1911 0
	movq	32(%rsp), %rax
	addl	$1, 40(%rsp)
.LVL1316:
	movl	40(%rsp), %edx
	cmpl	%edx, (%rax)
	jg	.L810
.LVL1317:
.L815:
.LBE3092:
	.loc 1 1951 0
	movl	44(%rsp), %eax
	addq	$56, %rsp
	.cfi_remember_state
	.cfi_def_cfa_offset 56
	popq	%rbx
	.cfi_def_cfa_offset 48
.LVL1318:
	popq	%rbp
	.cfi_def_cfa_offset 40
	popq	%r12
	.cfi_def_cfa_offset 32
	popq	%r13
	.cfi_def_cfa_offset 24
	popq	%r14
	.cfi_def_cfa_offset 16
	popq	%r15
	.cfi_def_cfa_offset 8
.LVL1319:
	ret
.LVL1320:
	.p2align 4,,10
	.p2align 3
.L794:
	.cfi_restore_state
.LBB3112:
.LBB3111:
.LBB3110:
.LBB3109:
.LBB3107:
.LBB3104:
	.loc 1 1363 0
	movq	8(%r13), %rsi
	call	vector_add
.LVL1321:
	.loc 1 1364 0
	movq	strs(%rip), %rax
	movq	8(%r13), %rdi
	movl	(%rax), %esi
	subl	$1, %esi
	call	init_default_str_values
.LVL1322:
	.loc 1 1365 0
	movq	strs(%rip), %rax
	movl	(%rax), %edx
	subl	$1, %edx
	jmp	.L795
.LVL1323:
	.p2align 4,,10
	.p2align 3
.L790:
.LBE3104:
.LBE3107:
	.loc 1 1929 0
	movl	$__PRETTY_FUNCTION__.4951, %ecx
	movl	$1929, %edx
	movl	$.LC0, %esi
	movl	$.LC22, %edi
	call	__assert_fail
.LVL1324:
.L819:
.LBB3108:
.LBB3105:
	.loc 1 1356 0
	xorl	%eax, %eax
.LVL1325:
	call	make_vector
.LVL1326:
	movq	%rax, strs(%rip)
	movq	%rax, %rdi
	jmp	.L793
.LVL1327:
.L780:
.LBE3105:
.LBE3108:
.LBE3109:
.LBE3110:
.LBE3111:
.LBE3112:
.LBB3113:
.LBB3091:
	.loc 1 1906 0
	movl	$__PRETTY_FUNCTION__.4951, %ecx
	movl	$1906, %edx
	movl	$.LC0, %esi
	movl	$.LC21, %edi
	call	__assert_fail
.LVL1328:
.L800:
.LBE3091:
.LBE3113:
	.loc 1 1836 0
	movl	$-1, 44(%rsp)
	jmp	.L767
	.cfi_endproc
.LFE145:
	.size	quicken, .-quicken
	.p2align 4,,15
	.globl	debug_ins
	.type	debug_ins, @function
debug_ins:
.LFB146:
	.loc 1 1953 0
	.cfi_startproc
.LVL1329:
	.loc 1 1954 0
	cmpl	$16, (%rdi)
	ja	.L827
	rep; ret
.L827:
	.loc 1 1953 0
	pushq	%rax
	.cfi_def_cfa_offset 16
	.loc 1 2039 0
	orl	$-1, %edi
.LVL1330:
	call	exit
.LVL1331:
	.cfi_endproc
.LFE146:
	.size	debug_ins, .-debug_ins
	.p2align 4,,15
	.globl	debug_code
	.type	debug_code, @function
debug_code:
.LFB147:
	.loc 1 2044 0
	.cfi_startproc
.LVL1332:
.LBB3114:
	.loc 1 2046 0
	movl	end_code_section(%rip), %edx
	testl	%edx, %edx
	jle	.L837
	subl	$1, %edx
	movl	$code_data, %eax
	leaq	(%rdx,%rdx,2), %rdx
	leaq	code_data+24(,%rdx,8), %rcx
.LVL1333:
	.p2align 4,,10
	.p2align 3
.L832:
.LBB3115:
	.loc 1 2049 0
	movl	(%rax), %edx
	cmpl	$17, %edx
	je	.L830
.LVL1334:
.LBB3116:
.LBB3117:
	.loc 1 1954 0
	cmpl	$16, %edx
	ja	.L838
.LVL1335:
.L830:
	addq	$24, %rax
.LBE3117:
.LBE3116:
.LBE3115:
	.loc 1 2046 0
	cmpq	%rcx, %rax
	jne	.L832
.L837:
	rep; ret
.LVL1336:
.L838:
.LBE3114:
	.loc 1 2044 0
	subq	$8, %rsp
	.cfi_def_cfa_offset 16
.LBB3121:
.LBB3120:
.LBB3119:
.LBB3118:
	.loc 1 2039 0
	movl	$-1, %edi
.LVL1337:
	call	exit
.LVL1338:
.LBE3118:
.LBE3119:
.LBE3120:
.LBE3121:
	.cfi_endproc
.LFE147:
	.size	debug_code, .-debug_code
	.p2align 4,,15
	.globl	to_int_val
	.type	to_int_val, @function
to_int_val:
.LFB150:
	.loc 1 2088 0
	.cfi_startproc
.LVL1339:
	.loc 1 2088 0
	movq	%rdi, %rax
	.loc 1 2091 0
	ret
	.cfi_endproc
.LFE150:
	.size	to_int_val, .-to_int_val
	.section	.rodata.str1.1
.LC23:
	.string	"!(obj_type(val) != NULL_OBJ)"
	.text
	.p2align 4,,15
	.globl	to_null_val
	.type	to_null_val, @function
to_null_val:
.LFB151:
	.loc 1 2093 0
	.cfi_startproc
.LVL1340:
	subq	$8, %rsp
	.cfi_def_cfa_offset 16
.LBB3129:
.LBB3130:
	.loc 1 2157 0
	cmpq	$2, %rdi
	je	.L841
	.loc 1 2159 0
	movq	%rdi, %rdx
	shrq	$63, %rdx
	leaq	(%rdi,%rdx), %rax
	andl	$1, %eax
	subq	%rdx, %rax
	cmpq	$1, %rax
	je	.L847
.L842:
.LBE3130:
.LBE3129:
	.loc 1 2094 0 discriminator 1
	movl	$__PRETTY_FUNCTION__.5037, %ecx
	movl	$2094, %edx
	movl	$.LC0, %esi
	movl	$.LC23, %edi
.LVL1341:
	call	__assert_fail
.LVL1342:
	.p2align 4,,10
	.p2align 3
.L847:
.LBB3137:
.LBB3136:
.LBB3131:
.LBB3132:
.LBB3133:
.LBB3134:
.LBB3135:
	.loc 1 2144 0
	movq	%rdi, %rdx
	andq	CLEAR_ARRAY_OBJ_MASK(%rip), %rdx
.LVL1343:
.LBE3135:
.LBE3134:
	.loc 1 2161 0
	movb	$4, %al
	cmpq	$4, (%rdx)
	cmovbe	(%rdx), %rax
.LBE3133:
.LBE3132:
.LBE3131:
.LBE3136:
.LBE3137:
	.loc 1 2094 0
	cmpl	$1, %eax
	jne	.L842
.LVL1344:
.L841:
	.loc 1 2096 0
	movq	%rdi, %rax
	addq	$8, %rsp
	.cfi_def_cfa_offset 8
	ret
	.cfi_endproc
.LFE151:
	.size	to_null_val, .-to_null_val
	.p2align 4,,15
	.globl	to_obj_val
	.type	to_obj_val, @function
to_obj_val:
.LFB152:
	.loc 1 2098 0
	.cfi_startproc
.LVL1345:
	subq	$8, %rsp
	.cfi_def_cfa_offset 16
.LBB3147:
.LBB3148:
	.loc 1 2157 0
	cmpq	$2, %rdi
	je	.L849
	.loc 1 2159 0
	movq	%rdi, %rax
	shrq	$63, %rax
	leaq	(%rdi,%rax), %rdx
	andl	$1, %edx
	subq	%rax, %rdx
	cmpq	$1, %rdx
	je	.L855
.L849:
.LBE3148:
.LBE3147:
	call	to_obj_val.part.3
.LVL1346:
	.p2align 4,,10
	.p2align 3
.L855:
.LBB3155:
.LBB3154:
.LBB3149:
.LBB3150:
.LBB3151:
.LBB3152:
.LBB3153:
	.loc 1 2144 0
	movq	%rdi, %rax
	andq	CLEAR_ARRAY_OBJ_MASK(%rip), %rax
.LVL1347:
.LBE3153:
.LBE3152:
	.loc 1 2161 0
	movb	$4, %dl
	cmpq	$4, (%rax)
	cmovbe	(%rax), %rdx
.LBE3151:
.LBE3150:
.LBE3149:
.LBE3154:
.LBE3155:
	.loc 1 2099 0
	cmpl	$4, %edx
	jne	.L849
	.loc 1 2101 0
	addq	$8, %rsp
	.cfi_def_cfa_offset 8
	ret
	.cfi_endproc
.LFE152:
	.size	to_obj_val, .-to_obj_val
	.p2align 4,,15
	.globl	to_array_val
	.type	to_array_val, @function
to_array_val:
.LFB153:
	.loc 1 2103 0
	.cfi_startproc
.LVL1348:
	subq	$8, %rsp
	.cfi_def_cfa_offset 16
.LBB3165:
.LBB3166:
	.loc 1 2157 0
	cmpq	$2, %rdi
	je	.L857
	.loc 1 2159 0
	movq	%rdi, %rax
	shrq	$63, %rax
	leaq	(%rdi,%rax), %rdx
	andl	$1, %edx
	subq	%rax, %rdx
	cmpq	$1, %rdx
	je	.L863
.L857:
.LBE3166:
.LBE3165:
	call	to_array_val.part.4
.LVL1349:
	.p2align 4,,10
	.p2align 3
.L863:
.LBB3173:
.LBB3172:
.LBB3167:
.LBB3168:
.LBB3169:
.LBB3170:
.LBB3171:
	.loc 1 2144 0
	movq	%rdi, %rax
	andq	CLEAR_ARRAY_OBJ_MASK(%rip), %rax
.LVL1350:
.LBE3171:
.LBE3170:
	.loc 1 2161 0
	movb	$4, %dl
	cmpq	$4, (%rax)
	cmovbe	(%rax), %rdx
.LBE3169:
.LBE3168:
.LBE3167:
.LBE3172:
.LBE3173:
	.loc 1 2104 0
	cmpl	$2, %edx
	jne	.L857
	.loc 1 2106 0
	addq	$8, %rsp
	.cfi_def_cfa_offset 8
	ret
	.cfi_endproc
.LFE153:
	.size	to_array_val, .-to_array_val
	.p2align 4,,15
	.globl	from_array_val
	.type	from_array_val, @function
from_array_val:
.LFB154:
	.loc 1 2108 0
	.cfi_startproc
.LVL1351:
	.loc 1 2108 0
	movq	%rdi, %rax
	.loc 1 2109 0
	orq	ARRAY_OBJ_MASK(%rip), %rax
	.loc 1 2110 0
	ret
	.cfi_endproc
.LFE154:
	.size	from_array_val, .-from_array_val
	.p2align 4,,15
	.globl	from_obj_val
	.type	from_obj_val, @function
from_obj_val:
.LFB155:
	.loc 1 2112 0
	.cfi_startproc
.LVL1352:
	.loc 1 2112 0
	movq	%rdi, %rax
	.loc 1 2113 0
	orq	ARRAY_OBJ_MASK(%rip), %rax
	.loc 1 2114 0
	ret
	.cfi_endproc
.LFE155:
	.size	from_obj_val, .-from_obj_val
	.p2align 4,,15
	.globl	from_int_val
	.type	from_int_val, @function
from_int_val:
.LFB156:
	.loc 1 2116 0
	.cfi_startproc
.LVL1353:
	.loc 1 2116 0
	movq	%rdi, %rax
	.loc 1 2118 0
	ret
	.cfi_endproc
.LFE156:
	.size	from_int_val, .-from_int_val
	.p2align 4,,15
	.globl	from_null_val
	.type	from_null_val, @function
from_null_val:
.LFB157:
	.loc 1 2120 0
	.cfi_startproc
.LVL1354:
	.loc 1 2120 0
	movq	%rdi, %rax
	.loc 1 2122 0
	ret
	.cfi_endproc
.LFE157:
	.size	from_null_val, .-from_null_val
	.p2align 4,,15
	.globl	set_forward_ptr
	.type	set_forward_ptr, @function
set_forward_ptr:
.LFB158:
	.loc 1 2124 0
	.cfi_startproc
.LVL1355:
	subq	$8, %rsp
	.cfi_def_cfa_offset 16
.LBB3183:
.LBB3184:
	.loc 1 2157 0
	cmpq	$2, %rdi
	je	.L869
	.loc 1 2159 0
	movq	%rdi, %rdx
	shrq	$63, %rdx
	leaq	(%rdi,%rdx), %rax
	andl	$1, %eax
	subq	%rdx, %rax
	cmpq	$1, %rax
	je	.L875
.LVL1356:
.L869:
.LBE3184:
.LBE3183:
	.loc 1 2125 0 discriminator 1
	movl	$__PRETTY_FUNCTION__.5062, %ecx
	movl	$2125, %edx
	movl	$.LC0, %esi
.LVL1357:
	movl	$.LC4, %edi
	call	__assert_fail
.LVL1358:
	.p2align 4,,10
	.p2align 3
.L875:
.LBB3191:
.LBB3190:
.LBB3185:
.LBB3186:
.LBB3187:
.LBB3188:
.LBB3189:
	.loc 1 2144 0
	andq	CLEAR_ARRAY_OBJ_MASK(%rip), %rdi
.LVL1359:
.LBE3189:
.LBE3188:
	.loc 1 2161 0
	movb	$4, %al
	cmpq	$4, (%rdi)
	cmovbe	(%rdi), %rax
.LBE3187:
.LBE3186:
.LBE3185:
.LBE3190:
.LBE3191:
	.loc 1 2125 0
	cmpl	$3, %eax
	jne	.L869
.LVL1360:
	.loc 1 2127 0
	movq	%rsi, 8(%rdi)
	.loc 1 2128 0
	addq	$8, %rsp
	.cfi_def_cfa_offset 8
	ret
	.cfi_endproc
.LFE158:
	.size	set_forward_ptr, .-set_forward_ptr
	.p2align 4,,15
	.globl	get_forward_ptr
	.type	get_forward_ptr, @function
get_forward_ptr:
.LFB159:
	.loc 1 2130 0
	.cfi_startproc
.LVL1361:
	subq	$8, %rsp
	.cfi_def_cfa_offset 16
.LBB3201:
.LBB3202:
	.loc 1 2157 0
	cmpq	$2, %rdi
	je	.L877
	.loc 1 2159 0
	movq	%rdi, %rdx
	shrq	$63, %rdx
	leaq	(%rdi,%rdx), %rax
	andl	$1, %eax
	subq	%rdx, %rax
	cmpq	$1, %rax
	je	.L883
.LVL1362:
.L877:
.LBE3202:
.LBE3201:
	call	get_forward_ptr.part.6
.LVL1363:
	.p2align 4,,10
	.p2align 3
.L883:
.LBB3209:
.LBB3208:
.LBB3203:
.LBB3204:
.LBB3205:
.LBB3206:
.LBB3207:
	.loc 1 2144 0
	andq	CLEAR_ARRAY_OBJ_MASK(%rip), %rdi
.LVL1364:
.LBE3207:
.LBE3206:
	.loc 1 2161 0
	movb	$4, %al
	cmpq	$4, (%rdi)
	cmovbe	(%rdi), %rax
.LBE3205:
.LBE3204:
.LBE3203:
.LBE3208:
.LBE3209:
	.loc 1 2131 0
	cmpl	$3, %eax
	jne	.L877
.LVL1365:
	.loc 1 2133 0
	movq	8(%rdi), %rax
	.loc 1 2134 0
	addq	$8, %rsp
	.cfi_def_cfa_offset 8
	ret
	.cfi_endproc
.LFE159:
	.size	get_forward_ptr, .-get_forward_ptr
	.section	.rodata.str1.8
	.align 8
.LC24:
	.string	"obj_type(v) == ARRAY_OBJ || obj_type(v) == OBJ_OBJ"
	.text
	.p2align 4,,15
	.globl	set_tag
	.type	set_tag, @function
set_tag:
.LFB160:
	.loc 1 2136 0
	.cfi_startproc
.LVL1366:
	subq	$8, %rsp
	.cfi_def_cfa_offset 16
.LBB3228:
.LBB3229:
	.loc 1 2157 0
	cmpq	$2, %rdi
	je	.L885
	.loc 1 2159 0
	movq	%rdi, %rdx
	shrq	$63, %rdx
	leaq	(%rdi,%rdx), %rax
	andl	$1, %eax
	subq	%rdx, %rax
	cmpq	$1, %rax
	je	.L892
.LVL1367:
.L885:
.LBE3229:
.LBE3228:
	.loc 1 2137 0 discriminator 1
	movl	$__PRETTY_FUNCTION__.5073, %ecx
	movl	$2137, %edx
	movl	$.LC0, %esi
.LVL1368:
	movl	$.LC24, %edi
	call	__assert_fail
.LVL1369:
	.p2align 4,,10
	.p2align 3
.L892:
.LBB3236:
.LBB3235:
.LBB3230:
.LBB3231:
.LBB3232:
.LBB3233:
.LBB3234:
	.loc 1 2144 0
	andq	CLEAR_ARRAY_OBJ_MASK(%rip), %rdi
.LVL1370:
.LBE3234:
.LBE3233:
	.loc 1 2161 0
	movb	$4, %al
	cmpq	$4, (%rdi)
	cmovbe	(%rdi), %rax
.LBE3232:
.LBE3231:
.LBE3230:
.LBE3235:
.LBE3236:
	.loc 1 2137 0
	cmpl	$2, %eax
	jne	.L893
.LVL1371:
	.loc 1 2139 0
	movl	%esi, %eax
	movq	%rax, (%rdi)
.LVL1372:
	.loc 1 2140 0
	addq	$8, %rsp
	.cfi_remember_state
	.cfi_def_cfa_offset 8
	ret
.LVL1373:
.L893:
	.cfi_restore_state
	.loc 1 2137 0
	cmpl	$4, %eax
	jne	.L885
.LVL1374:
	.loc 1 2139 0
	movl	%esi, %eax
	movq	%rax, (%rdi)
.LVL1375:
	.loc 1 2140 0
	addq	$8, %rsp
	.cfi_def_cfa_offset 8
	ret
	.cfi_endproc
.LFE160:
	.size	set_tag, .-set_tag
	.p2align 4,,15
	.globl	_get_tag
	.type	_get_tag, @function
_get_tag:
.LFB161:
	.loc 1 2143 0
	.cfi_startproc
.LVL1376:
	.loc 1 2144 0
	andq	CLEAR_ARRAY_OBJ_MASK(%rip), %rdi
.LVL1377:
	.loc 1 2145 0
	movq	(%rdi), %rax
	.loc 1 2146 0
	ret
	.cfi_endproc
.LFE161:
	.size	_get_tag, .-_get_tag
	.p2align 4,,15
	.globl	to_int
	.type	to_int, @function
to_int:
.LFB162:
	.loc 1 2149 0
	.cfi_startproc
.LVL1378:
	.loc 1 2151 0
	sarq	$3, %rdi
.LVL1379:
	.loc 1 2152 0
	movl	%edi, %eax
	ret
	.cfi_endproc
.LFE162:
	.size	to_int, .-to_int
	.p2align 4,,15
	.globl	obj_type
	.type	obj_type, @function
obj_type:
.LFB163:
	.loc 1 2155 0
	.cfi_startproc
.LVL1380:
	.loc 1 2157 0
	cmpq	$2, %rdi
	je	.L898
	.loc 1 2159 0
	movq	%rdi, %rax
	shrq	$63, %rax
	leaq	(%rdi,%rax), %rdx
	andl	$1, %edx
	subq	%rax, %rdx
	.loc 1 2163 0
	xorl	%eax, %eax
	.loc 1 2159 0
	cmpq	$1, %rdx
	je	.L900
	.loc 1 2165 0
	rep; ret
	.p2align 4,,10
	.p2align 3
.L900:
.LVL1381:
.LBB3242:
.LBB3243:
.LBB3244:
.LBB3245:
.LBB3246:
	.loc 1 2144 0
	andq	CLEAR_ARRAY_OBJ_MASK(%rip), %rdi
.LVL1382:
.LBE3246:
.LBE3245:
	.loc 1 2161 0
	movl	$4, %eax
	cmpq	$4, (%rdi)
	cmovbe	(%rdi), %rax
	ret
.LVL1383:
	.p2align 4,,10
	.p2align 3
.L898:
.LBE3244:
.LBE3243:
.LBE3242:
	.loc 1 2158 0
	movl	$1, %eax
	.loc 1 2165 0
	ret
	.cfi_endproc
.LFE163:
	.size	obj_type, .-obj_type
	.p2align 4,,15
	.globl	make_null_obj
	.type	make_null_obj, @function
make_null_obj:
.LFB164:
	.loc 1 2169 0
	.cfi_startproc
	.loc 1 2171 0
	movl	$2, %eax
	ret
	.cfi_endproc
.LFE164:
	.size	make_null_obj, .-make_null_obj
	.p2align 4,,15
	.globl	make_int_obj
	.type	make_int_obj, @function
make_int_obj:
.LFB165:
	.loc 1 2173 0
	.cfi_startproc
.LVL1384:
	.loc 1 2174 0
	movslq	%edi, %rax
	salq	$3, %rax
	.loc 1 2175 0
	ret
	.cfi_endproc
.LFE165:
	.size	make_int_obj, .-make_int_obj
	.p2align 4,,15
	.globl	array_length
	.type	array_length, @function
array_length:
.LFB166:
	.loc 1 2177 0
	.cfi_startproc
.LVL1385:
.LBB3247:
.LBB3248:
	.loc 1 2174 0
	movslq	8(%rdi), %rax
	salq	$3, %rax
.LBE3248:
.LBE3247:
	.loc 1 2179 0
	ret
	.cfi_endproc
.LFE166:
	.size	array_length, .-array_length
	.p2align 4,,15
	.globl	array_set
	.type	array_set, @function
array_set:
.LFB167:
	.loc 1 2181 0
	.cfi_startproc
.LVL1386:
	subq	$8, %rsp
	.cfi_def_cfa_offset 16
	.loc 1 2182 0
	movq	8(%rdi), %r8
.LBB3249:
.LBB3250:
	.loc 1 2151 0
	sarq	$3, %rsi
.LVL1387:
.LBE3250:
.LBE3249:
	.loc 1 2182 0
	movslq	%esi, %rax
	cmpq	%r8, %rax
	jge	.L905
.LVL1388:
	testl	%esi, %esi
	js	.L905
.LVL1389:
	.loc 1 2186 0
	movq	%rdx, 16(%rdi,%rax,8)
	.loc 1 2188 0
	movl	$2, %eax
	addq	$8, %rsp
	.cfi_remember_state
	.cfi_def_cfa_offset 8
	ret
.LVL1390:
.L905:
	.cfi_restore_state
.LBB3251:
.LBB3252:
	.loc 2 105 0
	movl	%esi, %ecx
	movl	$1, %edi
.LVL1391:
	movq	%r8, %rdx
.LVL1392:
	movl	$.LC15, %esi
	xorl	%eax, %eax
	call	__printf_chk
.LVL1393:
.LBE3252:
.LBE3251:
	.loc 1 2184 0
	orl	$-1, %edi
	call	exit
.LVL1394:
	.cfi_endproc
.LFE167:
	.size	array_set, .-array_set
	.p2align 4,,15
	.globl	array_get
	.type	array_get, @function
array_get:
.LFB168:
	.loc 1 2190 0
	.cfi_startproc
.LVL1395:
	subq	$8, %rsp
	.cfi_def_cfa_offset 16
	.loc 1 2191 0
	movq	8(%rdi), %rdx
.LBB3253:
.LBB3254:
	.loc 1 2151 0
	sarq	$3, %rsi
.LVL1396:
.LBE3254:
.LBE3253:
	.loc 1 2191 0
	movslq	%esi, %rax
	cmpq	%rdx, %rax
	jge	.L909
.LVL1397:
	testl	%esi, %esi
	js	.L909
.LVL1398:
	.loc 1 2195 0
	movq	16(%rdi,%rax,8), %rax
	.loc 1 2196 0
	addq	$8, %rsp
	.cfi_remember_state
	.cfi_def_cfa_offset 8
	ret
.LVL1399:
.L909:
	.cfi_restore_state
.LBB3255:
.LBB3256:
	.loc 2 105 0
	movl	%esi, %ecx
	movl	$1, %edi
.LVL1400:
	movl	$.LC15, %esi
	xorl	%eax, %eax
	call	__printf_chk
.LVL1401:
.LBE3256:
.LBE3255:
	.loc 1 2193 0
	orl	$-1, %edi
	call	exit
.LVL1402:
	.cfi_endproc
.LFE168:
	.size	array_get, .-array_get
	.p2align 4,,15
	.globl	int_obj_add
	.type	int_obj_add, @function
int_obj_add:
.LFB169:
	.loc 1 2199 0
	.cfi_startproc
.LVL1403:
	subq	$8, %rsp
	.cfi_def_cfa_offset 16
.LBB3271:
.LBB3272:
	.loc 1 2157 0
	cmpq	$2, %rdi
	je	.L913
	.loc 1 2159 0
	movq	%rdi, %rdx
	shrq	$63, %rdx
	leaq	(%rdi,%rdx), %rax
	andl	$1, %eax
	subq	%rdx, %rax
	cmpq	$1, %rax
	je	.L924
.L914:
.LVL1404:
.LBE3272:
.LBE3271:
.LBB3279:
.LBB3280:
	.loc 1 2157 0
	cmpq	$2, %rsi
	je	.L913
	.loc 1 2159 0
	movq	%rsi, %rdx
	shrq	$63, %rdx
	leaq	(%rsi,%rdx), %rax
	andl	$1, %eax
	subq	%rdx, %rax
	cmpq	$1, %rax
	je	.L925
.LVL1405:
.LBE3280:
.LBE3279:
	.loc 1 2203 0
	leaq	(%rdi,%rsi), %rax
.LVL1406:
	.loc 1 2208 0
	addq	$8, %rsp
	.cfi_remember_state
	.cfi_def_cfa_offset 8
	ret
.LVL1407:
	.p2align 4,,10
	.p2align 3
.L924:
	.cfi_restore_state
.LBB3287:
.LBB3278:
.LBB3273:
.LBB3274:
.LBB3275:
.LBB3276:
.LBB3277:
	.loc 1 2144 0
	movq	%rdi, %rdx
	andq	CLEAR_ARRAY_OBJ_MASK(%rip), %rdx
.LVL1408:
.LBE3277:
.LBE3276:
	.loc 1 2161 0
	movb	$4, %al
	cmpq	$4, (%rdx)
	cmovbe	(%rdx), %rax
.LBE3275:
.LBE3274:
.LBE3273:
.LBE3278:
.LBE3287:
	.loc 1 2200 0
	testl	%eax, %eax
	je	.L914
.LVL1409:
.L913:
	.loc 1 2200 0 is_stmt 0 discriminator 1
	movl	$__PRETTY_FUNCTION__.5109, %ecx
	movl	$2200, %edx
	movl	$.LC0, %esi
.LVL1410:
	movl	$.LC12, %edi
.LVL1411:
	call	__assert_fail
.LVL1412:
	.p2align 4,,10
	.p2align 3
.L925:
.LBB3288:
.LBB3286:
.LBB3281:
.LBB3282:
.LBB3283:
.LBB3284:
.LBB3285:
	.loc 1 2144 0 is_stmt 1
	movq	%rsi, %rdx
	andq	CLEAR_ARRAY_OBJ_MASK(%rip), %rdx
.LVL1413:
.LBE3285:
.LBE3284:
	.loc 1 2161 0
	movb	$4, %al
	cmpq	$4, (%rdx)
	cmovbe	(%rdx), %rax
.LBE3283:
.LBE3282:
.LBE3281:
.LBE3286:
.LBE3288:
	.loc 1 2200 0
	testl	%eax, %eax
	jne	.L913
.LVL1414:
	.loc 1 2203 0
	leaq	(%rdi,%rsi), %rax
.LVL1415:
	.loc 1 2208 0
	addq	$8, %rsp
	.cfi_def_cfa_offset 8
	ret
	.cfi_endproc
.LFE169:
	.size	int_obj_add, .-int_obj_add
	.p2align 4,,15
	.globl	int_obj_sub
	.type	int_obj_sub, @function
int_obj_sub:
.LFB170:
	.loc 1 2210 0
	.cfi_startproc
.LVL1416:
	subq	$8, %rsp
	.cfi_def_cfa_offset 16
.LBB3303:
.LBB3304:
	.loc 1 2157 0
	cmpq	$2, %rdi
	je	.L927
	.loc 1 2159 0
	movq	%rdi, %rdx
	shrq	$63, %rdx
	leaq	(%rdi,%rdx), %rax
	andl	$1, %eax
	subq	%rdx, %rax
	cmpq	$1, %rax
	je	.L938
.L928:
.LVL1417:
.LBE3304:
.LBE3303:
.LBB3311:
.LBB3312:
	.loc 1 2157 0
	cmpq	$2, %rsi
	je	.L927
	.loc 1 2159 0
	movq	%rsi, %rdx
	shrq	$63, %rdx
	leaq	(%rsi,%rdx), %rax
	andl	$1, %eax
	subq	%rdx, %rax
	cmpq	$1, %rax
	je	.L939
.LVL1418:
.LBE3312:
.LBE3311:
	.loc 1 2214 0
	movq	%rdi, %rax
	.loc 1 2219 0
	addq	$8, %rsp
	.cfi_remember_state
	.cfi_def_cfa_offset 8
	.loc 1 2214 0
	subq	%rsi, %rax
.LVL1419:
	.loc 1 2219 0
	ret
.LVL1420:
	.p2align 4,,10
	.p2align 3
.L938:
	.cfi_restore_state
.LBB3319:
.LBB3310:
.LBB3305:
.LBB3306:
.LBB3307:
.LBB3308:
.LBB3309:
	.loc 1 2144 0
	movq	%rdi, %rdx
	andq	CLEAR_ARRAY_OBJ_MASK(%rip), %rdx
.LVL1421:
.LBE3309:
.LBE3308:
	.loc 1 2161 0
	movb	$4, %al
	cmpq	$4, (%rdx)
	cmovbe	(%rdx), %rax
.LBE3307:
.LBE3306:
.LBE3305:
.LBE3310:
.LBE3319:
	.loc 1 2211 0
	testl	%eax, %eax
	je	.L928
.LVL1422:
.L927:
	.loc 1 2211 0 is_stmt 0 discriminator 1
	movl	$__PRETTY_FUNCTION__.5117, %ecx
	movl	$2211, %edx
	movl	$.LC0, %esi
.LVL1423:
	movl	$.LC12, %edi
.LVL1424:
	call	__assert_fail
.LVL1425:
	.p2align 4,,10
	.p2align 3
.L939:
.LBB3320:
.LBB3318:
.LBB3313:
.LBB3314:
.LBB3315:
.LBB3316:
.LBB3317:
	.loc 1 2144 0 is_stmt 1
	movq	%rsi, %rdx
	andq	CLEAR_ARRAY_OBJ_MASK(%rip), %rdx
.LVL1426:
.LBE3317:
.LBE3316:
	.loc 1 2161 0
	movb	$4, %al
	cmpq	$4, (%rdx)
	cmovbe	(%rdx), %rax
.LBE3315:
.LBE3314:
.LBE3313:
.LBE3318:
.LBE3320:
	.loc 1 2211 0
	testl	%eax, %eax
	jne	.L927
.LVL1427:
	.loc 1 2214 0
	movq	%rdi, %rax
	.loc 1 2219 0
	addq	$8, %rsp
	.cfi_def_cfa_offset 8
	.loc 1 2214 0
	subq	%rsi, %rax
.LVL1428:
	.loc 1 2219 0
	ret
	.cfi_endproc
.LFE170:
	.size	int_obj_sub, .-int_obj_sub
	.p2align 4,,15
	.globl	int_obj_mul
	.type	int_obj_mul, @function
int_obj_mul:
.LFB171:
	.loc 1 2221 0
	.cfi_startproc
.LVL1429:
	subq	$8, %rsp
	.cfi_def_cfa_offset 16
.LBB3337:
.LBB3338:
	.loc 1 2157 0
	cmpq	$2, %rdi
	je	.L941
	.loc 1 2159 0
	movq	%rdi, %rdx
	shrq	$63, %rdx
	leaq	(%rdi,%rdx), %rax
	andl	$1, %eax
	subq	%rdx, %rax
	cmpq	$1, %rax
	je	.L952
.L942:
.LVL1430:
.LBE3338:
.LBE3337:
.LBB3345:
.LBB3346:
	.loc 1 2157 0
	cmpq	$2, %rsi
	je	.L941
	.loc 1 2159 0
	movq	%rsi, %rdx
	shrq	$63, %rdx
	leaq	(%rsi,%rdx), %rax
	andl	$1, %eax
	subq	%rdx, %rax
	cmpq	$1, %rax
	je	.L953
.LVL1431:
.LBE3346:
.LBE3345:
.LBB3353:
.LBB3354:
	.loc 1 2151 0
	sarq	$3, %rsi
.LVL1432:
.LBE3354:
.LBE3353:
	.loc 1 2229 0
	addq	$8, %rsp
	.cfi_remember_state
	.cfi_def_cfa_offset 8
	.loc 1 2224 0
	movslq	%esi, %rax
	imulq	%rdi, %rax
	.loc 1 2229 0
	ret
.LVL1433:
	.p2align 4,,10
	.p2align 3
.L952:
	.cfi_restore_state
.LBB3356:
.LBB3344:
.LBB3339:
.LBB3340:
.LBB3341:
.LBB3342:
.LBB3343:
	.loc 1 2144 0
	movq	%rdi, %rdx
	andq	CLEAR_ARRAY_OBJ_MASK(%rip), %rdx
.LVL1434:
.LBE3343:
.LBE3342:
	.loc 1 2161 0
	movb	$4, %al
	cmpq	$4, (%rdx)
	cmovbe	(%rdx), %rax
.LBE3341:
.LBE3340:
.LBE3339:
.LBE3344:
.LBE3356:
	.loc 1 2222 0
	testl	%eax, %eax
	je	.L942
.LVL1435:
.L941:
	.loc 1 2222 0 is_stmt 0 discriminator 1
	movl	$__PRETTY_FUNCTION__.5125, %ecx
	movl	$2222, %edx
	movl	$.LC0, %esi
.LVL1436:
	movl	$.LC12, %edi
.LVL1437:
	call	__assert_fail
.LVL1438:
	.p2align 4,,10
	.p2align 3
.L953:
.LBB3357:
.LBB3352:
.LBB3347:
.LBB3348:
.LBB3349:
.LBB3350:
.LBB3351:
	.loc 1 2144 0 is_stmt 1
	movq	%rsi, %rdx
	andq	CLEAR_ARRAY_OBJ_MASK(%rip), %rdx
.LBE3351:
.LBE3350:
	.loc 1 2161 0
	movb	$4, %al
	cmpq	$4, (%rdx)
	cmovbe	(%rdx), %rax
.LBE3349:
.LBE3348:
.LBE3347:
.LBE3352:
.LBE3357:
	.loc 1 2222 0
	testl	%eax, %eax
	jne	.L941
.LVL1439:
.LBB3358:
.LBB3355:
	.loc 1 2151 0
	sarq	$3, %rsi
.LVL1440:
.LBE3355:
.LBE3358:
	.loc 1 2229 0
	addq	$8, %rsp
	.cfi_def_cfa_offset 8
	.loc 1 2224 0
	movslq	%esi, %rax
	imulq	%rdi, %rax
	.loc 1 2229 0
	ret
	.cfi_endproc
.LFE171:
	.size	int_obj_mul, .-int_obj_mul
	.p2align 4,,15
	.globl	int_obj_div
	.type	int_obj_div, @function
int_obj_div:
.LFB172:
	.loc 1 2231 0
	.cfi_startproc
.LVL1441:
	subq	$8, %rsp
	.cfi_def_cfa_offset 16
.LBB3375:
.LBB3376:
	.loc 1 2157 0
	cmpq	$2, %rdi
	je	.L955
	.loc 1 2159 0
	movq	%rdi, %rdx
	shrq	$63, %rdx
	leaq	(%rdi,%rdx), %rax
	andl	$1, %eax
	subq	%rdx, %rax
	cmpq	$1, %rax
	je	.L965
.L956:
.LVL1442:
.LBE3376:
.LBE3375:
.LBB3383:
.LBB3384:
	.loc 1 2157 0
	cmpq	$2, %rsi
	je	.L955
	.loc 1 2159 0
	movq	%rsi, %rdx
	shrq	$63, %rdx
	leaq	(%rsi,%rdx), %rax
	andl	$1, %eax
	subq	%rdx, %rax
	cmpq	$1, %rax
	je	.L966
.L957:
.LVL1443:
.LBE3384:
.LBE3383:
	.loc 1 2235 0
	movq	%rdi, %rax
	.loc 1 2240 0
	addq	$8, %rsp
	.cfi_remember_state
	.cfi_def_cfa_offset 8
	.loc 1 2235 0
	cqto
	idivq	%rsi
.LBB3391:
.LBB3392:
	.loc 1 2174 0
	cltq
	salq	$3, %rax
.LBE3392:
.LBE3391:
	.loc 1 2240 0
	ret
.LVL1444:
	.p2align 4,,10
	.p2align 3
.L965:
	.cfi_restore_state
.LBB3393:
.LBB3382:
.LBB3377:
.LBB3378:
.LBB3379:
.LBB3380:
.LBB3381:
	.loc 1 2144 0
	movq	%rdi, %rdx
	andq	CLEAR_ARRAY_OBJ_MASK(%rip), %rdx
.LBE3381:
.LBE3380:
	.loc 1 2161 0
	movb	$4, %al
	cmpq	$4, (%rdx)
	cmovbe	(%rdx), %rax
.LBE3379:
.LBE3378:
.LBE3377:
.LBE3382:
.LBE3393:
	.loc 1 2232 0
	testl	%eax, %eax
	je	.L956
.LVL1445:
.L955:
	.loc 1 2232 0 is_stmt 0 discriminator 1
	movl	$__PRETTY_FUNCTION__.5132, %ecx
	movl	$2232, %edx
	movl	$.LC0, %esi
.LVL1446:
	movl	$.LC12, %edi
.LVL1447:
	call	__assert_fail
.LVL1448:
	.p2align 4,,10
	.p2align 3
.L966:
.LBB3394:
.LBB3390:
.LBB3385:
.LBB3386:
.LBB3387:
.LBB3388:
.LBB3389:
	.loc 1 2144 0 is_stmt 1
	movq	%rsi, %rdx
	andq	CLEAR_ARRAY_OBJ_MASK(%rip), %rdx
.LBE3389:
.LBE3388:
	.loc 1 2161 0
	movb	$4, %al
	cmpq	$4, (%rdx)
	cmovbe	(%rdx), %rax
.LBE3387:
.LBE3386:
.LBE3385:
.LBE3390:
.LBE3394:
	.loc 1 2232 0
	testl	%eax, %eax
	je	.L957
	jmp	.L955
	.cfi_endproc
.LFE172:
	.size	int_obj_div, .-int_obj_div
	.p2align 4,,15
	.globl	int_obj_mod
	.type	int_obj_mod, @function
int_obj_mod:
.LFB173:
	.loc 1 2242 0
	.cfi_startproc
.LVL1449:
	subq	$8, %rsp
	.cfi_def_cfa_offset 16
.LBB3409:
.LBB3410:
	.loc 1 2157 0
	cmpq	$2, %rdi
	je	.L968
	.loc 1 2159 0
	movq	%rdi, %rcx
	shrq	$63, %rcx
	leaq	(%rdi,%rcx), %rdx
	andl	$1, %edx
	subq	%rcx, %rdx
	cmpq	$1, %rdx
	je	.L979
.L969:
.LVL1450:
.LBE3410:
.LBE3409:
.LBB3417:
.LBB3418:
	.loc 1 2157 0
	cmpq	$2, %rsi
	je	.L968
	.loc 1 2159 0
	movq	%rsi, %rcx
	shrq	$63, %rcx
	leaq	(%rsi,%rcx), %rdx
	andl	$1, %edx
	subq	%rcx, %rdx
	cmpq	$1, %rdx
	je	.L980
.LVL1451:
.LBE3418:
.LBE3417:
	.loc 1 2246 0
	movq	%rdi, %rax
	.loc 1 2251 0
	addq	$8, %rsp
	.cfi_remember_state
	.cfi_def_cfa_offset 8
	.loc 1 2246 0
	cqto
	idivq	%rsi
	.loc 1 2251 0
	movq	%rdx, %rax
	ret
.LVL1452:
	.p2align 4,,10
	.p2align 3
.L979:
	.cfi_restore_state
.LBB3425:
.LBB3416:
.LBB3411:
.LBB3412:
.LBB3413:
.LBB3414:
.LBB3415:
	.loc 1 2144 0
	movq	%rdi, %rcx
	andq	CLEAR_ARRAY_OBJ_MASK(%rip), %rcx
.LBE3415:
.LBE3414:
	.loc 1 2161 0
	movb	$4, %dl
	cmpq	$4, (%rcx)
	cmovbe	(%rcx), %rdx
.LBE3413:
.LBE3412:
.LBE3411:
.LBE3416:
.LBE3425:
	.loc 1 2243 0
	testl	%edx, %edx
	je	.L969
.LVL1453:
.L968:
	.loc 1 2243 0 is_stmt 0 discriminator 1
	movl	$__PRETTY_FUNCTION__.5140, %ecx
	movl	$2243, %edx
	movl	$.LC0, %esi
.LVL1454:
	movl	$.LC12, %edi
.LVL1455:
	call	__assert_fail
.LVL1456:
	.p2align 4,,10
	.p2align 3
.L980:
.LBB3426:
.LBB3424:
.LBB3419:
.LBB3420:
.LBB3421:
.LBB3422:
.LBB3423:
	.loc 1 2144 0 is_stmt 1
	movq	%rsi, %rcx
	andq	CLEAR_ARRAY_OBJ_MASK(%rip), %rcx
.LBE3423:
.LBE3422:
	.loc 1 2161 0
	movb	$4, %dl
	cmpq	$4, (%rcx)
	cmovbe	(%rcx), %rdx
.LBE3421:
.LBE3420:
.LBE3419:
.LBE3424:
.LBE3426:
	.loc 1 2243 0
	testl	%edx, %edx
	jne	.L968
.LVL1457:
	.loc 1 2246 0
	movq	%rdi, %rax
	.loc 1 2251 0
	addq	$8, %rsp
	.cfi_def_cfa_offset 8
	.loc 1 2246 0
	cqto
	idivq	%rsi
	.loc 1 2251 0
	movq	%rdx, %rax
	ret
	.cfi_endproc
.LFE173:
	.size	int_obj_mod, .-int_obj_mod
	.p2align 4,,15
	.globl	eq
	.type	eq, @function
eq:
.LFB174:
	.loc 1 2253 0
	.cfi_startproc
.LVL1458:
	subq	$8, %rsp
	.cfi_def_cfa_offset 16
.LBB3441:
.LBB3442:
	.loc 1 2157 0
	cmpq	$2, %rdi
	je	.L982
	.loc 1 2159 0
	movq	%rdi, %rdx
	shrq	$63, %rdx
	leaq	(%rdi,%rdx), %rax
	andl	$1, %eax
	subq	%rdx, %rax
	cmpq	$1, %rax
	je	.L995
.L983:
.LVL1459:
.LBE3442:
.LBE3441:
.LBB3449:
.LBB3450:
	.loc 1 2157 0
	cmpq	$2, %rsi
	je	.L982
	.loc 1 2159 0
	movq	%rsi, %rdx
	shrq	$63, %rdx
	leaq	(%rsi,%rdx), %rax
	andl	$1, %eax
	subq	%rdx, %rax
	cmpq	$1, %rax
	je	.L996
.LBE3450:
.LBE3449:
	.loc 1 2256 0
	xorl	%eax, %eax
	cmpq	%rsi, %rdi
	setne	%al
	.loc 1 2257 0
	addq	$8, %rsp
	.cfi_remember_state
	.cfi_def_cfa_offset 8
	.loc 1 2256 0
	addq	%rax, %rax
	.loc 1 2257 0
	ret
.LVL1460:
	.p2align 4,,10
	.p2align 3
.L995:
	.cfi_restore_state
.LBB3457:
.LBB3448:
.LBB3443:
.LBB3444:
.LBB3445:
.LBB3446:
.LBB3447:
	.loc 1 2144 0
	movq	%rdi, %rdx
	andq	CLEAR_ARRAY_OBJ_MASK(%rip), %rdx
.LVL1461:
.LBE3447:
.LBE3446:
	.loc 1 2161 0
	movb	$4, %al
	cmpq	$4, (%rdx)
	cmovbe	(%rdx), %rax
.LBE3445:
.LBE3444:
.LBE3443:
.LBE3448:
.LBE3457:
	.loc 1 2254 0
	testl	%eax, %eax
	je	.L983
.LVL1462:
.L982:
	.loc 1 2254 0 is_stmt 0 discriminator 1
	movl	$__PRETTY_FUNCTION__.5148, %ecx
	movl	$2254, %edx
	movl	$.LC0, %esi
.LVL1463:
	movl	$.LC12, %edi
.LVL1464:
	call	__assert_fail
.LVL1465:
	.p2align 4,,10
	.p2align 3
.L996:
.LBB3458:
.LBB3456:
.LBB3451:
.LBB3452:
.LBB3453:
.LBB3454:
.LBB3455:
	.loc 1 2144 0 is_stmt 1
	movq	%rsi, %rdx
	andq	CLEAR_ARRAY_OBJ_MASK(%rip), %rdx
.LVL1466:
.LBE3455:
.LBE3454:
	.loc 1 2161 0
	movb	$4, %al
	cmpq	$4, (%rdx)
	cmovbe	(%rdx), %rax
.LBE3453:
.LBE3452:
.LBE3451:
.LBE3456:
.LBE3458:
	.loc 1 2254 0
	testl	%eax, %eax
	jne	.L982
	.loc 1 2256 0
	xorl	%eax, %eax
	cmpq	%rsi, %rdi
	setne	%al
	.loc 1 2257 0
	addq	$8, %rsp
	.cfi_def_cfa_offset 8
	.loc 1 2256 0
	addq	%rax, %rax
	.loc 1 2257 0
	ret
	.cfi_endproc
.LFE174:
	.size	eq, .-eq
	.p2align 4,,15
	.globl	lt
	.type	lt, @function
lt:
.LFB175:
	.loc 1 2258 0
	.cfi_startproc
.LVL1467:
	subq	$8, %rsp
	.cfi_def_cfa_offset 16
.LBB3473:
.LBB3474:
	.loc 1 2157 0
	cmpq	$2, %rdi
	je	.L998
	.loc 1 2159 0
	movq	%rdi, %rdx
	shrq	$63, %rdx
	leaq	(%rdi,%rdx), %rax
	andl	$1, %eax
	subq	%rdx, %rax
	cmpq	$1, %rax
	je	.L1011
.L999:
.LVL1468:
.LBE3474:
.LBE3473:
.LBB3481:
.LBB3482:
	.loc 1 2157 0
	cmpq	$2, %rsi
	je	.L998
	.loc 1 2159 0
	movq	%rsi, %rdx
	shrq	$63, %rdx
	leaq	(%rsi,%rdx), %rax
	andl	$1, %eax
	subq	%rdx, %rax
	cmpq	$1, %rax
	je	.L1012
.LVL1469:
.LBE3482:
.LBE3481:
	.loc 1 2263 0
	xorl	%eax, %eax
	cmpq	%rsi, %rdi
	setge	%al
	.loc 1 2264 0
	addq	$8, %rsp
	.cfi_remember_state
	.cfi_def_cfa_offset 8
	.loc 1 2263 0
	addq	%rax, %rax
	.loc 1 2264 0
	ret
.LVL1470:
	.p2align 4,,10
	.p2align 3
.L1011:
	.cfi_restore_state
.LBB3489:
.LBB3480:
.LBB3475:
.LBB3476:
.LBB3477:
.LBB3478:
.LBB3479:
	.loc 1 2144 0
	movq	%rdi, %rdx
	andq	CLEAR_ARRAY_OBJ_MASK(%rip), %rdx
.LVL1471:
.LBE3479:
.LBE3478:
	.loc 1 2161 0
	movb	$4, %al
	cmpq	$4, (%rdx)
	cmovbe	(%rdx), %rax
.LBE3477:
.LBE3476:
.LBE3475:
.LBE3480:
.LBE3489:
	.loc 1 2259 0
	testl	%eax, %eax
	je	.L999
.LVL1472:
.L998:
	.loc 1 2259 0 is_stmt 0 discriminator 1
	movl	$__PRETTY_FUNCTION__.5153, %ecx
	movl	$2259, %edx
	movl	$.LC0, %esi
.LVL1473:
	movl	$.LC12, %edi
.LVL1474:
	call	__assert_fail
.LVL1475:
	.p2align 4,,10
	.p2align 3
.L1012:
.LBB3490:
.LBB3488:
.LBB3483:
.LBB3484:
.LBB3485:
.LBB3486:
.LBB3487:
	.loc 1 2144 0 is_stmt 1
	movq	%rsi, %rdx
	andq	CLEAR_ARRAY_OBJ_MASK(%rip), %rdx
.LVL1476:
.LBE3487:
.LBE3486:
	.loc 1 2161 0
	movb	$4, %al
	cmpq	$4, (%rdx)
	cmovbe	(%rdx), %rax
.LBE3485:
.LBE3484:
.LBE3483:
.LBE3488:
.LBE3490:
	.loc 1 2259 0
	testl	%eax, %eax
	jne	.L998
.LVL1477:
	.loc 1 2263 0
	xorl	%eax, %eax
	cmpq	%rsi, %rdi
	setge	%al
	.loc 1 2264 0
	addq	$8, %rsp
	.cfi_def_cfa_offset 8
	.loc 1 2263 0
	addq	%rax, %rax
	.loc 1 2264 0
	ret
	.cfi_endproc
.LFE175:
	.size	lt, .-lt
	.p2align 4,,15
	.globl	le
	.type	le, @function
le:
.LFB176:
	.loc 1 2265 0
	.cfi_startproc
.LVL1478:
	subq	$8, %rsp
	.cfi_def_cfa_offset 16
.LBB3505:
.LBB3506:
	.loc 1 2157 0
	cmpq	$2, %rdi
	je	.L1014
	.loc 1 2159 0
	movq	%rdi, %rdx
	shrq	$63, %rdx
	leaq	(%rdi,%rdx), %rax
	andl	$1, %eax
	subq	%rdx, %rax
	cmpq	$1, %rax
	je	.L1027
.L1015:
.LVL1479:
.LBE3506:
.LBE3505:
.LBB3513:
.LBB3514:
	.loc 1 2157 0
	cmpq	$2, %rsi
	je	.L1014
	.loc 1 2159 0
	movq	%rsi, %rdx
	shrq	$63, %rdx
	leaq	(%rsi,%rdx), %rax
	andl	$1, %eax
	subq	%rdx, %rax
	cmpq	$1, %rax
	je	.L1028
.LVL1480:
.LBE3514:
.LBE3513:
	.loc 1 2270 0
	xorl	%eax, %eax
	cmpq	%rsi, %rdi
	setg	%al
	.loc 1 2271 0
	addq	$8, %rsp
	.cfi_remember_state
	.cfi_def_cfa_offset 8
	.loc 1 2270 0
	addq	%rax, %rax
	.loc 1 2271 0
	ret
.LVL1481:
	.p2align 4,,10
	.p2align 3
.L1027:
	.cfi_restore_state
.LBB3521:
.LBB3512:
.LBB3507:
.LBB3508:
.LBB3509:
.LBB3510:
.LBB3511:
	.loc 1 2144 0
	movq	%rdi, %rdx
	andq	CLEAR_ARRAY_OBJ_MASK(%rip), %rdx
.LVL1482:
.LBE3511:
.LBE3510:
	.loc 1 2161 0
	movb	$4, %al
	cmpq	$4, (%rdx)
	cmovbe	(%rdx), %rax
.LBE3509:
.LBE3508:
.LBE3507:
.LBE3512:
.LBE3521:
	.loc 1 2266 0
	testl	%eax, %eax
	je	.L1015
.LVL1483:
.L1014:
	.loc 1 2266 0 is_stmt 0 discriminator 1
	movl	$__PRETTY_FUNCTION__.5160, %ecx
	movl	$2266, %edx
	movl	$.LC0, %esi
.LVL1484:
	movl	$.LC12, %edi
.LVL1485:
	call	__assert_fail
.LVL1486:
	.p2align 4,,10
	.p2align 3
.L1028:
.LBB3522:
.LBB3520:
.LBB3515:
.LBB3516:
.LBB3517:
.LBB3518:
.LBB3519:
	.loc 1 2144 0 is_stmt 1
	movq	%rsi, %rdx
	andq	CLEAR_ARRAY_OBJ_MASK(%rip), %rdx
.LVL1487:
.LBE3519:
.LBE3518:
	.loc 1 2161 0
	movb	$4, %al
	cmpq	$4, (%rdx)
	cmovbe	(%rdx), %rax
.LBE3517:
.LBE3516:
.LBE3515:
.LBE3520:
.LBE3522:
	.loc 1 2266 0
	testl	%eax, %eax
	jne	.L1014
.LVL1488:
	.loc 1 2270 0
	xorl	%eax, %eax
	cmpq	%rsi, %rdi
	setg	%al
	.loc 1 2271 0
	addq	$8, %rsp
	.cfi_def_cfa_offset 8
	.loc 1 2270 0
	addq	%rax, %rax
	.loc 1 2271 0
	ret
	.cfi_endproc
.LFE176:
	.size	le, .-le
	.p2align 4,,15
	.globl	gt
	.type	gt, @function
gt:
.LFB177:
	.loc 1 2272 0
	.cfi_startproc
.LVL1489:
	subq	$8, %rsp
	.cfi_def_cfa_offset 16
.LBB3537:
.LBB3538:
	.loc 1 2157 0
	cmpq	$2, %rdi
	je	.L1030
	.loc 1 2159 0
	movq	%rdi, %rdx
	shrq	$63, %rdx
	leaq	(%rdi,%rdx), %rax
	andl	$1, %eax
	subq	%rdx, %rax
	cmpq	$1, %rax
	je	.L1043
.L1031:
.LVL1490:
.LBE3538:
.LBE3537:
.LBB3545:
.LBB3546:
	.loc 1 2157 0
	cmpq	$2, %rsi
	je	.L1030
	.loc 1 2159 0
	movq	%rsi, %rdx
	shrq	$63, %rdx
	leaq	(%rsi,%rdx), %rax
	andl	$1, %eax
	subq	%rdx, %rax
	cmpq	$1, %rax
	je	.L1044
.LVL1491:
.LBE3546:
.LBE3545:
	.loc 1 2277 0
	xorl	%eax, %eax
	cmpq	%rsi, %rdi
	setle	%al
	.loc 1 2278 0
	addq	$8, %rsp
	.cfi_remember_state
	.cfi_def_cfa_offset 8
	.loc 1 2277 0
	addq	%rax, %rax
	.loc 1 2278 0
	ret
.LVL1492:
	.p2align 4,,10
	.p2align 3
.L1043:
	.cfi_restore_state
.LBB3553:
.LBB3544:
.LBB3539:
.LBB3540:
.LBB3541:
.LBB3542:
.LBB3543:
	.loc 1 2144 0
	movq	%rdi, %rdx
	andq	CLEAR_ARRAY_OBJ_MASK(%rip), %rdx
.LVL1493:
.LBE3543:
.LBE3542:
	.loc 1 2161 0
	movb	$4, %al
	cmpq	$4, (%rdx)
	cmovbe	(%rdx), %rax
.LBE3541:
.LBE3540:
.LBE3539:
.LBE3544:
.LBE3553:
	.loc 1 2273 0
	testl	%eax, %eax
	je	.L1031
.LVL1494:
.L1030:
	.loc 1 2273 0 is_stmt 0 discriminator 1
	movl	$__PRETTY_FUNCTION__.5167, %ecx
	movl	$2273, %edx
	movl	$.LC0, %esi
.LVL1495:
	movl	$.LC12, %edi
.LVL1496:
	call	__assert_fail
.LVL1497:
	.p2align 4,,10
	.p2align 3
.L1044:
.LBB3554:
.LBB3552:
.LBB3547:
.LBB3548:
.LBB3549:
.LBB3550:
.LBB3551:
	.loc 1 2144 0 is_stmt 1
	movq	%rsi, %rdx
	andq	CLEAR_ARRAY_OBJ_MASK(%rip), %rdx
.LVL1498:
.LBE3551:
.LBE3550:
	.loc 1 2161 0
	movb	$4, %al
	cmpq	$4, (%rdx)
	cmovbe	(%rdx), %rax
.LBE3549:
.LBE3548:
.LBE3547:
.LBE3552:
.LBE3554:
	.loc 1 2273 0
	testl	%eax, %eax
	jne	.L1030
.LVL1499:
	.loc 1 2277 0
	xorl	%eax, %eax
	cmpq	%rsi, %rdi
	setle	%al
	.loc 1 2278 0
	addq	$8, %rsp
	.cfi_def_cfa_offset 8
	.loc 1 2277 0
	addq	%rax, %rax
	.loc 1 2278 0
	ret
	.cfi_endproc
.LFE177:
	.size	gt, .-gt
	.p2align 4,,15
	.globl	ge
	.type	ge, @function
ge:
.LFB178:
	.loc 1 2279 0
	.cfi_startproc
.LVL1500:
	subq	$8, %rsp
	.cfi_def_cfa_offset 16
.LBB3569:
.LBB3570:
	.loc 1 2157 0
	cmpq	$2, %rdi
	je	.L1046
	.loc 1 2159 0
	movq	%rdi, %rdx
	shrq	$63, %rdx
	leaq	(%rdi,%rdx), %rax
	andl	$1, %eax
	subq	%rdx, %rax
	cmpq	$1, %rax
	je	.L1059
.L1047:
.LVL1501:
.LBE3570:
.LBE3569:
.LBB3577:
.LBB3578:
	.loc 1 2157 0
	cmpq	$2, %rsi
	je	.L1046
	.loc 1 2159 0
	movq	%rsi, %rdx
	shrq	$63, %rdx
	leaq	(%rsi,%rdx), %rax
	andl	$1, %eax
	subq	%rdx, %rax
	cmpq	$1, %rax
	je	.L1060
.LVL1502:
.LBE3578:
.LBE3577:
	.loc 1 2284 0
	xorl	%eax, %eax
	cmpq	%rsi, %rdi
	setl	%al
	.loc 1 2285 0
	addq	$8, %rsp
	.cfi_remember_state
	.cfi_def_cfa_offset 8
	.loc 1 2284 0
	addq	%rax, %rax
	.loc 1 2285 0
	ret
.LVL1503:
	.p2align 4,,10
	.p2align 3
.L1059:
	.cfi_restore_state
.LBB3585:
.LBB3576:
.LBB3571:
.LBB3572:
.LBB3573:
.LBB3574:
.LBB3575:
	.loc 1 2144 0
	movq	%rdi, %rdx
	andq	CLEAR_ARRAY_OBJ_MASK(%rip), %rdx
.LVL1504:
.LBE3575:
.LBE3574:
	.loc 1 2161 0
	movb	$4, %al
	cmpq	$4, (%rdx)
	cmovbe	(%rdx), %rax
.LBE3573:
.LBE3572:
.LBE3571:
.LBE3576:
.LBE3585:
	.loc 1 2280 0
	testl	%eax, %eax
	je	.L1047
.LVL1505:
.L1046:
	.loc 1 2280 0 is_stmt 0 discriminator 1
	movl	$__PRETTY_FUNCTION__.5174, %ecx
	movl	$2280, %edx
	movl	$.LC0, %esi
.LVL1506:
	movl	$.LC12, %edi
.LVL1507:
	call	__assert_fail
.LVL1508:
	.p2align 4,,10
	.p2align 3
.L1060:
.LBB3586:
.LBB3584:
.LBB3579:
.LBB3580:
.LBB3581:
.LBB3582:
.LBB3583:
	.loc 1 2144 0 is_stmt 1
	movq	%rsi, %rdx
	andq	CLEAR_ARRAY_OBJ_MASK(%rip), %rdx
.LVL1509:
.LBE3583:
.LBE3582:
	.loc 1 2161 0
	movb	$4, %al
	cmpq	$4, (%rdx)
	cmovbe	(%rdx), %rax
.LBE3581:
.LBE3580:
.LBE3579:
.LBE3584:
.LBE3586:
	.loc 1 2280 0
	testl	%eax, %eax
	jne	.L1046
.LVL1510:
	.loc 1 2284 0
	xorl	%eax, %eax
	cmpq	%rsi, %rdi
	setl	%al
	.loc 1 2285 0
	addq	$8, %rsp
	.cfi_def_cfa_offset 8
	.loc 1 2284 0
	addq	%rax, %rax
	.loc 1 2285 0
	ret
	.cfi_endproc
.LFE178:
	.size	ge, .-ge
	.section	.rodata.str1.1
.LC25:
	.string	"%d"
.LC26:
	.string	"Null"
.LC27:
	.string	"["
.LC28:
	.string	"]"
.LC29:
	.string	","
.LC30:
	.string	"[OBJECT]"
.LC31:
	.string	"BROKEN_HEART to %lx"
	.text
	.p2align 4,,15
	.globl	print_ivalue
	.type	print_ivalue, @function
print_ivalue:
.LFB179:
	.loc 1 2287 0
	.cfi_startproc
.LVL1511:
	pushq	%r15
	.cfi_def_cfa_offset 16
	.cfi_offset 15, -16
	pushq	%r14
	.cfi_def_cfa_offset 24
	.cfi_offset 14, -24
	pushq	%r13
	.cfi_def_cfa_offset 32
	.cfi_offset 13, -32
	pushq	%r12
	.cfi_def_cfa_offset 40
	.cfi_offset 12, -40
	pushq	%rbp
	.cfi_def_cfa_offset 48
	.cfi_offset 6, -48
	pushq	%rbx
	.cfi_def_cfa_offset 56
	.cfi_offset 3, -56
	subq	$8, %rsp
	.cfi_def_cfa_offset 64
.LBB3689:
.LBB3690:
	.loc 1 2157 0
	cmpq	$2, %rdi
	je	.L1062
	.loc 1 2159 0
	movq	%rdi, %rdx
	shrq	$63, %rdx
	leaq	(%rdi,%rdx), %rax
	andl	$1, %eax
	subq	%rdx, %rax
	cmpq	$1, %rax
	je	.L1093
.L1063:
.LVL1512:
.LBE3690:
.LBE3689:
	.loc 1 2310 0
	addq	$8, %rsp
	.cfi_remember_state
	.cfi_def_cfa_offset 56
.LBB3697:
.LBB3698:
	.loc 1 2151 0
	movq	%rdi, %rdx
.LBE3698:
.LBE3697:
.LBB3700:
.LBB3701:
	.loc 2 105 0
	movl	$.LC25, %esi
.LBE3701:
.LBE3700:
	.loc 1 2310 0
	popq	%rbx
	.cfi_def_cfa_offset 48
	popq	%rbp
	.cfi_def_cfa_offset 40
	popq	%r12
	.cfi_def_cfa_offset 32
	popq	%r13
	.cfi_def_cfa_offset 24
	popq	%r14
	.cfi_def_cfa_offset 16
	popq	%r15
	.cfi_def_cfa_offset 8
.LBB3703:
.LBB3699:
	.loc 1 2151 0
	sarq	$3, %rdx
.LBE3699:
.LBE3703:
.LBB3704:
.LBB3702:
	.loc 2 105 0
	movl	$1, %edi
.LVL1513:
	xorl	%eax, %eax
	jmp	__printf_chk
.LVL1514:
	.p2align 4,,10
	.p2align 3
.L1093:
	.cfi_restore_state
.LBE3702:
.LBE3704:
.LBB3705:
.LBB3696:
.LBB3691:
.LBB3692:
.LBB3693:
.LBB3694:
.LBB3695:
	.loc 1 2144 0
	movq	%rdi, %r13
	andq	CLEAR_ARRAY_OBJ_MASK(%rip), %r13
.LVL1515:
.LBE3695:
.LBE3694:
	.loc 1 2161 0
	movb	$4, %al
	cmpq	$4, 0(%r13)
	cmovbe	0(%r13), %rax
.LBE3693:
.LBE3692:
.LBE3691:
.LBE3696:
.LBE3705:
	.loc 1 2288 0
	cmpl	$2, %eax
	je	.L1064
	jbe	.L1094
	cmpl	$3, %eax
	je	.L1066
	cmpl	$4, %eax
.LBB3706:
.LBB3707:
	.loc 2 105 0
	movl	$.LC30, %esi
.LBE3707:
.LBE3706:
	.loc 1 2288 0
	jne	.L1063
.LVL1516:
	.p2align 4,,10
	.p2align 3
.L1092:
	.loc 1 2310 0
	addq	$8, %rsp
	.cfi_remember_state
	.cfi_def_cfa_offset 56
.LBB3708:
.LBB3709:
.LBB3710:
.LBB3711:
	.loc 2 105 0
	movl	$1, %edi
	xorl	%eax, %eax
.LBE3711:
.LBE3710:
.LBE3709:
.LBE3708:
	.loc 1 2310 0
	popq	%rbx
	.cfi_def_cfa_offset 48
	popq	%rbp
	.cfi_def_cfa_offset 40
	popq	%r12
	.cfi_def_cfa_offset 32
	popq	%r13
	.cfi_def_cfa_offset 24
	popq	%r14
	.cfi_def_cfa_offset 16
	popq	%r15
	.cfi_def_cfa_offset 8
.LBB3767:
.LBB3764:
.LBB3714:
.LBB3712:
	.loc 2 105 0
	jmp	__printf_chk
.LVL1517:
	.p2align 4,,10
	.p2align 3
.L1064:
	.cfi_restore_state
.LBE3712:
.LBE3714:
.LBB3715:
.LBB3716:
	xorl	%eax, %eax
	movl	$.LC27, %esi
	movl	$1, %edi
.LVL1518:
	call	__printf_chk
.LVL1519:
.LBE3716:
.LBE3715:
.LBB3717:
	.loc 1 2340 0
	xorl	%r14d, %r14d
	cmpq	$0, 8(%r13)
	movl	$1, %r15d
	jle	.L1082
	.loc 1 2344 0
	movslq	%r14d, %rax
	movq	16(%r13,%rax,8), %rdx
.LVL1520:
.LBB3718:
.LBB3719:
.LBB3720:
.LBB3721:
	.loc 1 2157 0
	cmpq	$2, %rdx
	je	.L1070
.LVL1521:
.L1096:
	.loc 1 2159 0
	movq	%rdx, %rcx
	shrq	$63, %rcx
	leaq	(%rdx,%rcx), %rax
	andl	$1, %eax
	subq	%rcx, %rax
	cmpq	$1, %rax
	je	.L1095
.L1071:
.LVL1522:
.LBE3721:
.LBE3720:
.LBB3729:
.LBB3730:
	.loc 1 2151 0
	sarq	$3, %rdx
.LBE3730:
.LBE3729:
.LBB3731:
.LBB3732:
	.loc 2 105 0
	movl	$.LC25, %esi
	movl	$1, %edi
	xorl	%eax, %eax
	call	__printf_chk
.LVL1523:
.L1076:
.LBE3732:
.LBE3731:
.LBE3719:
.LBE3718:
	.loc 1 2340 0
	addl	$1, %r14d
.LVL1524:
	cmpq	8(%r13), %r15
	jge	.L1082
.LVL1525:
.LBB3754:
.LBB3755:
	.loc 2 105 0
	xorl	%eax, %eax
	movl	$.LC29, %esi
	movl	$1, %edi
	call	__printf_chk
.LVL1526:
.LBE3755:
.LBE3754:
	.loc 1 2344 0
	movslq	%r14d, %rax
.LVL1527:
	addq	$1, %r15
	movq	16(%r13,%rax,8), %rdx
.LBB3756:
.LBB3750:
.LBB3733:
.LBB3727:
	.loc 1 2157 0
	cmpq	$2, %rdx
	jne	.L1096
.LVL1528:
.L1070:
.LBE3727:
.LBE3733:
.LBB3734:
.LBB3735:
	.loc 2 105 0
	movl	$.LC26, %esi
	movl	$1, %edi
	xorl	%eax, %eax
	call	__printf_chk
.LVL1529:
	jmp	.L1076
.LVL1530:
	.p2align 4,,10
	.p2align 3
.L1094:
.LBE3735:
.LBE3734:
.LBE3750:
.LBE3756:
.LBE3717:
.LBE3764:
.LBE3767:
	.loc 1 2288 0
	cmpl	$1, %eax
	jne	.L1063
.LVL1531:
	.p2align 4,,10
	.p2align 3
.L1062:
.LBB3768:
.LBB3769:
	.loc 2 105 0
	movl	$.LC26, %esi
	jmp	.L1092
.LVL1532:
	.p2align 4,,10
	.p2align 3
.L1095:
.LBE3769:
.LBE3768:
.LBB3770:
.LBB3765:
.LBB3760:
.LBB3757:
.LBB3751:
.LBB3736:
.LBB3728:
.LBB3722:
.LBB3723:
.LBB3724:
.LBB3725:
.LBB3726:
	.loc 1 2144 0
	movq	%rdx, %rbp
	andq	CLEAR_ARRAY_OBJ_MASK(%rip), %rbp
.LVL1533:
.LBE3726:
.LBE3725:
	.loc 1 2161 0
	movb	$4, %al
	cmpq	$4, 0(%rbp)
	cmovbe	0(%rbp), %rax
.LBE3724:
.LBE3723:
.LBE3722:
.LBE3728:
.LBE3736:
	.loc 1 2288 0
	cmpl	$2, %eax
	je	.L1072
	jbe	.L1097
	cmpl	$3, %eax
	je	.L1074
	cmpl	$4, %eax
	.p2align 4,,5
	jne	.L1071
.LVL1534:
.LBB3737:
.LBB3738:
	.loc 2 105 0
	movl	$.LC30, %esi
	movl	$1, %edi
	xorl	%eax, %eax
	call	__printf_chk
.LVL1535:
	jmp	.L1076
.LVL1536:
	.p2align 4,,10
	.p2align 3
.L1074:
.LBE3738:
.LBE3737:
.LBB3739:
.LBB3740:
	movq	8(%rbp), %rdx
	movl	$.LC31, %esi
	movl	$1, %edi
	xorl	%eax, %eax
	call	__printf_chk
.LVL1537:
	jmp	.L1076
.LVL1538:
	.p2align 4,,10
	.p2align 3
.L1066:
.LBE3740:
.LBE3739:
.LBE3751:
.LBE3757:
.LBE3760:
.LBE3765:
.LBE3770:
.LBB3771:
.LBB3772:
	movq	8(%r13), %rdx
.LBE3772:
.LBE3771:
	.loc 1 2310 0
	addq	$8, %rsp
	.cfi_remember_state
	.cfi_def_cfa_offset 56
.LBB3775:
.LBB3773:
	.loc 2 105 0
	movl	$.LC31, %esi
.LBE3773:
.LBE3775:
	.loc 1 2310 0
	popq	%rbx
	.cfi_def_cfa_offset 48
	popq	%rbp
	.cfi_def_cfa_offset 40
	popq	%r12
	.cfi_def_cfa_offset 32
	popq	%r13
	.cfi_def_cfa_offset 24
.LVL1539:
	popq	%r14
	.cfi_def_cfa_offset 16
	popq	%r15
	.cfi_def_cfa_offset 8
.LBB3776:
.LBB3774:
	.loc 2 105 0
	movl	$1, %edi
.LVL1540:
	xorl	%eax, %eax
	jmp	__printf_chk
.LVL1541:
	.p2align 4,,10
	.p2align 3
.L1072:
	.cfi_restore_state
.LBE3774:
.LBE3776:
.LBB3777:
.LBB3766:
.LBB3761:
.LBB3758:
.LBB3752:
.LBB3741:
.LBB3742:
.LBB3743:
.LBB3744:
	xorl	%eax, %eax
	movl	$.LC27, %esi
	movl	$1, %edi
	call	__printf_chk
.LVL1542:
.LBE3744:
.LBE3743:
.LBB3745:
	.loc 1 2340 0
	xorl	%ebx, %ebx
	cmpq	$0, 8(%rbp)
	movl	$1, %r12d
	jle	.L1080
.LVL1543:
	.p2align 4,,10
	.p2align 3
.L1087:
	.loc 1 2344 0
	movslq	%ebx, %rax
	.loc 1 2340 0
	addl	$1, %ebx
	.loc 1 2344 0
	movq	16(%rbp,%rax,8), %rdi
	call	print_ivalue
.LVL1544:
	.loc 1 2340 0
	cmpq	8(%rbp), %r12
	jge	.L1080
.LVL1545:
.LBB3746:
.LBB3747:
	.loc 2 105 0
	movl	$.LC29, %esi
	movl	$1, %edi
	xorl	%eax, %eax
	call	__printf_chk
.LVL1546:
	addq	$1, %r12
	jmp	.L1087
.LVL1547:
	.p2align 4,,10
	.p2align 3
.L1080:
.LBE3747:
.LBE3746:
.LBE3745:
.LBB3748:
.LBB3749:
	movl	$.LC28, %esi
	movl	$1, %edi
	xorl	%eax, %eax
	call	__printf_chk
.LVL1548:
	jmp	.L1076
.LVL1549:
	.p2align 4,,10
	.p2align 3
.L1082:
.LBE3749:
.LBE3748:
.LBE3742:
.LBE3741:
.LBE3752:
.LBE3758:
.LBE3761:
.LBB3762:
.LBB3713:
	movl	$.LC28, %esi
	jmp	.L1092
.LVL1550:
	.p2align 4,,10
	.p2align 3
.L1097:
.LBE3713:
.LBE3762:
.LBB3763:
.LBB3759:
.LBB3753:
	.loc 1 2288 0
	cmpl	$1, %eax
	jne	.L1071
	jmp	.L1070
.LBE3753:
.LBE3759:
.LBE3763:
.LBE3766:
.LBE3777:
	.cfi_endproc
.LFE179:
	.size	print_ivalue, .-print_ivalue
	.section	.rodata.str1.1
.LC32:
	.string	"%s"
	.text
	.p2align 4,,15
	.globl	exec_printf_op
	.type	exec_printf_op, @function
exec_printf_op:
.LFB102:
	.loc 1 822 0
	.cfi_startproc
.LVL1551:
	pushq	%r15
	.cfi_def_cfa_offset 16
	.cfi_offset 15, -16
.LVL1552:
	pushq	%r14
	.cfi_def_cfa_offset 24
	.cfi_offset 14, -24
	pushq	%r13
	.cfi_def_cfa_offset 32
	.cfi_offset 13, -32
	pushq	%r12
	.cfi_def_cfa_offset 40
	.cfi_offset 12, -40
	pushq	%rbp
	.cfi_def_cfa_offset 48
	.cfi_offset 6, -48
	pushq	%rbx
	.cfi_def_cfa_offset 56
	.cfi_offset 3, -56
	subq	$24, %rsp
	.cfi_def_cfa_offset 80
	.loc 1 825 0
	movl	8(%rdi), %r14d
.LVL1553:
.LBB3778:
.LBB3779:
	.loc 1 1351 0
	movl	4(%rdi), %esi
	movq	strs(%rip), %rdi
.LVL1554:
	call	vector_get
.LVL1555:
.LBE3779:
.LBE3778:
	.loc 1 831 0
	movq	stack_pointer(%rip), %r12
.LBB3781:
.LBB3780:
	.loc 1 1351 0
	movq	%rax, %r13
.LVL1556:
.LBE3780:
.LBE3781:
	.loc 1 831 0
	movslq	%r14d, %rax
.LVL1557:
	salq	$3, %rax
	.loc 1 832 0
	movq	%r13, %rdi
	.loc 1 831 0
	subq	%rax, %r12
.LVL1558:
	.loc 1 832 0
	call	strlen
.LVL1559:
.LBB3782:
	.loc 1 833 0
	testl	%eax, %eax
.LBE3782:
	.loc 1 832 0
	movq	%rax, %r15
.LVL1560:
.LBB3785:
	.loc 1 833 0
	jle	.L1105
	leal	-1(%rax), %eax
.LVL1561:
	leaq	1(%r13), %rbx
.LBE3785:
	.loc 1 828 0
	movq	%r13, %rdx
	leaq	2(%r13,%rax), %rbp
	jmp	.L1101
.LVL1562:
	.p2align 4,,10
	.p2align 3
.L1100:
	addq	$1, %rbx
.LBB3786:
	.loc 1 833 0
	cmpq	%rbp, %rbx
	je	.L1099
.L1101:
	.loc 1 834 0
	cmpb	$126, -1(%rbx)
	jne	.L1100
	.loc 1 835 0
	movb	$0, -1(%rbx)
.LVL1563:
.LBB3783:
.LBB3784:
	.loc 2 105 0
	movl	$.LC32, %esi
	movl	$1, %edi
	xorl	%eax, %eax
	call	__printf_chk
.LVL1564:
.LBE3784:
.LBE3783:
	.loc 1 837 0
	movq	(%r12), %rdi
	leaq	8(%r12), %rax
	movq	%rax, 8(%rsp)
.LVL1565:
	call	print_ivalue
.LVL1566:
	.loc 1 839 0
	movb	$126, -1(%rbx)
	.loc 1 838 0
	movq	%rbx, %rdx
	addq	$1, %rbx
.LVL1567:
	.loc 1 833 0
	cmpq	%rbp, %rbx
	.loc 1 837 0
	movq	8(%rsp), %r12
.LVL1568:
	.loc 1 833 0
	jne	.L1101
.LVL1569:
	.p2align 4,,10
	.p2align 3
.L1099:
.LBE3786:
	.loc 1 844 0
	movslq	%r15d, %rcx
	addq	%rcx, %r13
	cmpq	%r13, %rdx
	jb	.L1107
.LVL1570:
.L1102:
.LBB3787:
	.loc 1 848 0 discriminator 1
	testl	%r14d, %r14d
	movq	stack_pointer(%rip), %rax
	jle	.L1104
.LVL1571:
	movq	stack_pointer(%rip), %rax
	subl	$1, %r14d
.LVL1572:
	notq	%r14
	leaq	(%rax,%r14,8), %rax
	movq	%rax, stack_pointer(%rip)
.LVL1573:
.L1104:
.LBE3787:
.LBB3788:
.LBB3789:
	.loc 1 392 0
	movq	$2, (%rax)
	.loc 1 393 0
	addq	$8, stack_pointer(%rip)
.LBE3789:
.LBE3788:
	.loc 1 852 0
	addq	$24, %rsp
	.cfi_remember_state
	.cfi_def_cfa_offset 56
	popq	%rbx
	.cfi_def_cfa_offset 48
	popq	%rbp
	.cfi_def_cfa_offset 40
	popq	%r12
	.cfi_def_cfa_offset 32
.LVL1574:
	popq	%r13
	.cfi_def_cfa_offset 24
	popq	%r14
	.cfi_def_cfa_offset 16
	popq	%r15
	.cfi_def_cfa_offset 8
	ret
.LVL1575:
	.p2align 4,,10
	.p2align 3
.L1107:
	.cfi_restore_state
.LBB3790:
.LBB3791:
	.loc 2 105 0
	movl	$.LC32, %esi
	movl	$1, %edi
	xorl	%eax, %eax
	call	__printf_chk
.LVL1576:
	jmp	.L1102
.LVL1577:
.L1105:
.LBE3791:
.LBE3790:
	.loc 1 828 0
	movq	%r13, %rdx
	jmp	.L1099
	.cfi_endproc
.LFE102:
	.size	exec_printf_op, .-exec_printf_op
	.p2align 4,,15
	.globl	debug_ivalue
	.type	debug_ivalue, @function
debug_ivalue:
.LFB180:
	.loc 1 2312 0
	.cfi_startproc
.LBB3958:
.LBB3959:
	.loc 1 2157 0
	cmpq	$2, %rdi
	je	.L1146
	.loc 1 2159 0
	movq	%rdi, %rdx
	shrq	$63, %rdx
	leaq	(%rdi,%rdx), %rax
	andl	$1, %eax
	subq	%rdx, %rax
	cmpq	$1, %rax
	je	.L1147
.L1146:
.LBE3959:
.LBE3958:
	.loc 1 2336 0
	ret
	.p2align 4,,10
	.p2align 3
.L1147:
	.loc 1 2312 0
	pushq	%r15
	.cfi_def_cfa_offset 16
	.cfi_offset 15, -16
	pushq	%r14
	.cfi_def_cfa_offset 24
	.cfi_offset 14, -24
	pushq	%r13
	.cfi_def_cfa_offset 32
	.cfi_offset 13, -32
	pushq	%r12
	.cfi_def_cfa_offset 40
	.cfi_offset 12, -40
	pushq	%rbp
	.cfi_def_cfa_offset 48
	.cfi_offset 6, -48
	pushq	%rbx
	.cfi_def_cfa_offset 56
	.cfi_offset 3, -56
	subq	$56, %rsp
	.cfi_def_cfa_offset 112
.LBB3968:
.LBB3967:
.LBB3960:
.LBB3961:
.LBB3962:
.LBB3963:
.LBB3964:
	.loc 1 2144 0
	movq	CLEAR_ARRAY_OBJ_MASK(%rip), %rax
	andq	%rax, %rdi
	movq	%rax, 24(%rsp)
.LBE3964:
.LBE3963:
	.loc 1 2161 0
	movl	$4, %eax
.LBB3966:
.LBB3965:
	.loc 1 2145 0
	movq	(%rdi), %r15
	.loc 1 2144 0
	movq	%rdi, %rbp
.LBE3965:
.LBE3966:
	.loc 1 2161 0
	cmpq	$4, %r15
	cmovbe	%r15, %rax
.LBE3962:
.LBE3961:
.LBE3960:
.LBE3967:
.LBE3968:
	.loc 1 2314 0
	cmpl	$2, %eax
	je	.L1110
	cmpl	$4, %eax
	jne	.L1108
.LBB3969:
.LBB3970:
.LBB3971:
.LBB3972:
.LBB3973:
	.loc 1 2365 0
	movl	4(%r15), %r14d
	addl	(%r15), %r14d
	testl	%r14d, %r14d
	jle	.L1108
	xorl	%ebx, %ebx
	jmp	.L1131
	.p2align 4,,10
	.p2align 3
.L1125:
	addq	$1, %rbx
	cmpl	%ebx, %r14d
	jle	.L1108
.L1131:
	.loc 1 2367 0
	cmpl	$-3, 12(%r15,%rbx,8)
	jne	.L1125
	.loc 1 2370 0
	movq	16(%rbp,%rbx,8), %r12
.LBB3974:
.LBB3975:
.LBB3976:
.LBB3977:
	.loc 1 2157 0
	cmpq	$2, %r12
	je	.L1125
	.loc 1 2159 0
	movq	%r12, %rcx
	shrq	$63, %rcx
	leaq	(%r12,%rcx), %rax
	andl	$1, %eax
	subq	%rcx, %rax
	cmpq	$1, %rax
	jne	.L1125
.LBB3978:
.LBB3979:
.LBB3980:
.LBB3981:
.LBB3982:
	.loc 1 2144 0
	andq	24(%rsp), %r12
.LBE3982:
.LBE3981:
	.loc 1 2161 0
	movb	$4, %al
	cmpq	$4, (%r12)
	cmovbe	(%r12), %rax
.LBE3980:
.LBE3979:
.LBE3978:
.LBE3977:
.LBE3976:
	.loc 1 2314 0
	cmpl	$2, %eax
	je	.L1126
	cmpl	$4, %eax
	jne	.L1125
.LBB3983:
.LBB3984:
.LBB3985:
.LBB3986:
	.loc 1 2362 0
	movq	(%r12), %rcx
.LBB3987:
	.loc 1 2365 0
	movl	4(%rcx), %eax
	addl	(%rcx), %eax
	testl	%eax, %eax
	jle	.L1125
	xorl	%r13d, %r13d
	jmp	.L1130
	.p2align 4,,10
	.p2align 3
.L1129:
	addq	$1, %r13
	cmpl	%r13d, %eax
	jle	.L1125
.L1130:
	.loc 1 2367 0
	cmpl	$-3, 12(%rcx,%r13,8)
	jne	.L1129
	.loc 1 2370 0
	movq	16(%r12,%r13,8), %rdi
	movq	%rcx, 16(%rsp)
	movl	%eax, 8(%rsp)
	call	debug_ivalue
	movq	16(%rsp), %rcx
	movl	8(%rsp), %eax
	jmp	.L1129
	.p2align 4,,10
	.p2align 3
.L1110:
.LBE3987:
.LBE3986:
.LBE3985:
.LBE3984:
.LBE3983:
.LBE3975:
.LBE3974:
.LBE3973:
.LBE3972:
.LBE3971:
.LBE3970:
.LBE3969:
.LBB3997:
.LBB3998:
.LBB3999:
	.loc 1 2351 0
	movq	8(%rdi), %rax
	testq	%rax, %rax
	movq	%rax, 16(%rsp)
	jle	.L1108
	xorl	%ebx, %ebx
.L1124:
	.loc 1 2355 0
	movslq	%ebx, %rax
	movq	16(%rbp,%rax,8), %r15
.LBB4000:
.LBB4001:
.LBB4002:
.LBB4003:
	.loc 1 2157 0
	cmpq	$2, %r15
	je	.L1112
	.loc 1 2159 0
	movq	%r15, %rdx
	shrq	$63, %rdx
	leaq	(%r15,%rdx), %rax
	andl	$1, %eax
	subq	%rdx, %rax
	cmpq	$1, %rax
	je	.L1148
.L1112:
	addq	$1, %rbx
.LBE4003:
.LBE4002:
.LBE4001:
.LBE4000:
	.loc 1 2351 0
	cmpq	16(%rsp), %rbx
	jne	.L1124
	.p2align 4,,10
	.p2align 3
.L1108:
.LBE3999:
.LBE3998:
.LBE3997:
	.loc 1 2336 0
	addq	$56, %rsp
	.cfi_remember_state
	.cfi_def_cfa_offset 56
	popq	%rbx
	.cfi_restore 3
	.cfi_def_cfa_offset 48
	popq	%rbp
	.cfi_restore 6
	.cfi_def_cfa_offset 40
	popq	%r12
	.cfi_restore 12
	.cfi_def_cfa_offset 32
	popq	%r13
	.cfi_restore 13
	.cfi_def_cfa_offset 24
	popq	%r14
	.cfi_restore 14
	.cfi_def_cfa_offset 16
	popq	%r15
	.cfi_restore 15
	.cfi_def_cfa_offset 8
	ret
	.p2align 4,,10
	.p2align 3
.L1148:
	.cfi_restore_state
.LBB4046:
.LBB4045:
.LBB4044:
.LBB4043:
.LBB4042:
.LBB4012:
.LBB4011:
.LBB4004:
.LBB4005:
.LBB4006:
.LBB4007:
.LBB4008:
	.loc 1 2144 0
	andq	24(%rsp), %r15
.LBE4008:
.LBE4007:
	.loc 1 2161 0
	movb	$4, %al
.LBB4010:
.LBB4009:
	.loc 1 2145 0
	movq	(%r15), %r13
.LBE4009:
.LBE4010:
	.loc 1 2161 0
	cmpq	$4, %r13
	cmovbe	%r13, %rax
.LBE4006:
.LBE4005:
.LBE4004:
.LBE4011:
.LBE4012:
	.loc 1 2314 0
	cmpl	$2, %eax
	je	.L1113
	cmpl	$4, %eax
	jne	.L1112
.LBB4013:
.LBB4014:
.LBB4015:
.LBB4016:
.LBB4017:
	.loc 1 2365 0
	movl	4(%r13), %r14d
	addl	0(%r13), %r14d
	testl	%r14d, %r14d
	jle	.L1112
	xorl	%r12d, %r12d
	jmp	.L1123
	.p2align 4,,10
	.p2align 3
.L1122:
	addq	$1, %r12
	cmpl	%r12d, %r14d
	jle	.L1112
.L1123:
	.loc 1 2367 0
	cmpl	$-3, 12(%r13,%r12,8)
	jne	.L1122
	.loc 1 2370 0
	movq	16(%r15,%r12,8), %rdi
	call	debug_ivalue
	jmp	.L1122
	.p2align 4,,10
	.p2align 3
.L1113:
.LBE4017:
.LBE4016:
.LBE4015:
.LBE4014:
.LBE4013:
.LBB4018:
.LBB4019:
.LBB4020:
	.loc 1 2351 0
	movq	8(%r15), %rax
	testq	%rax, %rax
	movq	%rax, 32(%rsp)
	jle	.L1112
	xorl	%r13d, %r13d
.L1121:
	.loc 1 2355 0
	movslq	%r13d, %rax
	movq	16(%r15,%rax,8), %r12
.LBB4021:
.LBB4022:
.LBB4023:
.LBB4024:
	.loc 1 2157 0
	cmpq	$2, %r12
	je	.L1115
	.loc 1 2159 0
	movq	%r12, %rdx
	shrq	$63, %rdx
	leaq	(%r12,%rdx), %rax
	andl	$1, %eax
	subq	%rdx, %rax
	cmpq	$1, %rax
	je	.L1149
.L1115:
	addq	$1, %r13
.LBE4024:
.LBE4023:
.LBE4022:
.LBE4021:
	.loc 1 2351 0
	cmpq	32(%rsp), %r13
	jne	.L1121
	jmp	.L1112
	.p2align 4,,10
	.p2align 3
.L1149:
.LBB4041:
.LBB4040:
.LBB4031:
.LBB4030:
.LBB4025:
.LBB4026:
.LBB4027:
.LBB4028:
.LBB4029:
	.loc 1 2144 0
	andq	24(%rsp), %r12
.LBE4029:
.LBE4028:
	.loc 1 2161 0
	movb	$4, %al
	cmpq	$4, (%r12)
	cmovbe	(%r12), %rax
.LBE4027:
.LBE4026:
.LBE4025:
.LBE4030:
.LBE4031:
	.loc 1 2314 0
	cmpl	$2, %eax
	je	.L1116
	cmpl	$4, %eax
	jne	.L1115
.LBB4032:
.LBB4033:
.LBB4034:
.LBB4035:
	.loc 1 2362 0
	movq	(%r12), %rdx
.LBB4036:
	.loc 1 2365 0
	movl	4(%rdx), %eax
	addl	(%rdx), %eax
	testl	%eax, %eax
	jle	.L1115
	xorl	%r14d, %r14d
	jmp	.L1120
	.p2align 4,,10
	.p2align 3
.L1119:
	addq	$1, %r14
	cmpl	%r14d, %eax
	jle	.L1115
.L1120:
	.loc 1 2367 0
	cmpl	$-3, 12(%rdx,%r14,8)
	jne	.L1119
	.loc 1 2370 0
	movq	16(%r12,%r14,8), %rdi
	movl	%eax, 44(%rsp)
	movq	%rdx, 8(%rsp)
	call	debug_ivalue
	movl	44(%rsp), %eax
	movq	8(%rsp), %rdx
	jmp	.L1119
	.p2align 4,,10
	.p2align 3
.L1116:
.LBE4036:
.LBE4035:
.LBE4034:
.LBE4033:
.LBE4032:
.LBB4037:
.LBB4038:
.LBB4039:
	.loc 1 2351 0
	movq	8(%r12), %rax
	testq	%rax, %rax
	movq	%rax, 8(%rsp)
	jle	.L1115
	xorl	%r14d, %r14d
	.p2align 4,,10
	.p2align 3
.L1118:
	.loc 1 2355 0
	movslq	%r14d, %rdx
	addq	$1, %r14
	movq	16(%r12,%rdx,8), %rdi
	call	debug_ivalue
	.loc 1 2351 0
	cmpq	8(%rsp), %r14
	jne	.L1118
	jmp	.L1115
.L1126:
.LBE4039:
.LBE4038:
.LBE4037:
.LBE4040:
.LBE4041:
.LBE4020:
.LBE4019:
.LBE4018:
.LBE4042:
.LBE4043:
.LBE4044:
.LBE4045:
.LBE4046:
.LBB4047:
.LBB3996:
.LBB3995:
.LBB3994:
.LBB3993:
.LBB3992:
.LBB3991:
.LBB3988:
.LBB3989:
.LBB3990:
	movq	8(%r12), %rax
	testq	%rax, %rax
	movq	%rax, 8(%rsp)
	jle	.L1125
	xorl	%r13d, %r13d
	.p2align 4,,10
	.p2align 3
.L1128:
	.loc 1 2355 0
	movslq	%r13d, %rcx
	addq	$1, %r13
	movq	16(%r12,%rcx,8), %rdi
	call	debug_ivalue
	.loc 1 2351 0
	cmpq	8(%rsp), %r13
	jne	.L1128
	jmp	.L1125
.LBE3990:
.LBE3989:
.LBE3988:
.LBE3991:
.LBE3992:
.LBE3993:
.LBE3994:
.LBE3995:
.LBE3996:
.LBE4047:
	.cfi_endproc
.LFE180:
	.size	debug_ivalue, .-debug_ivalue
	.p2align 4,,15
	.globl	debug_stack
	.type	debug_stack, @function
debug_stack:
.LFB114:
	.loc 1 1192 0
	.cfi_startproc
	pushq	%r15
	.cfi_def_cfa_offset 16
	.cfi_offset 15, -16
	pushq	%r14
	.cfi_def_cfa_offset 24
	.cfi_offset 14, -24
	pushq	%r13
	.cfi_def_cfa_offset 32
	.cfi_offset 13, -32
	pushq	%r12
	.cfi_def_cfa_offset 40
	.cfi_offset 12, -40
	pushq	%rbp
	.cfi_def_cfa_offset 48
	.cfi_offset 6, -48
	pushq	%rbx
	.cfi_def_cfa_offset 56
	.cfi_offset 3, -56
	subq	$24, %rsp
	.cfi_def_cfa_offset 80
.LBB4091:
	.loc 1 1194 0
	movq	stack_pointer(%rip), %rax
	leaq	-8(%rax), %rbp
.LVL1578:
	cmpq	$stack, %rbp
	jb	.L1150
.LBB4092:
.LBB4093:
.LBB4094:
.LBB4095:
.LBB4096:
.LBB4097:
.LBB4098:
.LBB4099:
.LBB4100:
.LBB4101:
	.loc 1 2144 0
	movq	CLEAR_ARRAY_OBJ_MASK(%rip), %rax
.LBE4101:
.LBE4100:
	.loc 1 2161 0
	movl	$4, %r13d
.LBB4104:
.LBB4102:
	.loc 1 2144 0
	movq	%rax, 8(%rsp)
.L1158:
.LBE4102:
.LBE4104:
.LBE4099:
.LBE4098:
.LBE4097:
.LBE4096:
.LBE4095:
.LBE4094:
.LBE4093:
	.loc 1 1195 0 discriminator 2
	movq	0(%rbp), %r12
.LVL1579:
.LBB4123:
.LBB4121:
.LBB4111:
.LBB4109:
	.loc 1 2157 0 discriminator 2
	cmpq	$2, %r12
	je	.L1152
	.loc 1 2159 0
	movq	%r12, %rdx
	shrq	$63, %rdx
	leaq	(%r12,%rdx), %rax
	andl	$1, %eax
	subq	%rdx, %rax
	cmpq	$1, %rax
	je	.L1163
.LVL1580:
.L1152:
.LBE4109:
.LBE4111:
.LBE4121:
.LBE4123:
.LBE4092:
	.loc 1 1194 0 discriminator 2
	subq	$8, %rbp
.LVL1581:
	cmpq	$stack, %rbp
	jae	.L1158
.L1150:
.LBE4091:
	.loc 1 1197 0
	addq	$24, %rsp
	.cfi_remember_state
	.cfi_def_cfa_offset 56
	popq	%rbx
	.cfi_def_cfa_offset 48
	popq	%rbp
	.cfi_def_cfa_offset 40
.LVL1582:
	popq	%r12
	.cfi_def_cfa_offset 32
	popq	%r13
	.cfi_def_cfa_offset 24
	popq	%r14
	.cfi_def_cfa_offset 16
	popq	%r15
	.cfi_def_cfa_offset 8
	ret
.LVL1583:
	.p2align 4,,10
	.p2align 3
.L1163:
	.cfi_restore_state
.LBB4126:
.LBB4125:
.LBB4124:
.LBB4122:
.LBB4112:
.LBB4110:
.LBB4108:
.LBB4107:
.LBB4106:
.LBB4105:
.LBB4103:
	.loc 1 2144 0
	andq	8(%rsp), %r12
.LVL1584:
.LBE4103:
.LBE4105:
	.loc 1 2161 0
	movq	%r13, %rax
	cmpq	$4, (%r12)
	cmovbe	(%r12), %rax
.LBE4106:
.LBE4107:
.LBE4108:
.LBE4110:
.LBE4112:
	.loc 1 2314 0
	cmpl	$2, %eax
	je	.L1153
	cmpl	$4, %eax
	jne	.L1152
.LVL1585:
.LBB4113:
.LBB4114:
.LBB4115:
.LBB4116:
	.loc 1 2362 0
	movq	(%r12), %r14
.LVL1586:
.LBB4117:
	.loc 1 2365 0
	movl	4(%r14), %r15d
	addl	(%r14), %r15d
	testl	%r15d, %r15d
	jle	.L1152
	xorl	%ebx, %ebx
	jmp	.L1157
.LVL1587:
	.p2align 4,,10
	.p2align 3
.L1156:
	addq	$1, %rbx
.LVL1588:
	cmpl	%ebx, %r15d
	jle	.L1152
.L1157:
.LVL1589:
	.loc 1 2367 0
	cmpl	$-3, 12(%r14,%rbx,8)
	jne	.L1156
	.loc 1 2370 0
	movq	16(%r12,%rbx,8), %rdi
	call	debug_ivalue
.LVL1590:
	jmp	.L1156
.LVL1591:
	.p2align 4,,10
	.p2align 3
.L1153:
.LBE4117:
.LBE4116:
.LBE4115:
.LBE4114:
.LBE4113:
.LBB4118:
.LBB4119:
.LBB4120:
	.loc 1 2351 0
	movq	8(%r12), %r15
	testq	%r15, %r15
	jle	.L1152
	xorl	%ebx, %ebx
.LVL1592:
	.p2align 4,,10
	.p2align 3
.L1155:
	.loc 1 2355 0
	movslq	%ebx, %rax
	addq	$1, %rbx
.LVL1593:
	movq	16(%r12,%rax,8), %rdi
	call	debug_ivalue
.LVL1594:
	.loc 1 2351 0
	cmpq	%r15, %rbx
	jne	.L1155
	jmp	.L1152
.LBE4120:
.LBE4119:
.LBE4118:
.LBE4122:
.LBE4124:
.LBE4125:
.LBE4126:
	.cfi_endproc
.LFE114:
	.size	debug_stack, .-debug_stack
	.p2align 4,,15
	.globl	debug_frame
	.type	debug_frame, @function
debug_frame:
.LFB116:
	.loc 1 1212 0
	.cfi_startproc
	pushq	%r15
	.cfi_def_cfa_offset 16
	.cfi_offset 15, -16
	pushq	%r14
	.cfi_def_cfa_offset 24
	.cfi_offset 14, -24
	pushq	%r13
	.cfi_def_cfa_offset 32
	.cfi_offset 13, -32
	pushq	%r12
	.cfi_def_cfa_offset 40
	.cfi_offset 12, -40
	pushq	%rbp
	.cfi_def_cfa_offset 48
	.cfi_offset 6, -48
	pushq	%rbx
	.cfi_def_cfa_offset 56
	.cfi_offset 3, -56
	subq	$40, %rsp
	.cfi_def_cfa_offset 96
	.loc 1 1214 0
	movq	frame_pointer(%rip), %r13
.LVL1595:
	.loc 1 1218 0
	cmpq	$frames+1048576, %r13
	je	.L1164
.LBB4170:
.LBB4171:
.LBB4172:
.LBB4173:
.LBB4174:
.LBB4175:
.LBB4176:
.LBB4177:
.LBB4178:
.LBB4179:
.LBB4180:
	.loc 1 2144 0
	movq	CLEAR_ARRAY_OBJ_MASK(%rip), %rax
	movq	%rax, 24(%rsp)
.L1166:
.LVL1596:
.LBE4180:
.LBE4179:
.LBE4178:
.LBE4177:
.LBE4176:
.LBE4175:
.LBE4174:
.LBE4173:
.LBE4172:
.LBE4171:
	.loc 1 1220 0 discriminator 1
	movq	0(%r13), %rax
	leaq	16(%r13), %r15
	cmpq	%rax, %r15
	movq	%rax, (%rsp)
	jae	.L1174
	.loc 1 1220 0 is_stmt 0
	xorl	%ebp, %ebp
.LVL1597:
.L1175:
.LBB4202:
	.loc 1 1222 0 is_stmt 1 discriminator 2
	movslq	%ebp, %rax
	movq	16(%r13,%rax,8), %rbx
.LVL1598:
.LBB4200:
.LBB4198:
.LBB4188:
.LBB4186:
	.loc 1 2157 0 discriminator 2
	cmpq	$2, %rbx
	je	.L1167
	.loc 1 2159 0
	movq	%rbx, %rdx
	shrq	$63, %rdx
	leaq	(%rbx,%rdx), %rax
.LVL1599:
	andl	$1, %eax
	subq	%rdx, %rax
	cmpq	$1, %rax
	je	.L1186
.LVL1600:
.L1167:
	addq	$1, %rbp
.LVL1601:
	leaq	(%r15,%rbp,8), %rax
.LBE4186:
.LBE4188:
.LBE4198:
.LBE4200:
.LBE4202:
	.loc 1 1220 0 discriminator 2
	cmpq	%rax, (%rsp)
	ja	.L1175
.L1174:
.LVL1602:
.LBE4170:
	.loc 1 1218 0
	movq	(%rsp), %r13
	cmpq	$frames+1048576, %r13
	jne	.L1166
.LVL1603:
.L1164:
	.loc 1 1229 0
	addq	$40, %rsp
	.cfi_remember_state
	.cfi_def_cfa_offset 56
	popq	%rbx
	.cfi_def_cfa_offset 48
	popq	%rbp
	.cfi_def_cfa_offset 40
	popq	%r12
	.cfi_def_cfa_offset 32
	popq	%r13
	.cfi_def_cfa_offset 24
.LVL1604:
	popq	%r14
	.cfi_def_cfa_offset 16
	popq	%r15
	.cfi_def_cfa_offset 8
	ret
.LVL1605:
	.p2align 4,,10
	.p2align 3
.L1186:
	.cfi_restore_state
.LBB4204:
.LBB4203:
.LBB4201:
.LBB4199:
.LBB4189:
.LBB4187:
.LBB4185:
.LBB4184:
.LBB4183:
.LBB4182:
.LBB4181:
	.loc 1 2144 0
	andq	24(%rsp), %rbx
.LVL1606:
.LBE4181:
.LBE4182:
	.loc 1 2161 0
	movb	$4, %al
	cmpq	$4, (%rbx)
	cmovbe	(%rbx), %rax
.LBE4183:
.LBE4184:
.LBE4185:
.LBE4187:
.LBE4189:
	.loc 1 2314 0
	cmpl	$2, %eax
	je	.L1168
	cmpl	$4, %eax
	jne	.L1167
.LVL1607:
.LBB4190:
.LBB4191:
.LBB4192:
.LBB4193:
	.loc 1 2362 0
	movq	(%rbx), %rdx
.LVL1608:
.LBB4194:
	.loc 1 2365 0
	movl	4(%rdx), %eax
	addl	(%rdx), %eax
	testl	%eax, %eax
	jle	.L1167
	xorl	%r12d, %r12d
	jmp	.L1172
.LVL1609:
	.p2align 4,,10
	.p2align 3
.L1171:
	addq	$1, %r12
.LVL1610:
	cmpl	%r12d, %eax
	jle	.L1167
.L1172:
.LVL1611:
	.loc 1 2367 0
	cmpl	$-3, 12(%rdx,%r12,8)
	jne	.L1171
	.loc 1 2370 0
	movq	16(%rbx,%r12,8), %rdi
	movq	%rdx, 16(%rsp)
	movl	%eax, 12(%rsp)
	call	debug_ivalue
.LVL1612:
	movq	16(%rsp), %rdx
	movl	12(%rsp), %eax
	jmp	.L1171
.LVL1613:
	.p2align 4,,10
	.p2align 3
.L1168:
.LBE4194:
.LBE4193:
.LBE4192:
.LBE4191:
.LBE4190:
.LBB4195:
.LBB4196:
.LBB4197:
	.loc 1 2351 0
	movq	8(%rbx), %r12
	testq	%r12, %r12
	jle	.L1167
	xorl	%r14d, %r14d
.LVL1614:
	.p2align 4,,10
	.p2align 3
.L1170:
	.loc 1 2355 0
	movslq	%r14d, %rdx
	addq	$1, %r14
.LVL1615:
	movq	16(%rbx,%rdx,8), %rdi
	call	debug_ivalue
.LVL1616:
	.loc 1 2351 0
	cmpq	%r12, %r14
	jne	.L1170
	jmp	.L1167
.LBE4197:
.LBE4196:
.LBE4195:
.LBE4199:
.LBE4201:
.LBE4203:
.LBE4204:
	.cfi_endproc
.LFE116:
	.size	debug_frame, .-debug_frame
	.p2align 4,,15
	.globl	debug_globals
	.type	debug_globals, @function
debug_globals:
.LFB113:
	.loc 1 1184 0
	.cfi_startproc
.LBB4250:
	.loc 1 1186 0
	movl	max_globals(%rip), %eax
	testl	%eax, %eax
	jle	.L1201
.LBE4250:
	.loc 1 1184 0
	pushq	%r15
	.cfi_def_cfa_offset 16
	.cfi_offset 15, -16
	subl	$1, %eax
	pushq	%r14
	.cfi_def_cfa_offset 24
	.cfi_offset 14, -24
	pushq	%r13
	.cfi_def_cfa_offset 32
	.cfi_offset 13, -32
	leaq	globals+8(,%rax,8), %r13
	pushq	%r12
	.cfi_def_cfa_offset 40
	.cfi_offset 12, -40
	pushq	%rbp
	.cfi_def_cfa_offset 48
	.cfi_offset 6, -48
	movl	$globals, %ebp
	pushq	%rbx
	.cfi_def_cfa_offset 56
	.cfi_offset 3, -56
	subq	$24, %rsp
	.cfi_def_cfa_offset 80
.LBB4287:
.LBB4251:
.LBB4252:
.LBB4253:
.LBB4254:
.LBB4255:
.LBB4256:
.LBB4257:
.LBB4258:
.LBB4259:
.LBB4260:
	.loc 1 2144 0
	movq	CLEAR_ARRAY_OBJ_MASK(%rip), %rcx
	movq	%rcx, 8(%rsp)
.L1195:
.LBE4260:
.LBE4259:
.LBE4258:
.LBE4257:
.LBE4256:
.LBE4255:
.LBE4254:
.LBE4253:
.LBE4252:
.LBB4282:
.LBB4283:
	.loc 1 369 0
	movq	0(%rbp), %r12
.LBE4283:
.LBE4282:
.LBB4284:
.LBB4280:
.LBB4270:
.LBB4268:
	.loc 1 2157 0
	cmpq	$2, %r12
	je	.L1189
	.loc 1 2159 0
	movq	%r12, %rdx
	shrq	$63, %rdx
	leaq	(%r12,%rdx), %rax
	andl	$1, %eax
	subq	%rdx, %rax
	cmpq	$1, %rax
	je	.L1202
.L1189:
	addq	$8, %rbp
.LBE4268:
.LBE4270:
.LBE4280:
.LBE4284:
.LBE4251:
	.loc 1 1186 0
	cmpq	%r13, %rbp
	jne	.L1195
.LBE4287:
	.loc 1 1190 0
	addq	$24, %rsp
	.cfi_def_cfa_offset 56
	popq	%rbx
	.cfi_restore 3
	.cfi_def_cfa_offset 48
	popq	%rbp
	.cfi_restore 6
	.cfi_def_cfa_offset 40
	popq	%r12
	.cfi_restore 12
	.cfi_def_cfa_offset 32
	popq	%r13
	.cfi_restore 13
	.cfi_def_cfa_offset 24
	popq	%r14
	.cfi_restore 14
	.cfi_def_cfa_offset 16
	popq	%r15
	.cfi_restore 15
	.cfi_def_cfa_offset 8
.L1201:
	rep; ret
	.p2align 4,,10
	.p2align 3
.L1202:
	.cfi_def_cfa_offset 80
	.cfi_offset 3, -56
	.cfi_offset 6, -48
	.cfi_offset 12, -40
	.cfi_offset 13, -32
	.cfi_offset 14, -24
	.cfi_offset 15, -16
.LBB4288:
.LBB4286:
.LBB4285:
.LBB4281:
.LBB4271:
.LBB4269:
.LBB4267:
.LBB4266:
.LBB4265:
.LBB4263:
.LBB4261:
	.loc 1 2144 0
	andq	8(%rsp), %r12
.LBE4261:
.LBE4263:
	.loc 1 2161 0
	movl	$4, %edx
.LBB4264:
.LBB4262:
	.loc 1 2145 0
	movq	(%r12), %r14
.LBE4262:
.LBE4264:
	.loc 1 2161 0
	cmpq	$4, %r14
	cmovbe	%r14, %rdx
.LBE4265:
.LBE4266:
.LBE4267:
.LBE4269:
.LBE4271:
	.loc 1 2314 0
	cmpl	$2, %edx
	je	.L1190
	cmpl	$4, %edx
	jne	.L1189
.LBB4272:
.LBB4273:
.LBB4274:
.LBB4275:
.LBB4276:
	.loc 1 2365 0
	movl	4(%r14), %r15d
	addl	(%r14), %r15d
	testl	%r15d, %r15d
	jle	.L1189
	xorl	%ebx, %ebx
	jmp	.L1194
	.p2align 4,,10
	.p2align 3
.L1193:
	addq	$1, %rbx
	cmpl	%ebx, %r15d
	jle	.L1189
.L1194:
	.loc 1 2367 0
	cmpl	$-3, 12(%r14,%rbx,8)
	jne	.L1193
	.loc 1 2370 0
	movq	16(%r12,%rbx,8), %rdi
	call	debug_ivalue
	jmp	.L1193
	.p2align 4,,10
	.p2align 3
.L1190:
.LBE4276:
.LBE4275:
.LBE4274:
.LBE4273:
.LBE4272:
.LBB4277:
.LBB4278:
.LBB4279:
	.loc 1 2351 0
	movq	8(%r12), %rbx
	testq	%rbx, %rbx
	jle	.L1189
	xorl	%r14d, %r14d
	.p2align 4,,10
	.p2align 3
.L1192:
	.loc 1 2355 0
	movslq	%r14d, %rdx
	addq	$1, %r14
	movq	16(%r12,%rdx,8), %rdi
	call	debug_ivalue
	.loc 1 2351 0
	cmpq	%rbx, %r14
	jne	.L1192
	jmp	.L1189
.LBE4279:
.LBE4278:
.LBE4277:
.LBE4281:
.LBE4285:
.LBE4286:
.LBE4288:
	.cfi_endproc
.LFE113:
	.size	debug_globals, .-debug_globals
	.p2align 4,,15
	.globl	debug_heap
	.type	debug_heap, @function
debug_heap:
.LFB115:
	.loc 1 1199 0
	.cfi_startproc
	pushq	%r15
	.cfi_def_cfa_offset 16
	.cfi_offset 15, -16
	pushq	%r14
	.cfi_def_cfa_offset 24
	.cfi_offset 14, -24
	pushq	%r13
	.cfi_def_cfa_offset 32
	.cfi_offset 13, -32
.LBB4365:
.LBB4366:
.LBB4367:
.LBB4368:
.LBB4369:
.LBB4370:
.LBB4371:
.LBB4372:
	.loc 1 2161 0
	movl	$4, %r13d
.LBE4372:
.LBE4371:
.LBE4370:
.LBE4369:
.LBE4368:
.LBE4367:
.LBE4366:
.LBE4365:
	.loc 1 1199 0
	pushq	%r12
	.cfi_def_cfa_offset 40
	.cfi_offset 12, -40
	pushq	%rbp
	.cfi_def_cfa_offset 48
	.cfi_offset 6, -48
	pushq	%rbx
	.cfi_def_cfa_offset 56
	.cfi_offset 3, -56
	subq	$24, %rsp
	.cfi_def_cfa_offset 80
.LBB4435:
.LBB4404:
.LBB4399:
.LBB4391:
.LBB4388:
.LBB4385:
.LBB4382:
.LBB4379:
.LBB4373:
.LBB4374:
	.loc 1 2144 0
	movq	CLEAR_ARRAY_OBJ_MASK(%rip), %rax
.LBE4374:
.LBE4373:
.LBE4379:
.LBE4382:
.LBE4385:
.LBE4388:
.LBE4391:
.LBE4399:
.LBE4404:
.LBE4435:
	.loc 1 1203 0
	movq	heap_start(%rip), %r14
.LVL1617:
	movq	heap_pointer(%rip), %r12
.LBB4436:
.LBB4405:
.LBB4400:
.LBB4392:
.LBB4389:
.LBB4386:
.LBB4383:
.LBB4380:
.LBB4377:
.LBB4375:
	.loc 1 2144 0
	movq	%rax, (%rsp)
.L1204:
.LBE4375:
.LBE4377:
.LBE4380:
.LBE4383:
.LBE4386:
.LBE4389:
.LBE4392:
.LBE4400:
.LBE4405:
.LBE4436:
	.loc 1 1204 0 discriminator 1
	cmpq	%r12, %r14
	jae	.L1219
.L1215:
.LBB4437:
	.loc 1 1205 0
	leaq	1(%r14), %rbx
.LVL1618:
.LBB4406:
.LBB4401:
.LBB4393:
.LBB4390:
.LBB4387:
.LBB4384:
.LBB4381:
.LBB4378:
.LBB4376:
	.loc 1 2144 0
	andq	(%rsp), %rbx
.LVL1619:
.LBE4376:
.LBE4378:
	.loc 1 2161 0
	movq	%r13, %rdx
	cmpq	$4, (%rbx)
	cmovbe	(%rbx), %rdx
.LBE4381:
.LBE4384:
.LBE4387:
.LBE4390:
.LBE4393:
	.loc 1 554 0
	cmpl	$2, %edx
	je	.L1206
	jb	.L1207
.LVL1620:
.LBB4394:
.LBB4395:
	.loc 1 564 0
	movq	(%rbx), %r15
.LBE4395:
.LBE4394:
.LBE4401:
.LBE4406:
.LBB4407:
.LBB4408:
.LBB4409:
.LBB4410:
.LBB4411:
.LBB4412:
	.loc 1 2365 0
	xorl	%ebp, %ebp
.LBE4412:
.LBE4411:
.LBE4410:
.LBE4409:
.LBE4408:
.LBE4407:
.LBB4429:
.LBB4402:
.LBB4397:
.LBB4396:
	.loc 1 565 0
	movl	4(%r15), %edx
	movslq	%edx, %rcx
.LBE4396:
.LBE4397:
.LBE4402:
.LBE4429:
.LBB4430:
.LBB4421:
.LBB4419:
.LBB4417:
.LBB4415:
.LBB4413:
	.loc 1 2365 0
	addl	(%r15), %edx
.LBE4413:
.LBE4415:
.LBE4417:
.LBE4419:
.LBE4421:
.LBE4430:
	.loc 1 1206 0
	leaq	16(%r14,%rcx,8), %r14
.LVL1621:
.LBB4431:
.LBB4422:
.LBB4420:
.LBB4418:
.LBB4416:
.LBB4414:
	.loc 1 2365 0
	testl	%edx, %edx
	jg	.L1216
	jmp	.L1204
.LVL1622:
	.p2align 4,,10
	.p2align 3
.L1213:
	addq	$1, %rbp
.LVL1623:
	cmpl	%ebp, %edx
	jle	.L1204
.L1216:
.LVL1624:
	.loc 1 2367 0
	cmpl	$-3, 12(%r15,%rbp,8)
	jne	.L1213
	.loc 1 2370 0
	movq	16(%rbx,%rbp,8), %rdi
	movl	%edx, 12(%rsp)
	call	debug_ivalue
.LVL1625:
	movl	12(%rsp), %edx
	jmp	.L1213
.LVL1626:
.L1207:
	.p2align 4,,10
	.p2align 3
.L1206:
.LBE4414:
.LBE4416:
.LBE4418:
.LBE4420:
.LBE4422:
.LBE4431:
.LBB4432:
.LBB4403:
.LBB4398:
	.loc 1 560 0
	movq	8(%rbx), %r15
.LBE4398:
.LBE4403:
.LBE4432:
.LBB4433:
.LBB4423:
.LBB4424:
.LBB4425:
	.loc 1 2351 0
	xorl	%ebp, %ebp
	testq	%r15, %r15
.LBE4425:
.LBE4424:
.LBE4423:
.LBE4433:
	.loc 1 1206 0
	leaq	16(%r14,%r15,8), %r14
.LVL1627:
.LBB4434:
.LBB4428:
.LBB4427:
.LBB4426:
	.loc 1 2351 0
	jle	.L1204
.LVL1628:
	.p2align 4,,10
	.p2align 3
.L1217:
	.loc 1 2355 0
	movslq	%ebp, %rdx
	addq	$1, %rbp
.LVL1629:
	movq	16(%rbx,%rdx,8), %rdi
	call	debug_ivalue
.LVL1630:
	.loc 1 2351 0
	cmpq	%r15, %rbp
	jne	.L1217
.LBE4426:
.LBE4427:
.LBE4428:
.LBE4434:
.LBE4437:
	.loc 1 1204 0
	cmpq	%r12, %r14
	jb	.L1215
.LVL1631:
	.p2align 4,,10
	.p2align 3
.L1219:
	.loc 1 1210 0
	addq	$24, %rsp
	.cfi_def_cfa_offset 56
	popq	%rbx
	.cfi_def_cfa_offset 48
	popq	%rbp
	.cfi_def_cfa_offset 40
	popq	%r12
	.cfi_def_cfa_offset 32
	popq	%r13
	.cfi_def_cfa_offset 24
	popq	%r14
	.cfi_def_cfa_offset 16
.LVL1632:
	popq	%r15
	.cfi_def_cfa_offset 8
	ret
	.cfi_endproc
.LFE115:
	.size	debug_heap, .-debug_heap
	.p2align 4,,15
	.globl	print_arrayivalue
	.type	print_arrayivalue, @function
print_arrayivalue:
.LFB181:
	.loc 1 2338 0
	.cfi_startproc
.LVL1633:
	pushq	%r15
	.cfi_def_cfa_offset 16
	.cfi_offset 15, -16
.LBB4544:
.LBB4545:
	.loc 2 105 0
	xorl	%eax, %eax
	movl	$.LC27, %esi
.LBE4545:
.LBE4544:
.LBB4548:
	.loc 1 2340 0
	xorl	%r15d, %r15d
.LBE4548:
	.loc 1 2338 0
	pushq	%r14
	.cfi_def_cfa_offset 24
	.cfi_offset 14, -24
	pushq	%r13
	.cfi_def_cfa_offset 32
	.cfi_offset 13, -32
	movq	%rdi, %r13
.LBB4631:
.LBB4546:
	.loc 2 105 0
	movl	$1, %edi
.LVL1634:
.LBE4546:
.LBE4631:
	.loc 1 2338 0
	pushq	%r12
	.cfi_def_cfa_offset 40
	.cfi_offset 12, -40
	pushq	%rbp
	.cfi_def_cfa_offset 48
	.cfi_offset 6, -48
	pushq	%rbx
	.cfi_def_cfa_offset 56
	.cfi_offset 3, -56
	subq	$40, %rsp
	.cfi_def_cfa_offset 96
.LBB4632:
.LBB4547:
	.loc 2 105 0
	call	__printf_chk
.LVL1635:
.LBE4547:
.LBE4632:
.LBB4633:
	.loc 1 2340 0
	cmpq	$0, 8(%r13)
	movq	$1, 16(%rsp)
	jle	.L1246
	.loc 1 2344 0
	movslq	%r15d, %rax
	movq	16(%r13,%rax,8), %rdx
.LVL1636:
.LBB4549:
.LBB4550:
.LBB4551:
.LBB4552:
	.loc 1 2157 0
	cmpq	$2, %rdx
	je	.L1223
.LVL1637:
.L1258:
	.loc 1 2159 0
	movq	%rdx, %rcx
	shrq	$63, %rcx
	leaq	(%rdx,%rcx), %rax
	andl	$1, %eax
	subq	%rcx, %rax
	cmpq	$1, %rax
	je	.L1257
.L1224:
.LVL1638:
.LBE4552:
.LBE4551:
.LBB4560:
.LBB4561:
	.loc 1 2151 0
	sarq	$3, %rdx
.LBE4561:
.LBE4560:
.LBB4562:
.LBB4563:
	.loc 2 105 0
	movl	$.LC25, %esi
	movl	$1, %edi
	xorl	%eax, %eax
	call	__printf_chk
.LVL1639:
.L1229:
.LBE4563:
.LBE4562:
.LBE4550:
.LBE4549:
	.loc 1 2340 0
	addl	$1, %r15d
.LVL1640:
	movq	16(%rsp), %rax
	cmpq	%rax, 8(%r13)
	jle	.L1246
.LVL1641:
.LBB4627:
.LBB4628:
	.loc 2 105 0
	xorl	%eax, %eax
	movl	$.LC29, %esi
	movl	$1, %edi
	call	__printf_chk
.LVL1642:
.LBE4628:
.LBE4627:
	.loc 1 2344 0
	movslq	%r15d, %rax
.LVL1643:
	addq	$1, 16(%rsp)
	movq	16(%r13,%rax,8), %rdx
.LBB4629:
.LBB4625:
.LBB4564:
.LBB4558:
	.loc 1 2157 0
	cmpq	$2, %rdx
	jne	.L1258
.LVL1644:
.L1223:
.LBE4558:
.LBE4564:
.LBB4565:
.LBB4566:
	.loc 2 105 0
	movl	$.LC26, %esi
	movl	$1, %edi
	xorl	%eax, %eax
	call	__printf_chk
.LVL1645:
	jmp	.L1229
.LVL1646:
	.p2align 4,,10
	.p2align 3
.L1257:
.LBE4566:
.LBE4565:
.LBB4567:
.LBB4559:
.LBB4553:
.LBB4554:
.LBB4555:
.LBB4556:
.LBB4557:
	.loc 1 2144 0
	movq	%rdx, %r14
	andq	CLEAR_ARRAY_OBJ_MASK(%rip), %r14
.LVL1647:
.LBE4557:
.LBE4556:
	.loc 1 2161 0
	movb	$4, %al
	cmpq	$4, (%r14)
	cmovbe	(%r14), %rax
.LBE4555:
.LBE4554:
.LBE4553:
.LBE4559:
.LBE4567:
	.loc 1 2288 0
	cmpl	$2, %eax
	je	.L1225
	jbe	.L1259
	cmpl	$3, %eax
	je	.L1227
	cmpl	$4, %eax
	.p2align 4,,5
	jne	.L1224
.LVL1648:
.LBB4568:
.LBB4569:
	.loc 2 105 0
	movl	$.LC30, %esi
	movl	$1, %edi
	xorl	%eax, %eax
	call	__printf_chk
.LVL1649:
	jmp	.L1229
.LVL1650:
	.p2align 4,,10
	.p2align 3
.L1225:
.LBE4569:
.LBE4568:
.LBB4570:
.LBB4571:
.LBB4572:
.LBB4573:
	xorl	%eax, %eax
	movl	$.LC27, %esi
	movl	$1, %edi
	call	__printf_chk
.LVL1651:
.LBE4573:
.LBE4572:
.LBB4574:
	.loc 1 2340 0
	cmpq	$0, 8(%r14)
	movq	$1, 24(%rsp)
	movl	$0, 12(%rsp)
	jle	.L1244
	.loc 1 2344 0
	movslq	12(%rsp), %rax
	movq	16(%r14,%rax,8), %rdx
.LVL1652:
.LBB4575:
.LBB4576:
.LBB4577:
.LBB4578:
	.loc 1 2157 0
	cmpq	$2, %rdx
	je	.L1232
.LVL1653:
.L1261:
	.loc 1 2159 0
	movq	%rdx, %rcx
	shrq	$63, %rcx
	leaq	(%rdx,%rcx), %rax
	andl	$1, %eax
	subq	%rcx, %rax
	cmpq	$1, %rax
	je	.L1260
.L1233:
.LVL1654:
.LBE4578:
.LBE4577:
.LBB4586:
.LBB4587:
	.loc 1 2151 0
	sarq	$3, %rdx
.LBE4587:
.LBE4586:
.LBB4588:
.LBB4589:
	.loc 2 105 0
	movl	$.LC25, %esi
	movl	$1, %edi
	xorl	%eax, %eax
	call	__printf_chk
.LVL1655:
.L1238:
.LBE4589:
.LBE4588:
.LBE4576:
.LBE4575:
	.loc 1 2340 0
	addl	$1, 12(%rsp)
.LVL1656:
	movq	24(%rsp), %rax
	cmpq	8(%r14), %rax
	jge	.L1244
.LVL1657:
.LBB4610:
.LBB4611:
	.loc 2 105 0
	xorl	%eax, %eax
	movl	$.LC29, %esi
	movl	$1, %edi
	call	__printf_chk
.LVL1658:
.LBE4611:
.LBE4610:
	.loc 1 2344 0
	movslq	12(%rsp), %rax
.LVL1659:
	addq	$1, 24(%rsp)
	movq	16(%r14,%rax,8), %rdx
.LBB4612:
.LBB4607:
.LBB4590:
.LBB4584:
	.loc 1 2157 0
	cmpq	$2, %rdx
	jne	.L1261
.LVL1660:
.L1232:
.LBE4584:
.LBE4590:
.LBB4591:
.LBB4592:
	.loc 2 105 0
	movl	$.LC26, %esi
	movl	$1, %edi
	xorl	%eax, %eax
	call	__printf_chk
.LVL1661:
	jmp	.L1238
.LVL1662:
	.p2align 4,,10
	.p2align 3
.L1260:
.LBE4592:
.LBE4591:
.LBB4593:
.LBB4585:
.LBB4579:
.LBB4580:
.LBB4581:
.LBB4582:
.LBB4583:
	.loc 1 2144 0
	movq	%rdx, %rbp
	andq	CLEAR_ARRAY_OBJ_MASK(%rip), %rbp
.LVL1663:
.LBE4583:
.LBE4582:
	.loc 1 2161 0
	movb	$4, %al
	cmpq	$4, 0(%rbp)
	cmovbe	0(%rbp), %rax
.LBE4581:
.LBE4580:
.LBE4579:
.LBE4585:
.LBE4593:
	.loc 1 2288 0
	cmpl	$2, %eax
	je	.L1234
	jbe	.L1262
	cmpl	$3, %eax
	je	.L1236
	cmpl	$4, %eax
	.p2align 4,,5
	jne	.L1233
.LVL1664:
.LBB4594:
.LBB4595:
	.loc 2 105 0
	movl	$.LC30, %esi
	movl	$1, %edi
	xorl	%eax, %eax
	call	__printf_chk
.LVL1665:
	jmp	.L1238
.LVL1666:
	.p2align 4,,10
	.p2align 3
.L1236:
.LBE4595:
.LBE4594:
.LBB4596:
.LBB4597:
	movq	8(%rbp), %rdx
	movl	$.LC31, %esi
	movl	$1, %edi
	xorl	%eax, %eax
	call	__printf_chk
.LVL1667:
	jmp	.L1238
.LVL1668:
	.p2align 4,,10
	.p2align 3
.L1227:
.LBE4597:
.LBE4596:
.LBE4607:
.LBE4612:
.LBE4574:
.LBE4571:
.LBE4570:
.LBB4621:
.LBB4622:
	movq	8(%r14), %rdx
	movl	$.LC31, %esi
	movl	$1, %edi
	xorl	%eax, %eax
	call	__printf_chk
.LVL1669:
	jmp	.L1229
.LVL1670:
	.p2align 4,,10
	.p2align 3
.L1246:
.LBE4622:
.LBE4621:
.LBE4625:
.LBE4629:
.LBE4633:
	.loc 1 2347 0
	addq	$40, %rsp
	.cfi_remember_state
	.cfi_def_cfa_offset 56
.LBB4634:
.LBB4635:
	.loc 2 105 0
	movl	$.LC28, %esi
	movl	$1, %edi
.LBE4635:
.LBE4634:
	.loc 1 2347 0
	popq	%rbx
	.cfi_def_cfa_offset 48
	popq	%rbp
	.cfi_def_cfa_offset 40
	popq	%r12
	.cfi_def_cfa_offset 32
	popq	%r13
	.cfi_def_cfa_offset 24
.LVL1671:
	popq	%r14
	.cfi_def_cfa_offset 16
	popq	%r15
	.cfi_def_cfa_offset 8
.LBB4637:
.LBB4636:
	.loc 2 105 0
	xorl	%eax, %eax
	jmp	__printf_chk
.LVL1672:
	.p2align 4,,10
	.p2align 3
.L1234:
	.cfi_restore_state
.LBE4636:
.LBE4637:
.LBB4638:
.LBB4630:
.LBB4626:
.LBB4623:
.LBB4619:
.LBB4615:
.LBB4613:
.LBB4608:
.LBB4598:
.LBB4599:
.LBB4600:
.LBB4601:
	xorl	%eax, %eax
	movl	$.LC27, %esi
	movl	$1, %edi
	call	__printf_chk
.LVL1673:
.LBE4601:
.LBE4600:
.LBB4602:
	.loc 1 2340 0
	xorl	%ebx, %ebx
	cmpq	$0, 8(%rbp)
	movl	$1, %r12d
	jle	.L1242
.LVL1674:
	.p2align 4,,10
	.p2align 3
.L1251:
	.loc 1 2344 0
	movslq	%ebx, %rax
	.loc 1 2340 0
	addl	$1, %ebx
	.loc 1 2344 0
	movq	16(%rbp,%rax,8), %rdi
	call	print_ivalue
.LVL1675:
	.loc 1 2340 0
	cmpq	8(%rbp), %r12
	jge	.L1242
.LVL1676:
.LBB4603:
.LBB4604:
	.loc 2 105 0
	movl	$.LC29, %esi
	movl	$1, %edi
	xorl	%eax, %eax
	call	__printf_chk
.LVL1677:
	addq	$1, %r12
	jmp	.L1251
.LVL1678:
	.p2align 4,,10
	.p2align 3
.L1242:
.LBE4604:
.LBE4603:
.LBE4602:
.LBB4605:
.LBB4606:
	movl	$.LC28, %esi
	movl	$1, %edi
	xorl	%eax, %eax
	call	__printf_chk
.LVL1679:
	jmp	.L1238
.LVL1680:
	.p2align 4,,10
	.p2align 3
.L1244:
.LBE4606:
.LBE4605:
.LBE4599:
.LBE4598:
.LBE4608:
.LBE4613:
.LBE4615:
.LBB4616:
.LBB4617:
	movl	$.LC28, %esi
	movl	$1, %edi
	xorl	%eax, %eax
	call	__printf_chk
.LVL1681:
	jmp	.L1229
.LVL1682:
	.p2align 4,,10
	.p2align 3
.L1259:
.LBE4617:
.LBE4616:
.LBE4619:
.LBE4623:
	.loc 1 2288 0
	cmpl	$1, %eax
	jne	.L1224
	.p2align 4,,8
	jmp	.L1223
.LVL1683:
	.p2align 4,,10
	.p2align 3
.L1262:
.LBB4624:
.LBB4620:
.LBB4618:
.LBB4614:
.LBB4609:
	cmpl	$1, %eax
	jne	.L1233
	.p2align 4,,8
	jmp	.L1232
.LBE4609:
.LBE4614:
.LBE4618:
.LBE4620:
.LBE4624:
.LBE4626:
.LBE4630:
.LBE4638:
	.cfi_endproc
.LFE181:
	.size	print_arrayivalue, .-print_arrayivalue
	.p2align 4,,15
	.globl	debug_arrayivalue
	.type	debug_arrayivalue, @function
debug_arrayivalue:
.LFB182:
	.loc 1 2349 0
	.cfi_startproc
.LVL1684:
	pushq	%r12
	.cfi_def_cfa_offset 16
	.cfi_offset 12, -16
	movq	%rdi, %r12
	pushq	%rbp
	.cfi_def_cfa_offset 24
	.cfi_offset 6, -24
	pushq	%rbx
	.cfi_def_cfa_offset 32
	.cfi_offset 3, -32
.LBB4639:
	.loc 1 2351 0
	movq	8(%rdi), %rbp
	testq	%rbp, %rbp
	jle	.L1263
	xorl	%ebx, %ebx
.LVL1685:
	.p2align 4,,10
	.p2align 3
.L1265:
	.loc 1 2355 0
	movslq	%ebx, %rax
	addq	$1, %rbx
.LVL1686:
	movq	16(%r12,%rax,8), %rdi
	call	debug_ivalue
.LVL1687:
	.loc 1 2351 0
	cmpq	%rbp, %rbx
	jne	.L1265
.L1263:
.LBE4639:
	.loc 1 2358 0
	popq	%rbx
	.cfi_def_cfa_offset 24
	popq	%rbp
	.cfi_def_cfa_offset 16
	popq	%r12
	.cfi_def_cfa_offset 8
.LVL1688:
	ret
	.cfi_endproc
.LFE182:
	.size	debug_arrayivalue, .-debug_arrayivalue
	.p2align 4,,15
	.globl	debug_objectivalue
	.type	debug_objectivalue, @function
debug_objectivalue:
.LFB183:
	.loc 1 2360 0
	.cfi_startproc
.LVL1689:
	pushq	%r13
	.cfi_def_cfa_offset 16
	.cfi_offset 13, -16
	movq	%rdi, %r13
	pushq	%r12
	.cfi_def_cfa_offset 24
	.cfi_offset 12, -24
	pushq	%rbp
	.cfi_def_cfa_offset 32
	.cfi_offset 6, -32
	pushq	%rbx
	.cfi_def_cfa_offset 40
	.cfi_offset 3, -40
	subq	$8, %rsp
	.cfi_def_cfa_offset 48
	.loc 1 2362 0
	movq	(%rdi), %r12
.LVL1690:
.LBB4640:
	.loc 1 2365 0
	movl	4(%r12), %ebp
	addl	(%r12), %ebp
	testl	%ebp, %ebp
	jle	.L1267
	xorl	%ebx, %ebx
	jmp	.L1270
.LVL1691:
	.p2align 4,,10
	.p2align 3
.L1269:
	addq	$1, %rbx
.LVL1692:
	cmpl	%ebx, %ebp
	jle	.L1267
.L1270:
.LVL1693:
	.loc 1 2367 0
	cmpl	$-3, 12(%r12,%rbx,8)
	jne	.L1269
	.loc 1 2370 0
	movq	16(%r13,%rbx,8), %rdi
	addq	$1, %rbx
.LVL1694:
	call	debug_ivalue
.LVL1695:
	.loc 1 2365 0
	cmpl	%ebx, %ebp
	jg	.L1270
	.p2align 4,,10
	.p2align 3
.L1267:
.LBE4640:
	.loc 1 2375 0
	addq	$8, %rsp
	.cfi_def_cfa_offset 40
	popq	%rbx
	.cfi_def_cfa_offset 32
	popq	%rbp
	.cfi_def_cfa_offset 24
	popq	%r12
	.cfi_def_cfa_offset 16
.LVL1696:
	popq	%r13
	.cfi_def_cfa_offset 8
.LVL1697:
	ret
	.cfi_endproc
.LFE183:
	.size	debug_objectivalue, .-debug_objectivalue
	.p2align 4,,15
	.globl	_error
	.type	_error, @function
_error:
.LFB184:
	.loc 1 2377 0
	.cfi_startproc
.LVL1698:
	subq	$216, %rsp
	.cfi_def_cfa_offset 224
	testb	%al, %al
	movq	%rsi, 40(%rsp)
	movq	%rdx, 48(%rsp)
	movq	%rcx, 56(%rsp)
	movq	%r8, 64(%rsp)
	movq	%r9, 72(%rsp)
	je	.L1273
	.loc 1 2377 0
	movaps	%xmm0, 80(%rsp)
	movaps	%xmm1, 96(%rsp)
	movaps	%xmm2, 112(%rsp)
	movaps	%xmm3, 128(%rsp)
	movaps	%xmm4, 144(%rsp)
	movaps	%xmm5, 160(%rsp)
	movaps	%xmm6, 176(%rsp)
	movaps	%xmm7, 192(%rsp)
.L1273:
	.loc 1 2379 0
	leaq	224(%rsp), %rax
.LBB4641:
.LBB4642:
	leaq	8(%rsp), %rsi
.LBE4642:
.LBE4641:
	movq	%rax, 16(%rsp)
	leaq	32(%rsp), %rax
	movl	$8, 8(%rsp)
	movl	$48, 12(%rsp)
	movq	%rax, 24(%rsp)
.LVL1699:
.LBB4644:
.LBB4643:
	call	v_errorif.part.8
.LVL1700:
.LBE4643:
.LBE4644:
	.cfi_endproc
.LFE184:
	.size	_error, .-_error
	.p2align 4,,15
	.globl	_errorif
	.type	_errorif, @function
_errorif:
.LFB185:
	.loc 1 2384 0
	.cfi_startproc
.LVL1701:
	subq	$216, %rsp
	.cfi_def_cfa_offset 224
	testb	%al, %al
	movq	%rdx, 48(%rsp)
	movq	%rcx, 56(%rsp)
	movq	%r8, 64(%rsp)
	movq	%r9, 72(%rsp)
	je	.L1276
	.loc 1 2384 0
	movaps	%xmm0, 80(%rsp)
	movaps	%xmm1, 96(%rsp)
	movaps	%xmm2, 112(%rsp)
	movaps	%xmm3, 128(%rsp)
	movaps	%xmm4, 144(%rsp)
	movaps	%xmm5, 160(%rsp)
	movaps	%xmm6, 176(%rsp)
	movaps	%xmm7, 192(%rsp)
.L1276:
	.loc 1 2386 0
	leaq	224(%rsp), %rdx
	leaq	32(%rsp), %rcx
.LBB4645:
.LBB4646:
	.loc 1 2399 0
	testl	%edi, %edi
.LBE4646:
.LBE4645:
	.loc 1 2384 0
	movq	%rsi, %rax
	.loc 1 2386 0
	movl	$16, 8(%rsp)
	movl	$48, 12(%rsp)
	movq	%rdx, 16(%rsp)
	movq	%rcx, 24(%rsp)
.LVL1702:
.LBB4649:
.LBB4647:
	.loc 1 2399 0
	jne	.L1279
.LVL1703:
.LBE4647:
.LBE4649:
	.loc 1 2389 0
	addq	$216, %rsp
	.cfi_remember_state
	.cfi_def_cfa_offset 8
	ret
.L1279:
	.cfi_restore_state
.LBB4650:
.LBB4648:
	leaq	8(%rsp), %rsi
.LVL1704:
	movq	%rax, %rdi
.LVL1705:
	call	v_errorif.part.8
.LVL1706:
.LBE4648:
.LBE4650:
	.cfi_endproc
.LFE185:
	.size	_errorif, .-_errorif
	.p2align 4,,15
	.globl	_assert_msg
	.type	_assert_msg, @function
_assert_msg:
.LFB186:
	.loc 1 2391 0
	.cfi_startproc
.LVL1707:
	subq	$216, %rsp
	.cfi_def_cfa_offset 224
	testb	%al, %al
	movq	%rdx, 48(%rsp)
	movq	%rcx, 56(%rsp)
	movq	%r8, 64(%rsp)
	movq	%r9, 72(%rsp)
	je	.L1281
	.loc 1 2391 0
	movaps	%xmm0, 80(%rsp)
	movaps	%xmm1, 96(%rsp)
	movaps	%xmm2, 112(%rsp)
	movaps	%xmm3, 128(%rsp)
	movaps	%xmm4, 144(%rsp)
	movaps	%xmm5, 160(%rsp)
	movaps	%xmm6, 176(%rsp)
	movaps	%xmm7, 192(%rsp)
.L1281:
	.loc 1 2393 0
	leaq	224(%rsp), %rdx
	leaq	32(%rsp), %rcx
.LBB4651:
.LBB4652:
	.loc 1 2399 0
	testl	%edi, %edi
.LBE4652:
.LBE4651:
	.loc 1 2391 0
	movq	%rsi, %rax
	.loc 1 2393 0
	movl	$16, 8(%rsp)
	movl	$48, 12(%rsp)
	movq	%rdx, 16(%rsp)
	movq	%rcx, 24(%rsp)
.LVL1708:
.LBB4655:
.LBB4653:
	.loc 1 2399 0
	je	.L1284
.LVL1709:
.LBE4653:
.LBE4655:
	.loc 1 2396 0
	addq	$216, %rsp
	.cfi_remember_state
	.cfi_def_cfa_offset 8
	ret
.L1284:
	.cfi_restore_state
.LBB4656:
.LBB4654:
	leaq	8(%rsp), %rsi
.LVL1710:
	movq	%rax, %rdi
.LVL1711:
	call	v_errorif.part.8
.LVL1712:
.LBE4654:
.LBE4656:
	.cfi_endproc
.LFE186:
	.size	_assert_msg, .-_assert_msg
	.p2align 4,,15
	.globl	v_errorif
	.type	v_errorif, @function
v_errorif:
.LFB187:
	.loc 1 2398 0
	.cfi_startproc
.LVL1713:
	.loc 1 2399 0
	testl	%edi, %edi
	jne	.L1289
	rep; ret
.L1289:
	.loc 1 2398 0
	pushq	%rax
	.cfi_def_cfa_offset 16
	movq	%rsi, %rax
	movq	%rdx, %rsi
.LVL1714:
	movq	%rax, %rdi
.LVL1715:
	call	v_errorif.part.8
.LVL1716:
	.cfi_endproc
.LFE187:
	.size	v_errorif, .-v_errorif
	.p2align 4,,15
	.globl	_debugf
	.type	_debugf, @function
_debugf:
.LFB188:
	.loc 1 2417 0
	.cfi_startproc
.LVL1717:
	subq	$216, %rsp
	.cfi_def_cfa_offset 224
	testb	%al, %al
	movq	%rsi, 40(%rsp)
	movq	%rdx, 48(%rsp)
	movq	%rcx, 56(%rsp)
	movq	%r8, 64(%rsp)
	movq	%r9, 72(%rsp)
	je	.L1291
	.loc 1 2417 0
	movaps	%xmm0, 80(%rsp)
	movaps	%xmm1, 96(%rsp)
	movaps	%xmm2, 112(%rsp)
	movaps	%xmm3, 128(%rsp)
	movaps	%xmm4, 144(%rsp)
	movaps	%xmm5, 160(%rsp)
	movaps	%xmm6, 176(%rsp)
	movaps	%xmm7, 192(%rsp)
.L1291:
	.loc 1 2419 0
	leaq	224(%rsp), %rax
	.loc 1 2417 0
	movq	%rdi, %rdx
.LBB4657:
.LBB4658:
	.loc 2 128 0
	leaq	8(%rsp), %rcx
	movl	$1, %esi
	movq	stderr(%rip), %rdi
.LVL1718:
.LBE4658:
.LBE4657:
	.loc 1 2419 0
	movq	%rax, 16(%rsp)
	leaq	32(%rsp), %rax
	movl	$8, 8(%rsp)
	movl	$48, 12(%rsp)
	movq	%rax, 24(%rsp)
.LVL1719:
.LBB4660:
.LBB4659:
	.loc 2 128 0
	call	__vfprintf_chk
.LVL1720:
.LBE4659:
.LBE4660:
	.loc 1 2422 0
	addq	$216, %rsp
	.cfi_def_cfa_offset 8
	ret
	.cfi_endproc
.LFE188:
	.size	_debugf, .-_debugf
	.p2align 4,,15
	.globl	_start_timer
	.type	_start_timer, @function
_start_timer:
.LFB189:
	.loc 1 2426 0
	.cfi_startproc
.LVL1721:
	pushq	%rbp
	.cfi_def_cfa_offset 16
	.cfi_offset 6, -16
	movq	%rdi, %rbp
	pushq	%rbx
	.cfi_def_cfa_offset 24
	.cfi_offset 3, -24
	subq	$8, %rsp
	.cfi_def_cfa_offset 32
	.loc 1 2427 0
	movq	timer_names(%rip), %rax
	testq	%rax, %rax
	je	.L1301
.LVL1722:
.L1294:
.LBB4661:
	.loc 1 2432 0 discriminator 1
	movq	%rax, %rdi
	movl	(%rax), %eax
	testl	%eax, %eax
	jle	.L1295
	.loc 1 2432 0 is_stmt 0
	xorl	%ebx, %ebx
	jmp	.L1297
.LVL1723:
	.p2align 4,,10
	.p2align 3
.L1296:
	movq	timer_names(%rip), %rdi
	addl	$1, %ebx
.LVL1724:
	cmpl	%ebx, (%rdi)
	jle	.L1295
.LVL1725:
.L1297:
.LBB4662:
	.loc 1 2433 0 is_stmt 1
	movl	%ebx, %esi
	call	vector_get
.LVL1726:
	movq	%rbp, %rsi
	movq	%rax, %rdi
	call	strcmp
.LVL1727:
.LBE4662:
	testl	%eax, %eax
	jne	.L1296
.LBB4663:
	.loc 1 2434 0
	movq	timer_vals(%rip), %rdi
	movl	%ebx, %esi
	call	vector_get
.LVL1728:
.LBE4663:
.LBE4661:
	.loc 1 2444 0
	addq	$8, %rsp
	.cfi_remember_state
	.cfi_def_cfa_offset 24
.LBB4666:
.LBB4664:
	.loc 1 2435 0
	xorl	%esi, %esi
	movq	%rax, %rdi
.LBE4664:
.LBE4666:
	.loc 1 2444 0
	popq	%rbx
	.cfi_def_cfa_offset 16
.LVL1729:
	popq	%rbp
	.cfi_def_cfa_offset 8
.LVL1730:
.LBB4667:
.LBB4665:
	.loc 1 2435 0
	jmp	gettimeofday
.LVL1731:
	.p2align 4,,10
	.p2align 3
.L1295:
	.cfi_restore_state
.LBE4665:
.LBE4667:
	.loc 1 2440 0
	movq	%rbp, %rsi
	call	vector_add
.LVL1732:
	.loc 1 2441 0
	movl	$16, %edi
	call	malloc
.LVL1733:
	.loc 1 2442 0
	xorl	%esi, %esi
	movq	%rax, %rdi
	.loc 1 2441 0
	movq	%rax, %rbx
.LVL1734:
	.loc 1 2442 0
	call	gettimeofday
.LVL1735:
	.loc 1 2443 0
	movq	timer_vals(%rip), %rdi
	.loc 1 2444 0
	addq	$8, %rsp
	.cfi_remember_state
	.cfi_def_cfa_offset 24
	.loc 1 2443 0
	movq	%rbx, %rsi
	.loc 1 2444 0
	popq	%rbx
	.cfi_def_cfa_offset 16
.LVL1736:
	popq	%rbp
	.cfi_def_cfa_offset 8
.LVL1737:
	.loc 1 2443 0
	jmp	vector_add
.LVL1738:
.L1301:
	.cfi_restore_state
	.loc 1 2428 0
	call	make_vector
.LVL1739:
	movq	%rax, timer_names(%rip)
	.loc 1 2429 0
	xorl	%eax, %eax
	call	make_vector
.LVL1740:
	movq	%rax, timer_vals(%rip)
	movq	timer_names(%rip), %rax
	jmp	.L1294
	.cfi_endproc
.LFE189:
	.size	_start_timer, .-_start_timer
	.p2align 4,,15
	.globl	_add_double
	.type	_add_double, @function
_add_double:
.LFB191:
	.loc 1 2470 0
	.cfi_startproc
.LVL1741:
	pushq	%rbp
	.cfi_def_cfa_offset 16
	.cfi_offset 6, -16
	movq	%rdi, %rbp
	pushq	%rbx
	.cfi_def_cfa_offset 24
	.cfi_offset 3, -24
	subq	$24, %rsp
	.cfi_def_cfa_offset 48
	.loc 1 2471 0
	movq	double_names(%rip), %rax
	.loc 1 2470 0
	movsd	%xmm0, 8(%rsp)
	.loc 1 2471 0
	testq	%rax, %rax
	je	.L1315
.LVL1742:
.L1303:
.LBB4668:
	.loc 1 2476 0 discriminator 1
	xorpd	%xmm0, %xmm0
	cvtsi2sd	(%rax), %xmm1
	movq	%rax, %rdi
	ucomisd	%xmm0, %xmm1
	ja	.L1313
	jmp	.L1304
.LVL1743:
	.p2align 4,,10
	.p2align 3
.L1306:
	.loc 1 2476 0 is_stmt 0
	addsd	.LC34(%rip), %xmm0
.LVL1744:
	movq	double_names(%rip), %rdi
	cvtsi2sd	(%rdi), %xmm1
	ucomisd	%xmm0, %xmm1
	jbe	.L1304
.LVL1745:
.L1313:
.LBB4669:
	.loc 1 2477 0 is_stmt 1
	cvttsd2si	%xmm0, %ebx
	movsd	%xmm0, (%rsp)
	movl	%ebx, %esi
	call	vector_get
.LVL1746:
	movq	%rbp, %rsi
	movq	%rax, %rdi
	call	strcmp
.LVL1747:
.LBE4669:
	testl	%eax, %eax
	movsd	(%rsp), %xmm0
	jne	.L1306
.LBB4670:
	.loc 1 2478 0
	movl	$8, %edi
	call	malloc
.LVL1748:
	.loc 1 2479 0
	movsd	8(%rsp), %xmm3
	.loc 1 2480 0
	movq	double_vals(%rip), %rdi
	movl	%ebx, %esi
	movq	%rax, %rdx
	.loc 1 2479 0
	movsd	%xmm3, (%rax)
.LBE4670:
.LBE4668:
	.loc 1 2488 0
	addq	$24, %rsp
	.cfi_remember_state
	.cfi_def_cfa_offset 24
.LVL1749:
	popq	%rbx
	.cfi_def_cfa_offset 16
	popq	%rbp
	.cfi_def_cfa_offset 8
.LVL1750:
.LBB4672:
.LBB4671:
	.loc 1 2480 0
	jmp	vector_set
.LVL1751:
	.p2align 4,,10
	.p2align 3
.L1304:
	.cfi_restore_state
.LBE4671:
.LBE4672:
	.loc 1 2484 0
	movq	%rbp, %rsi
	call	vector_add
.LVL1752:
	.loc 1 2485 0
	movl	$8, %edi
	call	malloc
.LVL1753:
	.loc 1 2486 0
	movsd	8(%rsp), %xmm2
	.loc 1 2487 0
	movq	double_vals(%rip), %rdi
	movq	%rax, %rsi
	.loc 1 2486 0
	movsd	%xmm2, (%rax)
	.loc 1 2488 0
	addq	$24, %rsp
	.cfi_remember_state
	.cfi_def_cfa_offset 24
	popq	%rbx
	.cfi_def_cfa_offset 16
	popq	%rbp
	.cfi_def_cfa_offset 8
.LVL1754:
	.loc 1 2487 0
	jmp	vector_add
.LVL1755:
.L1315:
	.cfi_restore_state
	.loc 1 2472 0
	call	make_vector
.LVL1756:
	movq	%rax, double_names(%rip)
	.loc 1 2473 0
	xorl	%eax, %eax
	call	make_vector
.LVL1757:
	movq	%rax, double_vals(%rip)
	movq	double_names(%rip), %rax
	jmp	.L1303
	.cfi_endproc
.LFE191:
	.size	_add_double, .-_add_double
	.section	.rodata.str1.1
.LC35:
	.string	"Incorrect call of end_timer!\n"
	.text
	.p2align 4,,15
	.globl	_end_timer
	.type	_end_timer, @function
_end_timer:
.LFB190:
	.loc 1 2446 0
	.cfi_startproc
.LVL1758:
	pushq	%rbp
	.cfi_def_cfa_offset 16
	.cfi_offset 6, -16
	movq	%rdi, %rbp
	pushq	%rbx
	.cfi_def_cfa_offset 24
	.cfi_offset 3, -24
	subq	$24, %rsp
	.cfi_def_cfa_offset 48
	.loc 1 2447 0
	movq	timer_names(%rip), %rax
	testq	%rax, %rax
	je	.L1325
.LVL1759:
.L1317:
.LBB4673:
	.loc 1 2452 0 discriminator 1
	movl	(%rax), %edx
	testl	%edx, %edx
	jle	.L1320
	.loc 1 2452 0 is_stmt 0
	movq	%rax, %rdi
	xorl	%ebx, %ebx
	jmp	.L1321
.LVL1760:
	.p2align 4,,10
	.p2align 3
.L1319:
	movq	timer_names(%rip), %rdi
	addl	$1, %ebx
.LVL1761:
	cmpl	%ebx, (%rdi)
	jle	.L1320
.LVL1762:
.L1321:
.LBB4674:
	.loc 1 2453 0 is_stmt 1
	movl	%ebx, %esi
	call	vector_get
.LVL1763:
	movq	%rbp, %rsi
	movq	%rax, %rdi
	call	strcmp
.LVL1764:
.LBE4674:
	testl	%eax, %eax
	jne	.L1319
.LBB4675:
	.loc 1 2454 0
	movq	timer_vals(%rip), %rdi
	movl	%ebx, %esi
	call	vector_get
.LVL1765:
	.loc 1 2456 0
	movq	%rsp, %rdi
	xorl	%esi, %esi
	.loc 1 2454 0
	movq	%rax, %rbx
.LVL1766:
	.loc 1 2456 0
	call	gettimeofday
.LVL1767:
	.loc 1 2458 0
	cvtsi2sdq	8(%rsp), %xmm1
	cvtsi2sdq	8(%rbx), %xmm3
	movsd	.LC36(%rip), %xmm2
	cvtsi2sdq	(%rsp), %xmm0
	movq	%rbp, %rdi
	divsd	%xmm2, %xmm1
	divsd	%xmm2, %xmm3
	mulsd	%xmm2, %xmm0
	addsd	%xmm1, %xmm0
	cvtsi2sdq	(%rbx), %xmm1
	mulsd	%xmm2, %xmm1
	addsd	%xmm3, %xmm1
	subsd	%xmm1, %xmm0
	call	_add_double
.LVL1768:
.LBE4675:
.LBE4673:
	.loc 1 2466 0
	addq	$24, %rsp
	.cfi_remember_state
	.cfi_def_cfa_offset 24
	popq	%rbx
	.cfi_def_cfa_offset 16
.LVL1769:
	popq	%rbp
	.cfi_def_cfa_offset 8
.LVL1770:
	ret
.LVL1771:
.L1325:
	.cfi_restore_state
	.loc 1 2448 0
	call	make_vector
.LVL1772:
	movq	%rax, timer_names(%rip)
	.loc 1 2449 0
	xorl	%eax, %eax
	call	make_vector
.LVL1773:
	movq	%rax, timer_vals(%rip)
	movq	timer_names(%rip), %rax
	jmp	.L1317
.L1320:
.LVL1774:
.LBB4676:
.LBB4677:
	.loc 2 105 0
	movl	$1, %edi
	movl	$.LC35, %esi
	xorl	%eax, %eax
	call	__printf_chk
.LVL1775:
.LBE4677:
.LBE4676:
	.loc 1 2465 0
	movl	$-1, %edi
	call	exit
.LVL1776:
	.cfi_endproc
.LFE190:
	.size	_end_timer, .-_end_timer
	.section	.rodata.str1.1
.LC37:
	.string	"garbage_collector_time"
	.text
	.p2align 4,,15
	.globl	copyIValue
	.type	copyIValue, @function
copyIValue:
.LFB86:
	.loc 1 573 0
	.cfi_startproc
.LVL1777:
	pushq	%r15
	.cfi_def_cfa_offset 16
	.cfi_offset 15, -16
.LBB4729:
.LBB4730:
.LBB4731:
.LBB4732:
.LBB4733:
.LBB4734:
.LBB4735:
.LBB4736:
.LBB4737:
	.loc 1 2144 0
	movq	%rdi, %rax
.LBE4737:
.LBE4736:
	.loc 1 2161 0
	movl	$4, %edx
.LBE4735:
.LBE4734:
.LBE4733:
.LBE4732:
.LBE4731:
.LBE4730:
.LBE4729:
	.loc 1 573 0
	pushq	%r14
	.cfi_def_cfa_offset 24
	.cfi_offset 14, -24
	movq	%rdi, %r14
	pushq	%r13
	.cfi_def_cfa_offset 32
	.cfi_offset 13, -32
	pushq	%r12
	.cfi_def_cfa_offset 40
	.cfi_offset 12, -40
	pushq	%rbp
	.cfi_def_cfa_offset 48
	.cfi_offset 6, -48
	pushq	%rbx
	.cfi_def_cfa_offset 56
	.cfi_offset 3, -56
	subq	$8, %rsp
	.cfi_def_cfa_offset 64
.LBB4750:
.LBB4748:
.LBB4744:
.LBB4743:
.LBB4742:
.LBB4741:
.LBB4740:
.LBB4739:
.LBB4738:
	.loc 1 2144 0
	movq	CLEAR_ARRAY_OBJ_MASK(%rip), %rsi
	andq	%rsi, %rax
.LVL1778:
.LBE4738:
.LBE4739:
	.loc 1 2161 0
	cmpq	$4, (%rax)
	cmovbe	(%rax), %rdx
.LBE4740:
.LBE4741:
.LBE4742:
.LBE4743:
.LBE4744:
	.loc 1 554 0
	cmpl	$2, %edx
	je	.L1328
	jb	.L1329
.LVL1779:
.LBB4745:
.LBB4746:
	.loc 1 564 0
	movq	(%rax), %rax
.LVL1780:
	.loc 1 565 0
	movslq	4(%rax), %rax
.LVL1781:
	leaq	16(,%rax,8), %r13
.LVL1782:
.L1331:
.LBE4746:
.LBE4745:
.LBE4748:
.LBE4750:
.LBB4751:
.LBB4752:
	.loc 1 485 0
	movq	heap_pointer(%rip), %rcx
.LVL1783:
	.loc 1 486 0
	leaq	(%rcx,%r13), %rax
	.loc 1 487 0
	cmpq	%rax, top_of_heap(%rip)
	.loc 1 486 0
	movq	%rax, heap_pointer(%rip)
.LVL1784:
	.loc 1 487 0
	ja	.L1347
.LVL1785:
.L1333:
.LBB4753:
